

Microchip Technology PIC18 LITE Macro Assembler V2.00 build -1524193055 
                                                                                               Fri Nov 29 08:38:59 2019

Microchip Technology Omniscient Code Generator v2.00 (Free mode) build 20180527130849
     1  0000                     
     2                           ; Version 2.00
     3                           ; Generated 27/05/2018 GMT
     4                           
     5                           ; 
     6                           ; Copyright © 2018, Microchip Technology Inc. and its subsidiaries ("Microchip")
     7                           ; All rights reserved.
     8                           ; 
     9                           ; This software is developed by Microchip Technology Inc. and its subsidiaries ("Microch
                                 ip").
    10                           ; 
    11                           ; Redistribution and use in source and binary forms, with or without modification, are
    12                           ; permitted provided that the following conditions are met:
    13                           ; 
    14                           ;     1. Redistributions of source code must retain the above copyright notice, this lis
                                 t of
    15                           ;        conditions and the following disclaimer.
    16                           ; 
    17                           ;     2. Redistributions in binary form must reproduce the above copyright notice, this 
                                 list
    18                           ;        of conditions and the following disclaimer in the documentation and/or other
    19                           ;        materials provided with the distribution.
    20                           ; 
    21                           ;     3. Microchip's name may not be used to endorse or promote products derived from th
                                 is
    22                           ;        software without specific prior written permission.
    23                           ; 
    24                           ; THIS SOFTWARE IS PROVIDED BY MICROCHIP "AS IS" AND ANY EXPRESS OR IMPLIED WARRANTIES,

    25                           ; INCLUDING, BUT NOT LIMITED TO, THE IMPLIED WARRANTIES OF MERCHANTABILITY AND FITNESS F
                                 OR
    26                           ; PURPOSE ARE DISCLAIMED.  IN NO EVENT SHALL MICROCHIP BE LIABLE FOR ANY DIRECT, INDIREC
                                 T,
    27                           ; INCIDENTAL, SPECIAL, EXEMPLARY, OR CONSEQUENTIAL DAMAGES (INCLUDING BUT NOT LIMITED TO
                                 
    28                           ; PROCUREMENT OF SUBSTITUTE GOODS OR SERVICES; LOSS OF USE, DATA OR PROFITS; OR BUSINESS
                                 
    29                           ; INTERRUPTION) HOWSOEVER CAUSED AND ON ANY THEORY OF LIABILITY, WHETHER IN CONTRACT, ST
                                 RICT
    30                           ; LIABILITY, OR TORT (INCLUDING NEGLIGENCE OR OTHERWISE) ARISING IN ANY WAY OUT OF THE U
                                 SE OF
    31                           ; THIS SOFTWARE, EVEN IF ADVISED OF THE POSSIBILITY OF SUCH DAMAGE.
    32                           ; 
    33                           
    34                           
    35                           ; 
    36                           ; Code-generator required, PIC18F4520 Definitions
    37                           ; 
    38  0000                     fsr0 equ 0FE9h
    39  0000                     fsr0h equ 0FEAh
    40  0000                     fsr0l equ 0FE9h
    41  0000                     fsr1 equ 0FE1h
    42  0000                     fsr1h equ 0FE2h
    43  0000                     fsr1l equ 0FE1h
    44  0000                     fsr2 equ 0FD9h
    45  0000                     fsr2h equ 0FDAh
    46  0000                     fsr2l equ 0FD9h
    47  0000                     indf0 equ 0FEFh
    48  0000                     indf1 equ 0FE7h
    49  0000                     indf2 equ 0FDFh
    50  0000                     intcon equ 0FF2h
    51  0000                     nvmcon equ 00h
    52  0000                     pcl equ 0FF9h
    53  0000                     pclath equ 0FFAh
    54  0000                     pclatu equ 0FFBh
    55  0000                     plusw0 equ 0FEBh
    56  0000                     plusw1 equ 0FE3h
    57  0000                     plusw2 equ 0FDBh
    58  0000                     postdec0 equ 0FEDh
    59  0000                     postdec1 equ 0FE5h
    60  0000                     postdec2 equ 0FDDh
    61  0000                     postinc0 equ 0FEEh
    62  0000                     postinc1 equ 0FE6h
    63  0000                     postinc2 equ 0FDEh
    64  0000                     preinc0 equ 0FECh
    65  0000                     preinc1 equ 0FE4h
    66  0000                     preinc2 equ 0FDCh
    67  0000                     prod equ 0FF3h
    68  0000                     prodh equ 0FF4h
    69  0000                     prodl equ 0FF3h
    70  0000                     status equ 0FD8h
    71  0000                     tablat equ 0FF5h
    72  0000                     tblptr equ 0FF6h
    73  0000                     tblptrh equ 0FF7h
    74  0000                     tblptrl equ 0FF6h
    75  0000                     tblptru equ 0FF8h
    76  0000                     tosl equ 0FFDh
    77  0000                     wreg equ 0FE8h
    78  0000                     
     2                           opt pagewidth 120
     3  0000                     byte0	macro	val
     4                           	(getbyte(val,0))
     5                           endm
     6  0000                     byte1	macro	val
     7                           	(getbyte(val,1))
     8                           endm
     9  0000                     byte2	macro	val
    10                           	(getbyte(val,2))
    11                           endm
    12  0000                     byte3	macro	val
    13                           	(getbyte(val,3))
    14                           endm
    15  0000                     byte4	macro	val
    16                           	(getbyte(val,4))
    17                           endm
    18  0000                     byte5	macro	val
    19                           	(getbyte(val,5))
    20                           endm
    21  0000                     byte6	macro	val
    22                           	(getbyte(val,6))
    23                           endm
    24  0000                     byte7	macro	val
    25                           	(getbyte(val,7))
    26                           endm
    27  0000                     getword	macro	val,pos
    28                           	(((val) >> (8 * pos)) and 0xffff)
    29                           endm
    30  0000                     word0	macro	val
    31                           	(getword(val,0))
    32                           endm
    33  0000                     word1	macro	val
    34                           	(getword(val,2))
    35                           endm
    36  0000                     word2	macro	val
    37                           	(getword(val,4))
    38                           endm
    39  0000                     word3	macro	val
    40                           	(getword(val,6))
    41                           endm
    42  0000                     gettword	macro	val,pos
    43                           	(((val) >> (8 * pos)) and 0xffffff)
    44                           endm
    45  0000                     tword0	macro	val
    46                           	(gettword(val,0))
    47                           endm
    48  0000                     tword1	macro	val
    49                           	(gettword(val,3))
    50                           endm
    51  0000                     tword2	macro	val
    52                           	(gettword(val,6))
    53                           endm
    54  0000                     getdword	macro	val,pos
    55                           	(((val) >> (8 * pos)) and 0xffffffff)
    56                           endm
    57  0000                     dword0	macro	val
    58                           	(getdword(val,0))
    59                           endm
    60  0000                     dword1	macro	val
    61                           	(getdword(val,4))
    62                           endm
    63  0000                     clrc   macro
    64                           	bcf	status,0
    65                           endm
    66  0000                     setc   macro
    67                           	bsf	status,0
    68                           endm
    69  0000                     clrz   macro
    70                           	bcf	status,2
    71                           endm
    72  0000                     setz   macro
    73                           	bsf	status,2
    74                           endm
    75  0000                     skipnz macro
    76                           	btfsc	status,2
    77                           endm
    78  0000                     skipz  macro
    79                           	btfss	status,2
    80                           endm
    81  0000                     skipnc macro
    82                           	btfsc	status,0
    83                           endm
    84  0000                     skipc  macro
    85                           	btfss	status,0
    86                           endm
    87  0000                     pushw macro
    88                           	movwf postinc1
    89                           endm
    90  0000                     pushf macro arg1
    91                           	movff arg1, postinc1
    92                           endm
    93  0000                     popw macro
    94                           	movf postdec1,f
    95                           	movf indf1,w
    96                           endm
    97  0000                     popf macro arg1
    98                           	movf postdec1,f
    99                           	movff indf1,arg1
   100                           endm
   101  0000                     popfc macro arg1
   102                           	movff plusw1,arg1
   103                           	decfsz fsr1,f
   104                           endm
   105  0000                     	global	__ramtop
   106                           	global	__accesstop
   107                           # 54 "E:\ProgramasWindowns\Microchip\xc8\v2.00\pic\include\pic18f4520.h"
   108                           PORTA equ 0F80h ;# 
   109  0000                     # 273 "E:\ProgramasWindowns\Microchip\xc8\v2.00\pic\include\pic18f4520.h"
   110                           PORTB equ 0F81h ;# 
   111  0000                     # 452 "E:\ProgramasWindowns\Microchip\xc8\v2.00\pic\include\pic18f4520.h"
   112                           PORTC equ 0F82h ;# 
   113  0000                     # 634 "E:\ProgramasWindowns\Microchip\xc8\v2.00\pic\include\pic18f4520.h"
   114                           PORTD equ 0F83h ;# 
   115  0000                     # 776 "E:\ProgramasWindowns\Microchip\xc8\v2.00\pic\include\pic18f4520.h"
   116                           PORTE equ 0F84h ;# 
   117  0000                     # 979 "E:\ProgramasWindowns\Microchip\xc8\v2.00\pic\include\pic18f4520.h"
   118                           LATA equ 0F89h ;# 
   119  0000                     # 1091 "E:\ProgramasWindowns\Microchip\xc8\v2.00\pic\include\pic18f4520.h"
   120                           LATB equ 0F8Ah ;# 
   121  0000                     # 1203 "E:\ProgramasWindowns\Microchip\xc8\v2.00\pic\include\pic18f4520.h"
   122                           LATC equ 0F8Bh ;# 
   123  0000                     # 1315 "E:\ProgramasWindowns\Microchip\xc8\v2.00\pic\include\pic18f4520.h"
   124                           LATD equ 0F8Ch ;# 
   125  0000                     # 1427 "E:\ProgramasWindowns\Microchip\xc8\v2.00\pic\include\pic18f4520.h"
   126                           LATE equ 0F8Dh ;# 
   127  0000                     # 1479 "E:\ProgramasWindowns\Microchip\xc8\v2.00\pic\include\pic18f4520.h"
   128                           TRISA equ 0F92h ;# 
   129  0000                     # 1484 "E:\ProgramasWindowns\Microchip\xc8\v2.00\pic\include\pic18f4520.h"
   130                           DDRA equ 0F92h ;# 
   131  0000                     # 1701 "E:\ProgramasWindowns\Microchip\xc8\v2.00\pic\include\pic18f4520.h"
   132                           TRISB equ 0F93h ;# 
   133  0000                     # 1706 "E:\ProgramasWindowns\Microchip\xc8\v2.00\pic\include\pic18f4520.h"
   134                           DDRB equ 0F93h ;# 
   135  0000                     # 1923 "E:\ProgramasWindowns\Microchip\xc8\v2.00\pic\include\pic18f4520.h"
   136                           TRISC equ 0F94h ;# 
   137  0000                     # 1928 "E:\ProgramasWindowns\Microchip\xc8\v2.00\pic\include\pic18f4520.h"
   138                           DDRC equ 0F94h ;# 
   139  0000                     # 2145 "E:\ProgramasWindowns\Microchip\xc8\v2.00\pic\include\pic18f4520.h"
   140                           TRISD equ 0F95h ;# 
   141  0000                     # 2150 "E:\ProgramasWindowns\Microchip\xc8\v2.00\pic\include\pic18f4520.h"
   142                           DDRD equ 0F95h ;# 
   143  0000                     # 2367 "E:\ProgramasWindowns\Microchip\xc8\v2.00\pic\include\pic18f4520.h"
   144                           TRISE equ 0F96h ;# 
   145  0000                     # 2372 "E:\ProgramasWindowns\Microchip\xc8\v2.00\pic\include\pic18f4520.h"
   146                           DDRE equ 0F96h ;# 
   147  0000                     # 2531 "E:\ProgramasWindowns\Microchip\xc8\v2.00\pic\include\pic18f4520.h"
   148                           OSCTUNE equ 0F9Bh ;# 
   149  0000                     # 2596 "E:\ProgramasWindowns\Microchip\xc8\v2.00\pic\include\pic18f4520.h"
   150                           PIE1 equ 0F9Dh ;# 
   151  0000                     # 2673 "E:\ProgramasWindowns\Microchip\xc8\v2.00\pic\include\pic18f4520.h"
   152                           PIR1 equ 0F9Eh ;# 
   153  0000                     # 2750 "E:\ProgramasWindowns\Microchip\xc8\v2.00\pic\include\pic18f4520.h"
   154                           IPR1 equ 0F9Fh ;# 
   155  0000                     # 2827 "E:\ProgramasWindowns\Microchip\xc8\v2.00\pic\include\pic18f4520.h"
   156                           PIE2 equ 0FA0h ;# 
   157  0000                     # 2893 "E:\ProgramasWindowns\Microchip\xc8\v2.00\pic\include\pic18f4520.h"
   158                           PIR2 equ 0FA1h ;# 
   159  0000                     # 2959 "E:\ProgramasWindowns\Microchip\xc8\v2.00\pic\include\pic18f4520.h"
   160                           IPR2 equ 0FA2h ;# 
   161  0000                     # 3025 "E:\ProgramasWindowns\Microchip\xc8\v2.00\pic\include\pic18f4520.h"
   162                           EECON1 equ 0FA6h ;# 
   163  0000                     # 3091 "E:\ProgramasWindowns\Microchip\xc8\v2.00\pic\include\pic18f4520.h"
   164                           EECON2 equ 0FA7h ;# 
   165  0000                     # 3098 "E:\ProgramasWindowns\Microchip\xc8\v2.00\pic\include\pic18f4520.h"
   166                           EEDATA equ 0FA8h ;# 
   167  0000                     # 3105 "E:\ProgramasWindowns\Microchip\xc8\v2.00\pic\include\pic18f4520.h"
   168                           EEADR equ 0FA9h ;# 
   169  0000                     # 3112 "E:\ProgramasWindowns\Microchip\xc8\v2.00\pic\include\pic18f4520.h"
   170                           RCSTA equ 0FABh ;# 
   171  0000                     # 3117 "E:\ProgramasWindowns\Microchip\xc8\v2.00\pic\include\pic18f4520.h"
   172                           RCSTA1 equ 0FABh ;# 
   173  0000                     # 3322 "E:\ProgramasWindowns\Microchip\xc8\v2.00\pic\include\pic18f4520.h"
   174                           TXSTA equ 0FACh ;# 
   175  0000                     # 3327 "E:\ProgramasWindowns\Microchip\xc8\v2.00\pic\include\pic18f4520.h"
   176                           TXSTA1 equ 0FACh ;# 
   177  0000                     # 3578 "E:\ProgramasWindowns\Microchip\xc8\v2.00\pic\include\pic18f4520.h"
   178                           TXREG equ 0FADh ;# 
   179  0000                     # 3583 "E:\ProgramasWindowns\Microchip\xc8\v2.00\pic\include\pic18f4520.h"
   180                           TXREG1 equ 0FADh ;# 
   181  0000                     # 3590 "E:\ProgramasWindowns\Microchip\xc8\v2.00\pic\include\pic18f4520.h"
   182                           RCREG equ 0FAEh ;# 
   183  0000                     # 3595 "E:\ProgramasWindowns\Microchip\xc8\v2.00\pic\include\pic18f4520.h"
   184                           RCREG1 equ 0FAEh ;# 
   185  0000                     # 3602 "E:\ProgramasWindowns\Microchip\xc8\v2.00\pic\include\pic18f4520.h"
   186                           SPBRG equ 0FAFh ;# 
   187  0000                     # 3607 "E:\ProgramasWindowns\Microchip\xc8\v2.00\pic\include\pic18f4520.h"
   188                           SPBRG1 equ 0FAFh ;# 
   189  0000                     # 3614 "E:\ProgramasWindowns\Microchip\xc8\v2.00\pic\include\pic18f4520.h"
   190                           SPBRGH equ 0FB0h ;# 
   191  0000                     # 3621 "E:\ProgramasWindowns\Microchip\xc8\v2.00\pic\include\pic18f4520.h"
   192                           T3CON equ 0FB1h ;# 
   193  0000                     # 3733 "E:\ProgramasWindowns\Microchip\xc8\v2.00\pic\include\pic18f4520.h"
   194                           TMR3 equ 0FB2h ;# 
   195  0000                     # 3740 "E:\ProgramasWindowns\Microchip\xc8\v2.00\pic\include\pic18f4520.h"
   196                           TMR3L equ 0FB2h ;# 
   197  0000                     # 3747 "E:\ProgramasWindowns\Microchip\xc8\v2.00\pic\include\pic18f4520.h"
   198                           TMR3H equ 0FB3h ;# 
   199  0000                     # 3754 "E:\ProgramasWindowns\Microchip\xc8\v2.00\pic\include\pic18f4520.h"
   200                           CMCON equ 0FB4h ;# 
   201  0000                     # 3844 "E:\ProgramasWindowns\Microchip\xc8\v2.00\pic\include\pic18f4520.h"
   202                           CVRCON equ 0FB5h ;# 
   203  0000                     # 3923 "E:\ProgramasWindowns\Microchip\xc8\v2.00\pic\include\pic18f4520.h"
   204                           ECCP1AS equ 0FB6h ;# 
   205  0000                     # 3928 "E:\ProgramasWindowns\Microchip\xc8\v2.00\pic\include\pic18f4520.h"
   206                           ECCPAS equ 0FB6h ;# 
   207  0000                     # 4085 "E:\ProgramasWindowns\Microchip\xc8\v2.00\pic\include\pic18f4520.h"
   208                           PWM1CON equ 0FB7h ;# 
   209  0000                     # 4090 "E:\ProgramasWindowns\Microchip\xc8\v2.00\pic\include\pic18f4520.h"
   210                           ECCP1DEL equ 0FB7h ;# 
   211  0000                     # 4223 "E:\ProgramasWindowns\Microchip\xc8\v2.00\pic\include\pic18f4520.h"
   212                           BAUDCON equ 0FB8h ;# 
   213  0000                     # 4228 "E:\ProgramasWindowns\Microchip\xc8\v2.00\pic\include\pic18f4520.h"
   214                           BAUDCTL equ 0FB8h ;# 
   215  0000                     # 4403 "E:\ProgramasWindowns\Microchip\xc8\v2.00\pic\include\pic18f4520.h"
   216                           CCP2CON equ 0FBAh ;# 
   217  0000                     # 4482 "E:\ProgramasWindowns\Microchip\xc8\v2.00\pic\include\pic18f4520.h"
   218                           CCPR2 equ 0FBBh ;# 
   219  0000                     # 4489 "E:\ProgramasWindowns\Microchip\xc8\v2.00\pic\include\pic18f4520.h"
   220                           CCPR2L equ 0FBBh ;# 
   221  0000                     # 4496 "E:\ProgramasWindowns\Microchip\xc8\v2.00\pic\include\pic18f4520.h"
   222                           CCPR2H equ 0FBCh ;# 
   223  0000                     # 4503 "E:\ProgramasWindowns\Microchip\xc8\v2.00\pic\include\pic18f4520.h"
   224                           CCP1CON equ 0FBDh ;# 
   225  0000                     # 4600 "E:\ProgramasWindowns\Microchip\xc8\v2.00\pic\include\pic18f4520.h"
   226                           CCPR1 equ 0FBEh ;# 
   227  0000                     # 4607 "E:\ProgramasWindowns\Microchip\xc8\v2.00\pic\include\pic18f4520.h"
   228                           CCPR1L equ 0FBEh ;# 
   229  0000                     # 4614 "E:\ProgramasWindowns\Microchip\xc8\v2.00\pic\include\pic18f4520.h"
   230                           CCPR1H equ 0FBFh ;# 
   231  0000                     # 4621 "E:\ProgramasWindowns\Microchip\xc8\v2.00\pic\include\pic18f4520.h"
   232                           ADCON2 equ 0FC0h ;# 
   233  0000                     # 4692 "E:\ProgramasWindowns\Microchip\xc8\v2.00\pic\include\pic18f4520.h"
   234                           ADCON1 equ 0FC1h ;# 
   235  0000                     # 4777 "E:\ProgramasWindowns\Microchip\xc8\v2.00\pic\include\pic18f4520.h"
   236                           ADCON0 equ 0FC2h ;# 
   237  0000                     # 4896 "E:\ProgramasWindowns\Microchip\xc8\v2.00\pic\include\pic18f4520.h"
   238                           ADRES equ 0FC3h ;# 
   239  0000                     # 4903 "E:\ProgramasWindowns\Microchip\xc8\v2.00\pic\include\pic18f4520.h"
   240                           ADRESL equ 0FC3h ;# 
   241  0000                     # 4910 "E:\ProgramasWindowns\Microchip\xc8\v2.00\pic\include\pic18f4520.h"
   242                           ADRESH equ 0FC4h ;# 
   243  0000                     # 4917 "E:\ProgramasWindowns\Microchip\xc8\v2.00\pic\include\pic18f4520.h"
   244                           SSPCON2 equ 0FC5h ;# 
   245  0000                     # 5012 "E:\ProgramasWindowns\Microchip\xc8\v2.00\pic\include\pic18f4520.h"
   246                           SSPCON1 equ 0FC6h ;# 
   247  0000                     # 5082 "E:\ProgramasWindowns\Microchip\xc8\v2.00\pic\include\pic18f4520.h"
   248                           SSPSTAT equ 0FC7h ;# 
   249  0000                     # 5303 "E:\ProgramasWindowns\Microchip\xc8\v2.00\pic\include\pic18f4520.h"
   250                           SSPADD equ 0FC8h ;# 
   251  0000                     # 5310 "E:\ProgramasWindowns\Microchip\xc8\v2.00\pic\include\pic18f4520.h"
   252                           SSPBUF equ 0FC9h ;# 
   253  0000                     # 5317 "E:\ProgramasWindowns\Microchip\xc8\v2.00\pic\include\pic18f4520.h"
   254                           T2CON equ 0FCAh ;# 
   255  0000                     # 5415 "E:\ProgramasWindowns\Microchip\xc8\v2.00\pic\include\pic18f4520.h"
   256                           PR2 equ 0FCBh ;# 
   257  0000                     # 5420 "E:\ProgramasWindowns\Microchip\xc8\v2.00\pic\include\pic18f4520.h"
   258                           MEMCON equ 0FCBh ;# 
   259  0000                     # 5525 "E:\ProgramasWindowns\Microchip\xc8\v2.00\pic\include\pic18f4520.h"
   260                           TMR2 equ 0FCCh ;# 
   261  0000                     # 5532 "E:\ProgramasWindowns\Microchip\xc8\v2.00\pic\include\pic18f4520.h"
   262                           T1CON equ 0FCDh ;# 
   263  0000                     # 5635 "E:\ProgramasWindowns\Microchip\xc8\v2.00\pic\include\pic18f4520.h"
   264                           TMR1 equ 0FCEh ;# 
   265  0000                     # 5642 "E:\ProgramasWindowns\Microchip\xc8\v2.00\pic\include\pic18f4520.h"
   266                           TMR1L equ 0FCEh ;# 
   267  0000                     # 5649 "E:\ProgramasWindowns\Microchip\xc8\v2.00\pic\include\pic18f4520.h"
   268                           TMR1H equ 0FCFh ;# 
   269  0000                     # 5656 "E:\ProgramasWindowns\Microchip\xc8\v2.00\pic\include\pic18f4520.h"
   270                           RCON equ 0FD0h ;# 
   271  0000                     # 5789 "E:\ProgramasWindowns\Microchip\xc8\v2.00\pic\include\pic18f4520.h"
   272                           WDTCON equ 0FD1h ;# 
   273  0000                     # 5817 "E:\ProgramasWindowns\Microchip\xc8\v2.00\pic\include\pic18f4520.h"
   274                           HLVDCON equ 0FD2h ;# 
   275  0000                     # 5822 "E:\ProgramasWindowns\Microchip\xc8\v2.00\pic\include\pic18f4520.h"
   276                           LVDCON equ 0FD2h ;# 
   277  0000                     # 6087 "E:\ProgramasWindowns\Microchip\xc8\v2.00\pic\include\pic18f4520.h"
   278                           OSCCON equ 0FD3h ;# 
   279  0000                     # 6170 "E:\ProgramasWindowns\Microchip\xc8\v2.00\pic\include\pic18f4520.h"
   280                           T0CON equ 0FD5h ;# 
   281  0000                     # 6253 "E:\ProgramasWindowns\Microchip\xc8\v2.00\pic\include\pic18f4520.h"
   282                           TMR0 equ 0FD6h ;# 
   283  0000                     # 6260 "E:\ProgramasWindowns\Microchip\xc8\v2.00\pic\include\pic18f4520.h"
   284                           TMR0L equ 0FD6h ;# 
   285  0000                     # 6267 "E:\ProgramasWindowns\Microchip\xc8\v2.00\pic\include\pic18f4520.h"
   286                           TMR0H equ 0FD7h ;# 
   287  0000                     # 6274 "E:\ProgramasWindowns\Microchip\xc8\v2.00\pic\include\pic18f4520.h"
   288                           STATUS equ 0FD8h ;# 
   289  0000                     # 6345 "E:\ProgramasWindowns\Microchip\xc8\v2.00\pic\include\pic18f4520.h"
   290                           FSR2 equ 0FD9h ;# 
   291  0000                     # 6352 "E:\ProgramasWindowns\Microchip\xc8\v2.00\pic\include\pic18f4520.h"
   292                           FSR2L equ 0FD9h ;# 
   293  0000                     # 6359 "E:\ProgramasWindowns\Microchip\xc8\v2.00\pic\include\pic18f4520.h"
   294                           FSR2H equ 0FDAh ;# 
   295  0000                     # 6366 "E:\ProgramasWindowns\Microchip\xc8\v2.00\pic\include\pic18f4520.h"
   296                           PLUSW2 equ 0FDBh ;# 
   297  0000                     # 6373 "E:\ProgramasWindowns\Microchip\xc8\v2.00\pic\include\pic18f4520.h"
   298                           PREINC2 equ 0FDCh ;# 
   299  0000                     # 6380 "E:\ProgramasWindowns\Microchip\xc8\v2.00\pic\include\pic18f4520.h"
   300                           POSTDEC2 equ 0FDDh ;# 
   301  0000                     # 6387 "E:\ProgramasWindowns\Microchip\xc8\v2.00\pic\include\pic18f4520.h"
   302                           POSTINC2 equ 0FDEh ;# 
   303  0000                     # 6394 "E:\ProgramasWindowns\Microchip\xc8\v2.00\pic\include\pic18f4520.h"
   304                           INDF2 equ 0FDFh ;# 
   305  0000                     # 6401 "E:\ProgramasWindowns\Microchip\xc8\v2.00\pic\include\pic18f4520.h"
   306                           BSR equ 0FE0h ;# 
   307  0000                     # 6408 "E:\ProgramasWindowns\Microchip\xc8\v2.00\pic\include\pic18f4520.h"
   308                           FSR1 equ 0FE1h ;# 
   309  0000                     # 6415 "E:\ProgramasWindowns\Microchip\xc8\v2.00\pic\include\pic18f4520.h"
   310                           FSR1L equ 0FE1h ;# 
   311  0000                     # 6422 "E:\ProgramasWindowns\Microchip\xc8\v2.00\pic\include\pic18f4520.h"
   312                           FSR1H equ 0FE2h ;# 
   313  0000                     # 6429 "E:\ProgramasWindowns\Microchip\xc8\v2.00\pic\include\pic18f4520.h"
   314                           PLUSW1 equ 0FE3h ;# 
   315  0000                     # 6436 "E:\ProgramasWindowns\Microchip\xc8\v2.00\pic\include\pic18f4520.h"
   316                           PREINC1 equ 0FE4h ;# 
   317  0000                     # 6443 "E:\ProgramasWindowns\Microchip\xc8\v2.00\pic\include\pic18f4520.h"
   318                           POSTDEC1 equ 0FE5h ;# 
   319  0000                     # 6450 "E:\ProgramasWindowns\Microchip\xc8\v2.00\pic\include\pic18f4520.h"
   320                           POSTINC1 equ 0FE6h ;# 
   321  0000                     # 6457 "E:\ProgramasWindowns\Microchip\xc8\v2.00\pic\include\pic18f4520.h"
   322                           INDF1 equ 0FE7h ;# 
   323  0000                     # 6464 "E:\ProgramasWindowns\Microchip\xc8\v2.00\pic\include\pic18f4520.h"
   324                           WREG equ 0FE8h ;# 
   325  0000                     # 6476 "E:\ProgramasWindowns\Microchip\xc8\v2.00\pic\include\pic18f4520.h"
   326                           FSR0 equ 0FE9h ;# 
   327  0000                     # 6483 "E:\ProgramasWindowns\Microchip\xc8\v2.00\pic\include\pic18f4520.h"
   328                           FSR0L equ 0FE9h ;# 
   329  0000                     # 6490 "E:\ProgramasWindowns\Microchip\xc8\v2.00\pic\include\pic18f4520.h"
   330                           FSR0H equ 0FEAh ;# 
   331  0000                     # 6497 "E:\ProgramasWindowns\Microchip\xc8\v2.00\pic\include\pic18f4520.h"
   332                           PLUSW0 equ 0FEBh ;# 
   333  0000                     # 6504 "E:\ProgramasWindowns\Microchip\xc8\v2.00\pic\include\pic18f4520.h"
   334                           PREINC0 equ 0FECh ;# 
   335  0000                     # 6511 "E:\ProgramasWindowns\Microchip\xc8\v2.00\pic\include\pic18f4520.h"
   336                           POSTDEC0 equ 0FEDh ;# 
   337  0000                     # 6518 "E:\ProgramasWindowns\Microchip\xc8\v2.00\pic\include\pic18f4520.h"
   338                           POSTINC0 equ 0FEEh ;# 
   339  0000                     # 6525 "E:\ProgramasWindowns\Microchip\xc8\v2.00\pic\include\pic18f4520.h"
   340                           INDF0 equ 0FEFh ;# 
   341  0000                     # 6532 "E:\ProgramasWindowns\Microchip\xc8\v2.00\pic\include\pic18f4520.h"
   342                           INTCON3 equ 0FF0h ;# 
   343  0000                     # 6624 "E:\ProgramasWindowns\Microchip\xc8\v2.00\pic\include\pic18f4520.h"
   344                           INTCON2 equ 0FF1h ;# 
   345  0000                     # 6694 "E:\ProgramasWindowns\Microchip\xc8\v2.00\pic\include\pic18f4520.h"
   346                           INTCON equ 0FF2h ;# 
   347  0000                     # 6811 "E:\ProgramasWindowns\Microchip\xc8\v2.00\pic\include\pic18f4520.h"
   348                           PROD equ 0FF3h ;# 
   349  0000                     # 6818 "E:\ProgramasWindowns\Microchip\xc8\v2.00\pic\include\pic18f4520.h"
   350                           PRODL equ 0FF3h ;# 
   351  0000                     # 6825 "E:\ProgramasWindowns\Microchip\xc8\v2.00\pic\include\pic18f4520.h"
   352                           PRODH equ 0FF4h ;# 
   353  0000                     # 6832 "E:\ProgramasWindowns\Microchip\xc8\v2.00\pic\include\pic18f4520.h"
   354                           TABLAT equ 0FF5h ;# 
   355  0000                     # 6841 "E:\ProgramasWindowns\Microchip\xc8\v2.00\pic\include\pic18f4520.h"
   356                           TBLPTR equ 0FF6h ;# 
   357  0000                     # 6848 "E:\ProgramasWindowns\Microchip\xc8\v2.00\pic\include\pic18f4520.h"
   358                           TBLPTRL equ 0FF6h ;# 
   359  0000                     # 6855 "E:\ProgramasWindowns\Microchip\xc8\v2.00\pic\include\pic18f4520.h"
   360                           TBLPTRH equ 0FF7h ;# 
   361  0000                     # 6862 "E:\ProgramasWindowns\Microchip\xc8\v2.00\pic\include\pic18f4520.h"
   362                           TBLPTRU equ 0FF8h ;# 
   363  0000                     # 6871 "E:\ProgramasWindowns\Microchip\xc8\v2.00\pic\include\pic18f4520.h"
   364                           PCLAT equ 0FF9h ;# 
   365  0000                     # 6878 "E:\ProgramasWindowns\Microchip\xc8\v2.00\pic\include\pic18f4520.h"
   366                           PC equ 0FF9h ;# 
   367  0000                     # 6885 "E:\ProgramasWindowns\Microchip\xc8\v2.00\pic\include\pic18f4520.h"
   368                           PCL equ 0FF9h ;# 
   369  0000                     # 6892 "E:\ProgramasWindowns\Microchip\xc8\v2.00\pic\include\pic18f4520.h"
   370                           PCLATH equ 0FFAh ;# 
   371  0000                     # 6899 "E:\ProgramasWindowns\Microchip\xc8\v2.00\pic\include\pic18f4520.h"
   372                           PCLATU equ 0FFBh ;# 
   373  0000                     # 6906 "E:\ProgramasWindowns\Microchip\xc8\v2.00\pic\include\pic18f4520.h"
   374                           STKPTR equ 0FFCh ;# 
   375  0000                     # 6980 "E:\ProgramasWindowns\Microchip\xc8\v2.00\pic\include\pic18f4520.h"
   376                           TOS equ 0FFDh ;# 
   377  0000                     # 6987 "E:\ProgramasWindowns\Microchip\xc8\v2.00\pic\include\pic18f4520.h"
   378                           TOSL equ 0FFDh ;# 
   379  0000                     # 6994 "E:\ProgramasWindowns\Microchip\xc8\v2.00\pic\include\pic18f4520.h"
   380                           TOSH equ 0FFEh ;# 
   381  0000                     # 7001 "E:\ProgramasWindowns\Microchip\xc8\v2.00\pic\include\pic18f4520.h"
   382                           TOSU equ 0FFFh ;# 
   383  0000                     # 54 "E:\ProgramasWindowns\Microchip\xc8\v2.00\pic\include\pic18f4520.h"
   384                           PORTA equ 0F80h ;# 
   385  0000                     # 273 "E:\ProgramasWindowns\Microchip\xc8\v2.00\pic\include\pic18f4520.h"
   386                           PORTB equ 0F81h ;# 
   387  0000                     # 452 "E:\ProgramasWindowns\Microchip\xc8\v2.00\pic\include\pic18f4520.h"
   388                           PORTC equ 0F82h ;# 
   389  0000                     # 634 "E:\ProgramasWindowns\Microchip\xc8\v2.00\pic\include\pic18f4520.h"
   390                           PORTD equ 0F83h ;# 
   391  0000                     # 776 "E:\ProgramasWindowns\Microchip\xc8\v2.00\pic\include\pic18f4520.h"
   392                           PORTE equ 0F84h ;# 
   393  0000                     # 979 "E:\ProgramasWindowns\Microchip\xc8\v2.00\pic\include\pic18f4520.h"
   394                           LATA equ 0F89h ;# 
   395  0000                     # 1091 "E:\ProgramasWindowns\Microchip\xc8\v2.00\pic\include\pic18f4520.h"
   396                           LATB equ 0F8Ah ;# 
   397  0000                     # 1203 "E:\ProgramasWindowns\Microchip\xc8\v2.00\pic\include\pic18f4520.h"
   398                           LATC equ 0F8Bh ;# 
   399  0000                     # 1315 "E:\ProgramasWindowns\Microchip\xc8\v2.00\pic\include\pic18f4520.h"
   400                           LATD equ 0F8Ch ;# 
   401  0000                     # 1427 "E:\ProgramasWindowns\Microchip\xc8\v2.00\pic\include\pic18f4520.h"
   402                           LATE equ 0F8Dh ;# 
   403  0000                     # 1479 "E:\ProgramasWindowns\Microchip\xc8\v2.00\pic\include\pic18f4520.h"
   404                           TRISA equ 0F92h ;# 
   405  0000                     # 1484 "E:\ProgramasWindowns\Microchip\xc8\v2.00\pic\include\pic18f4520.h"
   406                           DDRA equ 0F92h ;# 
   407  0000                     # 1701 "E:\ProgramasWindowns\Microchip\xc8\v2.00\pic\include\pic18f4520.h"
   408                           TRISB equ 0F93h ;# 
   409  0000                     # 1706 "E:\ProgramasWindowns\Microchip\xc8\v2.00\pic\include\pic18f4520.h"
   410                           DDRB equ 0F93h ;# 
   411  0000                     # 1923 "E:\ProgramasWindowns\Microchip\xc8\v2.00\pic\include\pic18f4520.h"
   412                           TRISC equ 0F94h ;# 
   413  0000                     # 1928 "E:\ProgramasWindowns\Microchip\xc8\v2.00\pic\include\pic18f4520.h"
   414                           DDRC equ 0F94h ;# 
   415  0000                     # 2145 "E:\ProgramasWindowns\Microchip\xc8\v2.00\pic\include\pic18f4520.h"
   416                           TRISD equ 0F95h ;# 
   417  0000                     # 2150 "E:\ProgramasWindowns\Microchip\xc8\v2.00\pic\include\pic18f4520.h"
   418                           DDRD equ 0F95h ;# 
   419  0000                     # 2367 "E:\ProgramasWindowns\Microchip\xc8\v2.00\pic\include\pic18f4520.h"
   420                           TRISE equ 0F96h ;# 
   421  0000                     # 2372 "E:\ProgramasWindowns\Microchip\xc8\v2.00\pic\include\pic18f4520.h"
   422                           DDRE equ 0F96h ;# 
   423  0000                     # 2531 "E:\ProgramasWindowns\Microchip\xc8\v2.00\pic\include\pic18f4520.h"
   424                           OSCTUNE equ 0F9Bh ;# 
   425  0000                     # 2596 "E:\ProgramasWindowns\Microchip\xc8\v2.00\pic\include\pic18f4520.h"
   426                           PIE1 equ 0F9Dh ;# 
   427  0000                     # 2673 "E:\ProgramasWindowns\Microchip\xc8\v2.00\pic\include\pic18f4520.h"
   428                           PIR1 equ 0F9Eh ;# 
   429  0000                     # 2750 "E:\ProgramasWindowns\Microchip\xc8\v2.00\pic\include\pic18f4520.h"
   430                           IPR1 equ 0F9Fh ;# 
   431  0000                     # 2827 "E:\ProgramasWindowns\Microchip\xc8\v2.00\pic\include\pic18f4520.h"
   432                           PIE2 equ 0FA0h ;# 
   433  0000                     # 2893 "E:\ProgramasWindowns\Microchip\xc8\v2.00\pic\include\pic18f4520.h"
   434                           PIR2 equ 0FA1h ;# 
   435  0000                     # 2959 "E:\ProgramasWindowns\Microchip\xc8\v2.00\pic\include\pic18f4520.h"
   436                           IPR2 equ 0FA2h ;# 
   437  0000                     # 3025 "E:\ProgramasWindowns\Microchip\xc8\v2.00\pic\include\pic18f4520.h"
   438                           EECON1 equ 0FA6h ;# 
   439  0000                     # 3091 "E:\ProgramasWindowns\Microchip\xc8\v2.00\pic\include\pic18f4520.h"
   440                           EECON2 equ 0FA7h ;# 
   441  0000                     # 3098 "E:\ProgramasWindowns\Microchip\xc8\v2.00\pic\include\pic18f4520.h"
   442                           EEDATA equ 0FA8h ;# 
   443  0000                     # 3105 "E:\ProgramasWindowns\Microchip\xc8\v2.00\pic\include\pic18f4520.h"
   444                           EEADR equ 0FA9h ;# 
   445  0000                     # 3112 "E:\ProgramasWindowns\Microchip\xc8\v2.00\pic\include\pic18f4520.h"
   446                           RCSTA equ 0FABh ;# 
   447  0000                     # 3117 "E:\ProgramasWindowns\Microchip\xc8\v2.00\pic\include\pic18f4520.h"
   448                           RCSTA1 equ 0FABh ;# 
   449  0000                     # 3322 "E:\ProgramasWindowns\Microchip\xc8\v2.00\pic\include\pic18f4520.h"
   450                           TXSTA equ 0FACh ;# 
   451  0000                     # 3327 "E:\ProgramasWindowns\Microchip\xc8\v2.00\pic\include\pic18f4520.h"
   452                           TXSTA1 equ 0FACh ;# 
   453  0000                     # 3578 "E:\ProgramasWindowns\Microchip\xc8\v2.00\pic\include\pic18f4520.h"
   454                           TXREG equ 0FADh ;# 
   455  0000                     # 3583 "E:\ProgramasWindowns\Microchip\xc8\v2.00\pic\include\pic18f4520.h"
   456                           TXREG1 equ 0FADh ;# 
   457  0000                     # 3590 "E:\ProgramasWindowns\Microchip\xc8\v2.00\pic\include\pic18f4520.h"
   458                           RCREG equ 0FAEh ;# 
   459  0000                     # 3595 "E:\ProgramasWindowns\Microchip\xc8\v2.00\pic\include\pic18f4520.h"
   460                           RCREG1 equ 0FAEh ;# 
   461  0000                     # 3602 "E:\ProgramasWindowns\Microchip\xc8\v2.00\pic\include\pic18f4520.h"
   462                           SPBRG equ 0FAFh ;# 
   463  0000                     # 3607 "E:\ProgramasWindowns\Microchip\xc8\v2.00\pic\include\pic18f4520.h"
   464                           SPBRG1 equ 0FAFh ;# 
   465  0000                     # 3614 "E:\ProgramasWindowns\Microchip\xc8\v2.00\pic\include\pic18f4520.h"
   466                           SPBRGH equ 0FB0h ;# 
   467  0000                     # 3621 "E:\ProgramasWindowns\Microchip\xc8\v2.00\pic\include\pic18f4520.h"
   468                           T3CON equ 0FB1h ;# 
   469  0000                     # 3733 "E:\ProgramasWindowns\Microchip\xc8\v2.00\pic\include\pic18f4520.h"
   470                           TMR3 equ 0FB2h ;# 
   471  0000                     # 3740 "E:\ProgramasWindowns\Microchip\xc8\v2.00\pic\include\pic18f4520.h"
   472                           TMR3L equ 0FB2h ;# 
   473  0000                     # 3747 "E:\ProgramasWindowns\Microchip\xc8\v2.00\pic\include\pic18f4520.h"
   474                           TMR3H equ 0FB3h ;# 
   475  0000                     # 3754 "E:\ProgramasWindowns\Microchip\xc8\v2.00\pic\include\pic18f4520.h"
   476                           CMCON equ 0FB4h ;# 
   477  0000                     # 3844 "E:\ProgramasWindowns\Microchip\xc8\v2.00\pic\include\pic18f4520.h"
   478                           CVRCON equ 0FB5h ;# 
   479  0000                     # 3923 "E:\ProgramasWindowns\Microchip\xc8\v2.00\pic\include\pic18f4520.h"
   480                           ECCP1AS equ 0FB6h ;# 
   481  0000                     # 3928 "E:\ProgramasWindowns\Microchip\xc8\v2.00\pic\include\pic18f4520.h"
   482                           ECCPAS equ 0FB6h ;# 
   483  0000                     # 4085 "E:\ProgramasWindowns\Microchip\xc8\v2.00\pic\include\pic18f4520.h"
   484                           PWM1CON equ 0FB7h ;# 
   485  0000                     # 4090 "E:\ProgramasWindowns\Microchip\xc8\v2.00\pic\include\pic18f4520.h"
   486                           ECCP1DEL equ 0FB7h ;# 
   487  0000                     # 4223 "E:\ProgramasWindowns\Microchip\xc8\v2.00\pic\include\pic18f4520.h"
   488                           BAUDCON equ 0FB8h ;# 
   489  0000                     # 4228 "E:\ProgramasWindowns\Microchip\xc8\v2.00\pic\include\pic18f4520.h"
   490                           BAUDCTL equ 0FB8h ;# 
   491  0000                     # 4403 "E:\ProgramasWindowns\Microchip\xc8\v2.00\pic\include\pic18f4520.h"
   492                           CCP2CON equ 0FBAh ;# 
   493  0000                     # 4482 "E:\ProgramasWindowns\Microchip\xc8\v2.00\pic\include\pic18f4520.h"
   494                           CCPR2 equ 0FBBh ;# 
   495  0000                     # 4489 "E:\ProgramasWindowns\Microchip\xc8\v2.00\pic\include\pic18f4520.h"
   496                           CCPR2L equ 0FBBh ;# 
   497  0000                     # 4496 "E:\ProgramasWindowns\Microchip\xc8\v2.00\pic\include\pic18f4520.h"
   498                           CCPR2H equ 0FBCh ;# 
   499  0000                     # 4503 "E:\ProgramasWindowns\Microchip\xc8\v2.00\pic\include\pic18f4520.h"
   500                           CCP1CON equ 0FBDh ;# 
   501  0000                     # 4600 "E:\ProgramasWindowns\Microchip\xc8\v2.00\pic\include\pic18f4520.h"
   502                           CCPR1 equ 0FBEh ;# 
   503  0000                     # 4607 "E:\ProgramasWindowns\Microchip\xc8\v2.00\pic\include\pic18f4520.h"
   504                           CCPR1L equ 0FBEh ;# 
   505  0000                     # 4614 "E:\ProgramasWindowns\Microchip\xc8\v2.00\pic\include\pic18f4520.h"
   506                           CCPR1H equ 0FBFh ;# 
   507  0000                     # 4621 "E:\ProgramasWindowns\Microchip\xc8\v2.00\pic\include\pic18f4520.h"
   508                           ADCON2 equ 0FC0h ;# 
   509  0000                     # 4692 "E:\ProgramasWindowns\Microchip\xc8\v2.00\pic\include\pic18f4520.h"
   510                           ADCON1 equ 0FC1h ;# 
   511  0000                     # 4777 "E:\ProgramasWindowns\Microchip\xc8\v2.00\pic\include\pic18f4520.h"
   512                           ADCON0 equ 0FC2h ;# 
   513  0000                     # 4896 "E:\ProgramasWindowns\Microchip\xc8\v2.00\pic\include\pic18f4520.h"
   514                           ADRES equ 0FC3h ;# 
   515  0000                     # 4903 "E:\ProgramasWindowns\Microchip\xc8\v2.00\pic\include\pic18f4520.h"
   516                           ADRESL equ 0FC3h ;# 
   517  0000                     # 4910 "E:\ProgramasWindowns\Microchip\xc8\v2.00\pic\include\pic18f4520.h"
   518                           ADRESH equ 0FC4h ;# 
   519  0000                     # 4917 "E:\ProgramasWindowns\Microchip\xc8\v2.00\pic\include\pic18f4520.h"
   520                           SSPCON2 equ 0FC5h ;# 
   521  0000                     # 5012 "E:\ProgramasWindowns\Microchip\xc8\v2.00\pic\include\pic18f4520.h"
   522                           SSPCON1 equ 0FC6h ;# 
   523  0000                     # 5082 "E:\ProgramasWindowns\Microchip\xc8\v2.00\pic\include\pic18f4520.h"
   524                           SSPSTAT equ 0FC7h ;# 
   525  0000                     # 5303 "E:\ProgramasWindowns\Microchip\xc8\v2.00\pic\include\pic18f4520.h"
   526                           SSPADD equ 0FC8h ;# 
   527  0000                     # 5310 "E:\ProgramasWindowns\Microchip\xc8\v2.00\pic\include\pic18f4520.h"
   528                           SSPBUF equ 0FC9h ;# 
   529  0000                     # 5317 "E:\ProgramasWindowns\Microchip\xc8\v2.00\pic\include\pic18f4520.h"
   530                           T2CON equ 0FCAh ;# 
   531  0000                     # 5415 "E:\ProgramasWindowns\Microchip\xc8\v2.00\pic\include\pic18f4520.h"
   532                           PR2 equ 0FCBh ;# 
   533  0000                     # 5420 "E:\ProgramasWindowns\Microchip\xc8\v2.00\pic\include\pic18f4520.h"
   534                           MEMCON equ 0FCBh ;# 
   535  0000                     # 5525 "E:\ProgramasWindowns\Microchip\xc8\v2.00\pic\include\pic18f4520.h"
   536                           TMR2 equ 0FCCh ;# 
   537  0000                     # 5532 "E:\ProgramasWindowns\Microchip\xc8\v2.00\pic\include\pic18f4520.h"
   538                           T1CON equ 0FCDh ;# 
   539  0000                     # 5635 "E:\ProgramasWindowns\Microchip\xc8\v2.00\pic\include\pic18f4520.h"
   540                           TMR1 equ 0FCEh ;# 
   541  0000                     # 5642 "E:\ProgramasWindowns\Microchip\xc8\v2.00\pic\include\pic18f4520.h"
   542                           TMR1L equ 0FCEh ;# 
   543  0000                     # 5649 "E:\ProgramasWindowns\Microchip\xc8\v2.00\pic\include\pic18f4520.h"
   544                           TMR1H equ 0FCFh ;# 
   545  0000                     # 5656 "E:\ProgramasWindowns\Microchip\xc8\v2.00\pic\include\pic18f4520.h"
   546                           RCON equ 0FD0h ;# 
   547  0000                     # 5789 "E:\ProgramasWindowns\Microchip\xc8\v2.00\pic\include\pic18f4520.h"
   548                           WDTCON equ 0FD1h ;# 
   549  0000                     # 5817 "E:\ProgramasWindowns\Microchip\xc8\v2.00\pic\include\pic18f4520.h"
   550                           HLVDCON equ 0FD2h ;# 
   551  0000                     # 5822 "E:\ProgramasWindowns\Microchip\xc8\v2.00\pic\include\pic18f4520.h"
   552                           LVDCON equ 0FD2h ;# 
   553  0000                     # 6087 "E:\ProgramasWindowns\Microchip\xc8\v2.00\pic\include\pic18f4520.h"
   554                           OSCCON equ 0FD3h ;# 
   555  0000                     # 6170 "E:\ProgramasWindowns\Microchip\xc8\v2.00\pic\include\pic18f4520.h"
   556                           T0CON equ 0FD5h ;# 
   557  0000                     # 6253 "E:\ProgramasWindowns\Microchip\xc8\v2.00\pic\include\pic18f4520.h"
   558                           TMR0 equ 0FD6h ;# 
   559  0000                     # 6260 "E:\ProgramasWindowns\Microchip\xc8\v2.00\pic\include\pic18f4520.h"
   560                           TMR0L equ 0FD6h ;# 
   561  0000                     # 6267 "E:\ProgramasWindowns\Microchip\xc8\v2.00\pic\include\pic18f4520.h"
   562                           TMR0H equ 0FD7h ;# 
   563  0000                     # 6274 "E:\ProgramasWindowns\Microchip\xc8\v2.00\pic\include\pic18f4520.h"
   564                           STATUS equ 0FD8h ;# 
   565  0000                     # 6345 "E:\ProgramasWindowns\Microchip\xc8\v2.00\pic\include\pic18f4520.h"
   566                           FSR2 equ 0FD9h ;# 
   567  0000                     # 6352 "E:\ProgramasWindowns\Microchip\xc8\v2.00\pic\include\pic18f4520.h"
   568                           FSR2L equ 0FD9h ;# 
   569  0000                     # 6359 "E:\ProgramasWindowns\Microchip\xc8\v2.00\pic\include\pic18f4520.h"
   570                           FSR2H equ 0FDAh ;# 
   571  0000                     # 6366 "E:\ProgramasWindowns\Microchip\xc8\v2.00\pic\include\pic18f4520.h"
   572                           PLUSW2 equ 0FDBh ;# 
   573  0000                     # 6373 "E:\ProgramasWindowns\Microchip\xc8\v2.00\pic\include\pic18f4520.h"
   574                           PREINC2 equ 0FDCh ;# 
   575  0000                     # 6380 "E:\ProgramasWindowns\Microchip\xc8\v2.00\pic\include\pic18f4520.h"
   576                           POSTDEC2 equ 0FDDh ;# 
   577  0000                     # 6387 "E:\ProgramasWindowns\Microchip\xc8\v2.00\pic\include\pic18f4520.h"
   578                           POSTINC2 equ 0FDEh ;# 
   579  0000                     # 6394 "E:\ProgramasWindowns\Microchip\xc8\v2.00\pic\include\pic18f4520.h"
   580                           INDF2 equ 0FDFh ;# 
   581  0000                     # 6401 "E:\ProgramasWindowns\Microchip\xc8\v2.00\pic\include\pic18f4520.h"
   582                           BSR equ 0FE0h ;# 
   583  0000                     # 6408 "E:\ProgramasWindowns\Microchip\xc8\v2.00\pic\include\pic18f4520.h"
   584                           FSR1 equ 0FE1h ;# 
   585  0000                     # 6415 "E:\ProgramasWindowns\Microchip\xc8\v2.00\pic\include\pic18f4520.h"
   586                           FSR1L equ 0FE1h ;# 
   587  0000                     # 6422 "E:\ProgramasWindowns\Microchip\xc8\v2.00\pic\include\pic18f4520.h"
   588                           FSR1H equ 0FE2h ;# 
   589  0000                     # 6429 "E:\ProgramasWindowns\Microchip\xc8\v2.00\pic\include\pic18f4520.h"
   590                           PLUSW1 equ 0FE3h ;# 
   591  0000                     # 6436 "E:\ProgramasWindowns\Microchip\xc8\v2.00\pic\include\pic18f4520.h"
   592                           PREINC1 equ 0FE4h ;# 
   593  0000                     # 6443 "E:\ProgramasWindowns\Microchip\xc8\v2.00\pic\include\pic18f4520.h"
   594                           POSTDEC1 equ 0FE5h ;# 
   595  0000                     # 6450 "E:\ProgramasWindowns\Microchip\xc8\v2.00\pic\include\pic18f4520.h"
   596                           POSTINC1 equ 0FE6h ;# 
   597  0000                     # 6457 "E:\ProgramasWindowns\Microchip\xc8\v2.00\pic\include\pic18f4520.h"
   598                           INDF1 equ 0FE7h ;# 
   599  0000                     # 6464 "E:\ProgramasWindowns\Microchip\xc8\v2.00\pic\include\pic18f4520.h"
   600                           WREG equ 0FE8h ;# 
   601  0000                     # 6476 "E:\ProgramasWindowns\Microchip\xc8\v2.00\pic\include\pic18f4520.h"
   602                           FSR0 equ 0FE9h ;# 
   603  0000                     # 6483 "E:\ProgramasWindowns\Microchip\xc8\v2.00\pic\include\pic18f4520.h"
   604                           FSR0L equ 0FE9h ;# 
   605  0000                     # 6490 "E:\ProgramasWindowns\Microchip\xc8\v2.00\pic\include\pic18f4520.h"
   606                           FSR0H equ 0FEAh ;# 
   607  0000                     # 6497 "E:\ProgramasWindowns\Microchip\xc8\v2.00\pic\include\pic18f4520.h"
   608                           PLUSW0 equ 0FEBh ;# 
   609  0000                     # 6504 "E:\ProgramasWindowns\Microchip\xc8\v2.00\pic\include\pic18f4520.h"
   610                           PREINC0 equ 0FECh ;# 
   611  0000                     # 6511 "E:\ProgramasWindowns\Microchip\xc8\v2.00\pic\include\pic18f4520.h"
   612                           POSTDEC0 equ 0FEDh ;# 
   613  0000                     # 6518 "E:\ProgramasWindowns\Microchip\xc8\v2.00\pic\include\pic18f4520.h"
   614                           POSTINC0 equ 0FEEh ;# 
   615  0000                     # 6525 "E:\ProgramasWindowns\Microchip\xc8\v2.00\pic\include\pic18f4520.h"
   616                           INDF0 equ 0FEFh ;# 
   617  0000                     # 6532 "E:\ProgramasWindowns\Microchip\xc8\v2.00\pic\include\pic18f4520.h"
   618                           INTCON3 equ 0FF0h ;# 
   619  0000                     # 6624 "E:\ProgramasWindowns\Microchip\xc8\v2.00\pic\include\pic18f4520.h"
   620                           INTCON2 equ 0FF1h ;# 
   621  0000                     # 6694 "E:\ProgramasWindowns\Microchip\xc8\v2.00\pic\include\pic18f4520.h"
   622                           INTCON equ 0FF2h ;# 
   623  0000                     # 6811 "E:\ProgramasWindowns\Microchip\xc8\v2.00\pic\include\pic18f4520.h"
   624                           PROD equ 0FF3h ;# 
   625  0000                     # 6818 "E:\ProgramasWindowns\Microchip\xc8\v2.00\pic\include\pic18f4520.h"
   626                           PRODL equ 0FF3h ;# 
   627  0000                     # 6825 "E:\ProgramasWindowns\Microchip\xc8\v2.00\pic\include\pic18f4520.h"
   628                           PRODH equ 0FF4h ;# 
   629  0000                     # 6832 "E:\ProgramasWindowns\Microchip\xc8\v2.00\pic\include\pic18f4520.h"
   630                           TABLAT equ 0FF5h ;# 
   631  0000                     # 6841 "E:\ProgramasWindowns\Microchip\xc8\v2.00\pic\include\pic18f4520.h"
   632                           TBLPTR equ 0FF6h ;# 
   633  0000                     # 6848 "E:\ProgramasWindowns\Microchip\xc8\v2.00\pic\include\pic18f4520.h"
   634                           TBLPTRL equ 0FF6h ;# 
   635  0000                     # 6855 "E:\ProgramasWindowns\Microchip\xc8\v2.00\pic\include\pic18f4520.h"
   636                           TBLPTRH equ 0FF7h ;# 
   637  0000                     # 6862 "E:\ProgramasWindowns\Microchip\xc8\v2.00\pic\include\pic18f4520.h"
   638                           TBLPTRU equ 0FF8h ;# 
   639  0000                     # 6871 "E:\ProgramasWindowns\Microchip\xc8\v2.00\pic\include\pic18f4520.h"
   640                           PCLAT equ 0FF9h ;# 
   641  0000                     # 6878 "E:\ProgramasWindowns\Microchip\xc8\v2.00\pic\include\pic18f4520.h"
   642                           PC equ 0FF9h ;# 
   643  0000                     # 6885 "E:\ProgramasWindowns\Microchip\xc8\v2.00\pic\include\pic18f4520.h"
   644                           PCL equ 0FF9h ;# 
   645  0000                     # 6892 "E:\ProgramasWindowns\Microchip\xc8\v2.00\pic\include\pic18f4520.h"
   646                           PCLATH equ 0FFAh ;# 
   647  0000                     # 6899 "E:\ProgramasWindowns\Microchip\xc8\v2.00\pic\include\pic18f4520.h"
   648                           PCLATU equ 0FFBh ;# 
   649  0000                     # 6906 "E:\ProgramasWindowns\Microchip\xc8\v2.00\pic\include\pic18f4520.h"
   650                           STKPTR equ 0FFCh ;# 
   651  0000                     # 6980 "E:\ProgramasWindowns\Microchip\xc8\v2.00\pic\include\pic18f4520.h"
   652                           TOS equ 0FFDh ;# 
   653  0000                     # 6987 "E:\ProgramasWindowns\Microchip\xc8\v2.00\pic\include\pic18f4520.h"
   654                           TOSL equ 0FFDh ;# 
   655  0000                     # 6994 "E:\ProgramasWindowns\Microchip\xc8\v2.00\pic\include\pic18f4520.h"
   656                           TOSH equ 0FFEh ;# 
   657  0000                     # 7001 "E:\ProgramasWindowns\Microchip\xc8\v2.00\pic\include\pic18f4520.h"
   658                           TOSU equ 0FFFh ;# 
   659  0000                     	FNCALL	_main,_config
   660                           	FNCALL	_main,_estadosMaquina
   661                           	FNCALL	_main,_lcd_init
   662                           	FNCALL	_lcd_init,_lcd_clear
   663                           	FNCALL	_lcd_init,_lcd_write
   664                           	FNCALL	_estadosMaquina,_escreve
   665                           	FNCALL	_estadosMaquina,_sprintf
   666                           	FNCALL	_estadosMaquina,_tempo1
   667                           	FNCALL	_tempo1,_escreve2
   668                           	FNCALL	_tempo1,_sprintf
   669                           	FNCALL	_sprintf,_vfprintf
   670                           	FNCALL	_vfprintf,_vfpfcnvrt
   671                           	FNCALL	_vfpfcnvrt,_dtoa
   672                           	FNCALL	_vfpfcnvrt,_fputc
   673                           	FNCALL	_dtoa,___aodiv
   674                           	FNCALL	_dtoa,___aomod
   675                           	FNCALL	_dtoa,_abs
   676                           	FNCALL	_dtoa,_pad
   677                           	FNCALL	_pad,_fputc
   678                           	FNCALL	_pad,_fputs
   679                           	FNCALL	_pad,_strlen
   680                           	FNCALL	_fputs,_fputc
   681                           	FNCALL	_fputc,_putch
   682                           	FNCALL	_escreve2,_lcd_clear
   683                           	FNCALL	_escreve2,_lcd_goto
   684                           	FNCALL	_escreve2,_lcd_puts
   685                           	FNCALL	_escreve,_lcd_clear
   686                           	FNCALL	_escreve,_lcd_goto
   687                           	FNCALL	_escreve,_lcd_puts
   688                           	FNCALL	_lcd_puts,_lcd_write
   689                           	FNCALL	_lcd_goto,_lcd_write
   690                           	FNCALL	_lcd_clear,_lcd_write
   691                           	FNROOT	_main
   692                           	FNCALL	_tmr,i2_estadosMaquina
   693                           	FNCALL	i2_estadosMaquina,i2_escreve
   694                           	FNCALL	i2_estadosMaquina,i2_sprintf
   695                           	FNCALL	i2_estadosMaquina,i2_tempo1
   696                           	FNCALL	i2_tempo1,i2_escreve2
   697                           	FNCALL	i2_tempo1,i2_sprintf
   698                           	FNCALL	i2_sprintf,i2_vfprintf
   699                           	FNCALL	i2_vfprintf,i2_vfpfcnvrt
   700                           	FNCALL	i2_vfpfcnvrt,i2_dtoa
   701                           	FNCALL	i2_vfpfcnvrt,i2_fputc
   702                           	FNCALL	i2_dtoa,i2___aodiv
   703                           	FNCALL	i2_dtoa,i2___aomod
   704                           	FNCALL	i2_dtoa,i2_abs
   705                           	FNCALL	i2_dtoa,i2_pad
   706                           	FNCALL	i2_pad,i2_fputc
   707                           	FNCALL	i2_pad,i2_fputs
   708                           	FNCALL	i2_pad,i2_strlen
   709                           	FNCALL	i2_fputs,i2_fputc
   710                           	FNCALL	i2_fputc,i2_putch
   711                           	FNCALL	i2_escreve2,i2_lcd_clear
   712                           	FNCALL	i2_escreve2,i2_lcd_goto
   713                           	FNCALL	i2_escreve2,i2_lcd_puts
   714                           	FNCALL	i2_escreve,i2_lcd_clear
   715                           	FNCALL	i2_escreve,i2_lcd_goto
   716                           	FNCALL	i2_escreve,i2_lcd_puts
   717                           	FNCALL	i2_lcd_puts,i2_lcd_write
   718                           	FNCALL	i2_lcd_goto,i2_lcd_write
   719                           	FNCALL	i2_lcd_clear,i2_lcd_write
   720                           	FNCALL	intlevel2,_tmr
   721                           	global	intlevel2
   722                           	FNROOT	intlevel2
   723                           	global	_nout
   724                           	global	_width
   725                           	global	_prec
   726                           	global	_flags
   727                           	global	_estado
   728                           	global	_tempo
   729                           	global	_tempoDis
   730                           	global	_dbuf
   731                           	global	_estadoMes
   732                           	global	_TMR0
   733                           _TMR0	set	0xFD6
   734  0000                     	global	_TXREG
   735                           _TXREG	set	0xFAD
   736  0000                     	global	_PORTBbits
   737                           _PORTBbits	set	0xF81
   738  0000                     	global	_RCREG
   739                           _RCREG	set	0xFAE
   740  0000                     	global	_PORTCbits
   741                           _PORTCbits	set	0xF82
   742  0000                     	global	_PORTE
   743                           _PORTE	set	0xF84
   744  0000                     	global	_PORTB
   745                           _PORTB	set	0xF81
   746  0000                     	global	_SPBRG
   747                           _SPBRG	set	0xFAF
   748  0000                     	global	_BAUDCON
   749                           _BAUDCON	set	0xFB8
   750  0000                     	global	_RCSTA
   751                           _RCSTA	set	0xFAB
   752  0000                     	global	_TXSTA
   753                           _TXSTA	set	0xFAC
   754  0000                     	global	_ADCON2
   755                           _ADCON2	set	0xFC0
   756  0000                     	global	_ADCON1
   757                           _ADCON1	set	0xFC1
   758  0000                     	global	_ADCON0
   759                           _ADCON0	set	0xFC2
   760  0000                     	global	_T0CON
   761                           _T0CON	set	0xFD5
   762  0000                     	global	_INTCON
   763                           _INTCON	set	0xFF2
   764  0000                     	global	_OSCCON
   765                           _OSCCON	set	0xFD3
   766  0000                     	global	_TRISE
   767                           _TRISE	set	0xF96
   768  0000                     	global	_TRISD
   769                           _TRISD	set	0xF95
   770  0000                     	global	_TRISC
   771                           _TRISC	set	0xF94
   772  0000                     	global	_TRISB
   773                           _TRISB	set	0xF93
   774  0000                     	global	_TRISA
   775                           _TRISA	set	0xF92
   776  0000                     	global	_PORTD
   777                           _PORTD	set	0xF83
   778  0000                     	global	_RCIF
   779                           _RCIF	set	0x7CF5
   780  0000                     	global	_RCIP
   781                           _RCIP	set	0x7CFD
   782  0000                     	global	_RCIE
   783                           _RCIE	set	0x7CED
   784  0000                     	global	_IPEN
   785                           _IPEN	set	0x7E87
   786  0000                     	global	_LE0
   787                           _LE0	set	0x7C68
   788  0000                     	global	_LE1
   789                           _LE1	set	0x7C69
   790  0000                     psect	smallconst,class=SMALLCONST,space=0,reloc=2,noexec
   791                           global __psmallconst
   792                           __psmallconst:
   793  000600                     	db	0
   794  000600  00                 	
   795                           STR_2:
   796  000601                     	db	68	;'D'
   797  000601  44                 	db	101	;'e'
   798  000602  65                 	db	115	;'s'
   799  000603  73                 	db	108	;'l'
   800  000604  6C                 	db	105	;'i'
   801  000605  69                 	db	103	;'g'
   802  000606  67                 	db	97	;'a'
   803  000607  61                 	db	100	;'d'
   804  000608  64                 	db	111	;'o'
   805  000609  6F                 	db	0
   806  00060A  00                 	
   807                           STR_6:
   808  00060B                     	db	67	;'C'
   809  00060B  43                 	db	101	;'e'
   810  00060C  65                 	db	110	;'n'
   811  00060D  6E                 	db	116	;'t'
   812  00060E  74                 	db	114	;'r'
   813  00060F  72                 	db	105	;'i'
   814  000610  69                 	db	102	;'f'
   815  000611  66                 	db	46
   816  000612  2E                 	db	0
   817  000613  00                 	
   818                           STR_7:
   819  000614                     	db	69	;'E'
   820  000614  45                 	db	110	;'n'
   821  000615  6E                 	db	120	;'x'
   822  000616  78                 	db	97	;'a'
   823  000617  61                 	db	103	;'g'
   824  000618  67                 	db	117	;'u'
   825  000619  75                 	db	97	;'a'
   826  00061A  61                 	db	114	;'r'
   827  00061B  72                 	db	0
   828  00061C  00                 	
   829                           STR_12:
   830  00061D                     	db	69	;'E'
   831  00061D  45                 	db	115	;'s'
   832  00061E  73                 	db	116	;'t'
   833  00061F  74                 	db	97	;'a'
   834  000620  61                 	db	100	;'d'
   835  000621  64                 	db	111	;'o'
   836  000622  6F                 	db	58	;':'
   837  000623  3A                 	db	0
   838  000624  00                 	
   839                           STR_14:
   840  000625                     	db	84	;'T'
   841  000625  54                 	db	101	;'e'
   842  000626  65                 	db	109	;'m'
   843  000627  6D                 	db	112	;'p'
   844  000628  70                 	db	111	;'o'
   845  000629  6F                 	db	58	;':'
   846  00062A  3A                 	db	0
   847  00062B  00                 	
   848                           STR_5:
   849  00062C                     	db	68	;'D'
   850  00062C  44                 	db	114	;'r'
   851  00062D  72                 	db	101	;'e'
   852  00062E  65                 	db	110	;'n'
   853  00062F  6E                 	db	97	;'a'
   854  000630  61                 	db	114	;'r'
   855  000631  72                 	db	0
   856  000632  00                 	
   857                           STR_4:
   858  000633                     	db	65	;'A'
   859  000633  41                 	db	103	;'g'
   860  000634  67                 	db	105	;'i'
   861  000635  69                 	db	116	;'t'
   862  000636  74                 	db	97	;'a'
   863  000637  61                 	db	114	;'r'
   864  000638  72                 	db	0
   865  000639  00                 	
   866                           STR_3:
   867  00063A                     	db	69	;'E'
   868  00063A  45                 	db	110	;'n'
   869  00063B  6E                 	db	99	;'c'
   870  00063C  63                 	db	104	;'h'
   871  00063D  68                 	db	101	;'e'
   872  00063E  65                 	db	114	;'r'
   873  00063F  72                 	db	0
   874  000640  00                 	
   875                           STR_1:
   876  000641                     	db	37
   877  000641  25                 	db	105	;'i'
   878  000642  69                 	db	0
   879  000643  00                 STR_8	equ	STR_4+0
   880  0000                     STR_9	equ	STR_5+0
   881  0000                     STR_11	equ	STR_2+0
   882  0000                     STR_13	equ	STR_12+0
   883  0000                     STR_10	equ	STR_6+0
   884  0000                     ; #config settings
   885                           global __CFG_OSC$INTIO67
   886                           __CFG_OSC$INTIO67 equ 0x0
   887  0000                     global __CFG_FCMEN$OFF
   888                           __CFG_FCMEN$OFF equ 0x0
   889  0000                     global __CFG_IESO$OFF
   890                           __CFG_IESO$OFF equ 0x0
   891  0000                     global __CFG_PWRT$OFF
   892                           __CFG_PWRT$OFF equ 0x0
   893  0000                     global __CFG_BOREN$SBORDIS
   894                           __CFG_BOREN$SBORDIS equ 0x0
   895  0000                     global __CFG_BORV$3
   896                           __CFG_BORV$3 equ 0x0
   897  0000                     global __CFG_WDT$OFF
   898                           __CFG_WDT$OFF equ 0x0
   899  0000                     global __CFG_WDTPS$32768
   900                           __CFG_WDTPS$32768 equ 0x0
   901  0000                     global __CFG_CCP2MX$PORTC
   902                           __CFG_CCP2MX$PORTC equ 0x0
   903  0000                     global __CFG_PBADEN$OFF
   904                           __CFG_PBADEN$OFF equ 0x0
   905  0000                     global __CFG_LPT1OSC$OFF
   906                           __CFG_LPT1OSC$OFF equ 0x0
   907  0000                     global __CFG_MCLRE$ON
   908                           __CFG_MCLRE$ON equ 0x0
   909  0000                     global __CFG_STVREN$ON
   910                           __CFG_STVREN$ON equ 0x0
   911  0000                     global __CFG_LVP$OFF
   912                           __CFG_LVP$OFF equ 0x0
   913  0000                     global __CFG_XINST$OFF
   914                           __CFG_XINST$OFF equ 0x0
   915  0000                     global __CFG_CP0$OFF
   916                           __CFG_CP0$OFF equ 0x0
   917  0000                     global __CFG_CP1$OFF
   918                           __CFG_CP1$OFF equ 0x0
   919  0000                     global __CFG_CP2$OFF
   920                           __CFG_CP2$OFF equ 0x0
   921  0000                     global __CFG_CP3$OFF
   922                           __CFG_CP3$OFF equ 0x0
   923  0000                     global __CFG_CPB$OFF
   924                           __CFG_CPB$OFF equ 0x0
   925  0000                     global __CFG_CPD$OFF
   926                           __CFG_CPD$OFF equ 0x0
   927  0000                     global __CFG_WRT0$OFF
   928                           __CFG_WRT0$OFF equ 0x0
   929  0000                     global __CFG_WRT1$OFF
   930                           __CFG_WRT1$OFF equ 0x0
   931  0000                     global __CFG_WRT2$OFF
   932                           __CFG_WRT2$OFF equ 0x0
   933  0000                     global __CFG_WRT3$OFF
   934                           __CFG_WRT3$OFF equ 0x0
   935  0000                     global __CFG_WRTC$OFF
   936                           __CFG_WRTC$OFF equ 0x0
   937  0000                     global __CFG_WRTB$OFF
   938                           __CFG_WRTB$OFF equ 0x0
   939  0000                     global __CFG_WRTD$OFF
   940                           __CFG_WRTD$OFF equ 0x0
   941  0000                     global __CFG_EBTR0$OFF
   942                           __CFG_EBTR0$OFF equ 0x0
   943  0000                     global __CFG_EBTR1$OFF
   944                           __CFG_EBTR1$OFF equ 0x0
   945  0000                     global __CFG_EBTR2$OFF
   946                           __CFG_EBTR2$OFF equ 0x0
   947  0000                     global __CFG_EBTR3$OFF
   948                           __CFG_EBTR3$OFF equ 0x0
   949  0000                     global __CFG_EBTRB$OFF
   950                           __CFG_EBTRB$OFF equ 0x0
   951  0000                     	file	"C:\Users\carlo\AppData\Local\Temp\s6no."
   952                           	line	#
   953                           psect	cinit,class=CODE,delta=1,reloc=2
   954                           global __pcinit
   955                           __pcinit:
   956  002C08                     global start_initialization
   957                           start_initialization:
   958  002C08                     
   959                           global __initialization
   960                           __initialization:
   961  002C08                     psect	bssCOMRAM,class=COMRAM,space=1,noexec
   962                           global __pbssCOMRAM
   963                           __pbssCOMRAM:
   964  000074                     	global	_volts
   965                           	global	_volts
   966                           _volts:
   967  000074                            ds      4
   968  000074                     	global	_bits
   969                           	global	_bits
   970                           _bits:
   971  000078                            ds      2
   972  000078                     	global	_contador
   973                           	global	_contador
   974                           _contador:
   975  00007A                            ds      2
   976  00007A                     psect	bssBANK0,class=BANK0,space=1,noexec,lowdata
   977                           global __pbssBANK0
   978                           __pbssBANK0:
   979  0000EC                     _nout:
   980  0000EC                            ds      2
   981  0000EC                     _width:
   982  0000EE                            ds      2
   983  0000EE                     _prec:
   984  0000F0                            ds      2
   985  0000F0                     _flags:
   986  0000F2                            ds      2
   987  0000F2                     	global	_estado
   988                           _estado:
   989  0000F4                            ds      2
   990  0000F4                     	global	_tempo
   991                           _tempo:
   992  0000F6                            ds      2
   993  0000F6                     	global	_tempoDis
   994                           _tempoDis:
   995  0000F8                            ds      5
   996  0000F8                     psect	bssBANK1,class=BANK1,space=1,noexec,lowdata
   997                           global __pbssBANK1
   998                           __pbssBANK1:
   999  000100                     _dbuf:
  1000  000100                            ds      32
  1001  000100                     	global	_estadoMes
  1002                           _estadoMes:
  1003  000120                            ds      15
  1004  000120                     	file	"C:\Users\carlo\AppData\Local\Temp\s6no."
  1005                           	line	#
  1006                           psect	cinit
  1007                           ; Clear objects allocated to BANK1 (47 bytes)
  1008                           	global __pbssBANK1
  1009                           lfsr	0,__pbssBANK1
  1010  002C08  EE01  F000         movlw	47
  1011  002C0C  0E2F               clear_0:
  1012  002C0E                     clrf	postinc0,c
  1013  002C0E  6AEE               decf	wreg
  1014  002C10  06E8               bnz	clear_0
  1015  002C12  E1FD               ; Clear objects allocated to BANK0 (17 bytes)
  1016                           	global __pbssBANK0
  1017                           lfsr	0,__pbssBANK0
  1018  002C14  EE00  F0EC         movlw	17
  1019  002C18  0E11               clear_1:
  1020  002C1A                     clrf	postinc0,c
  1021  002C1A  6AEE               decf	wreg
  1022  002C1C  06E8               bnz	clear_1
  1023  002C1E  E1FD               ; Clear objects allocated to COMRAM (8 bytes)
  1024                           	global __pbssCOMRAM
  1025                           lfsr	0,__pbssCOMRAM
  1026  002C20  EE00  F074         movlw	8
  1027  002C24  0E08               clear_2:
  1028  002C26                     clrf	postinc0,c
  1029  002C26  6AEE               decf	wreg
  1030  002C28  06E8               bnz	clear_2
  1031  002C2A  E1FD               psect cinit,class=CODE,delta=1
  1032                           global end_of_initialization,__end_of__initialization
  1033                           
  1034                           ;End of C runtime variable initialization code
  1035                           
  1036                           end_of_initialization:
  1037  002C2C                     __end_of__initialization:
  1038  002C2C                     	bcf int$flags,0,c ;clear compiler interrupt flag (level 1)
  1039  002C2C  907C               	bcf int$flags,1,c ;clear compiler interrupt flag (level 2)
  1040  002C2E  927C               	GLOBAL	__Lmediumconst
  1041                           	movlw	low highword(__Lmediumconst)
  1042  002C30  0E00               	movwf	tblptru
  1043  002C32  6EF8               movlb 0
  1044  002C34  0100               goto _main	;jump to C main() function
  1045  002C36  EF72  F010         psect	cstackBANK0,class=BANK0,space=1,noexec
  1046                           global __pcstackBANK0
  1047                           __pcstackBANK0:
  1048  000080                     ??_putch:	; 1 bytes @ 0x0
  1049  000080                     ??_lcd_write:	; 1 bytes @ 0x0
  1050  000080                     ??_config:	; 1 bytes @ 0x0
  1051  000080                     ?_fputc:	; 2 bytes @ 0x0
  1052  000080                     	global	?_strlen
  1053                           ?_strlen:	; 2 bytes @ 0x0
  1054  000080                     	global	?___aodiv
  1055                           ?___aodiv:	; 8 bytes @ 0x0
  1056  000080                     	global	?___aomod
  1057                           ?___aomod:	; 8 bytes @ 0x0
  1058  000080                     	global	lcd_write@c
  1059                           lcd_write@c:	; 1 bytes @ 0x0
  1060  000080                     	global	fputc@c
  1061                           fputc@c:	; 2 bytes @ 0x0
  1062  000080                     	global	strlen@s
  1063                           strlen@s:	; 2 bytes @ 0x0
  1064  000080                     	global	___aodiv@dividend
  1065                           ___aodiv@dividend:	; 8 bytes @ 0x0
  1066  000080                     	global	___aomod@dividend
  1067                           ___aomod@dividend:	; 8 bytes @ 0x0
  1068  000080                     	ds   1
  1069  000080                     ??_lcd_clear:	; 1 bytes @ 0x1
  1070  000081                     ?_lcd_puts:	; 1 bytes @ 0x1
  1071  000081                     ??_lcd_goto:	; 1 bytes @ 0x1
  1072  000081                     	global	lcd_goto@pos
  1073                           lcd_goto@pos:	; 1 bytes @ 0x1
  1074  000081                     	global	lcd_puts@s
  1075                           lcd_puts@s:	; 2 bytes @ 0x1
  1076  000081                     	ds   1
  1077  000081                     ??_strlen:	; 1 bytes @ 0x2
  1078  000082                     ??_lcd_init:	; 1 bytes @ 0x2
  1079  000082                     	global	fputc@fp
  1080                           fputc@fp:	; 2 bytes @ 0x2
  1081  000082                     	ds   1
  1082  000082                     ??_escreve2:	; 1 bytes @ 0x3
  1083  000083                     ??_escreve:	; 1 bytes @ 0x3
  1084  000083                     ??_lcd_puts:	; 1 bytes @ 0x3
  1085  000083                     	global	lcd_init@init_value
  1086                           lcd_init@init_value:	; 1 bytes @ 0x3
  1087  000083                     	ds   1
  1088  000083                     ??_fputc:	; 1 bytes @ 0x4
  1089  000084                     	global	strlen@a
  1090                           strlen@a:	; 2 bytes @ 0x4
  1091  000084                     	ds   4
  1092  000084                     	global	___aodiv@divisor
  1093                           ___aodiv@divisor:	; 8 bytes @ 0x8
  1094  000088                     	global	___aomod@divisor
  1095                           ___aomod@divisor:	; 8 bytes @ 0x8
  1096  000088                     	ds   1
  1097  000088                     ?_fputs:	; 2 bytes @ 0x9
  1098  000089                     	global	fputs@s
  1099                           fputs@s:	; 2 bytes @ 0x9
  1100  000089                     	ds   2
  1101  000089                     	global	fputs@fp
  1102                           fputs@fp:	; 2 bytes @ 0xB
  1103  00008B                     	ds   2
  1104  00008B                     ??_fputs:	; 1 bytes @ 0xD
  1105  00008D                     	global	fputs@c
  1106                           fputs@c:	; 1 bytes @ 0xD
  1107  00008D                     	ds   1
  1108  00008D                     	global	fputs@i
  1109                           fputs@i:	; 2 bytes @ 0xE
  1110  00008E                     	ds   2
  1111  00008E                     ??___aodiv:	; 1 bytes @ 0x10
  1112  000090                     ??___aomod:	; 1 bytes @ 0x10
  1113  000090                     	global	?_pad
  1114                           ?_pad:	; 2 bytes @ 0x10
  1115  000090                     	global	___aodiv@counter
  1116                           ___aodiv@counter:	; 1 bytes @ 0x10
  1117  000090                     	global	___aomod@counter
  1118                           ___aomod@counter:	; 1 bytes @ 0x10
  1119  000090                     	global	pad@fp
  1120                           pad@fp:	; 2 bytes @ 0x10
  1121  000090                     	ds   1
  1122  000090                     	global	___aodiv@sign
  1123                           ___aodiv@sign:	; 1 bytes @ 0x11
  1124  000091                     	global	___aomod@sign
  1125                           ___aomod@sign:	; 1 bytes @ 0x11
  1126  000091                     	ds   1
  1127  000091                     	global	?_abs
  1128                           ?_abs:	; 2 bytes @ 0x12
  1129  000092                     	global	pad@buf
  1130                           pad@buf:	; 2 bytes @ 0x12
  1131  000092                     	global	abs@a
  1132                           abs@a:	; 2 bytes @ 0x12
  1133  000092                     	global	___aodiv@quotient
  1134                           ___aodiv@quotient:	; 8 bytes @ 0x12
  1135  000092                     	ds   2
  1136  000092                     ??_abs:	; 1 bytes @ 0x14
  1137  000094                     	global	pad@p
  1138                           pad@p:	; 2 bytes @ 0x14
  1139  000094                     	ds   2
  1140  000094                     ??_pad:	; 1 bytes @ 0x16
  1141  000096                     	ds   1
  1142  000096                     	global	pad@i
  1143                           pad@i:	; 2 bytes @ 0x17
  1144  000097                     	ds   2
  1145  000097                     	global	pad@w
  1146                           pad@w:	; 2 bytes @ 0x19
  1147  000099                     	ds   2
  1148  000099                     	global	?_dtoa
  1149                           ?_dtoa:	; 2 bytes @ 0x1B
  1150  00009B                     	global	dtoa@fp
  1151                           dtoa@fp:	; 2 bytes @ 0x1B
  1152  00009B                     	ds   2
  1153  00009B                     	global	dtoa@d
  1154                           dtoa@d:	; 8 bytes @ 0x1D
  1155  00009D                     	ds   8
  1156  00009D                     ??_dtoa:	; 1 bytes @ 0x25
  1157  0000A5                     	ds   8
  1158  0000A5                     	global	_dtoa$347
  1159                           _dtoa$347:	; 2 bytes @ 0x2D
  1160  0000AD                     	ds   2
  1161  0000AD                     	global	dtoa@p
  1162                           dtoa@p:	; 2 bytes @ 0x2F
  1163  0000AF                     	ds   2
  1164  0000AF                     	global	dtoa@w
  1165                           dtoa@w:	; 2 bytes @ 0x31
  1166  0000B1                     	ds   2
  1167  0000B1                     	global	dtoa@s
  1168                           dtoa@s:	; 2 bytes @ 0x33
  1169  0000B3                     	ds   2
  1170  0000B3                     	global	dtoa@n
  1171                           dtoa@n:	; 8 bytes @ 0x35
  1172  0000B5                     	ds   8
  1173  0000B5                     	global	dtoa@i
  1174                           dtoa@i:	; 2 bytes @ 0x3D
  1175  0000BD                     	ds   2
  1176  0000BD                     	global	?_vfpfcnvrt
  1177                           ?_vfpfcnvrt:	; 2 bytes @ 0x3F
  1178  0000BF                     	global	vfpfcnvrt@fp
  1179                           vfpfcnvrt@fp:	; 2 bytes @ 0x3F
  1180  0000BF                     	ds   2
  1181  0000BF                     	global	vfpfcnvrt@fmt
  1182                           vfpfcnvrt@fmt:	; 2 bytes @ 0x41
  1183  0000C1                     	ds   2
  1184  0000C1                     	global	vfpfcnvrt@ap
  1185                           vfpfcnvrt@ap:	; 2 bytes @ 0x43
  1186  0000C3                     	ds   2
  1187  0000C3                     ??_vfpfcnvrt:	; 1 bytes @ 0x45
  1188  0000C5                     	ds   2
  1189  0000C5                     	global	vfpfcnvrt@ll
  1190                           vfpfcnvrt@ll:	; 8 bytes @ 0x47
  1191  0000C7                     	ds   8
  1192  0000C7                     	global	?_vfprintf
  1193                           ?_vfprintf:	; 2 bytes @ 0x4F
  1194  0000CF                     	global	vfprintf@fp
  1195                           vfprintf@fp:	; 2 bytes @ 0x4F
  1196  0000CF                     	ds   2
  1197  0000CF                     	global	vfprintf@fmt
  1198                           vfprintf@fmt:	; 2 bytes @ 0x51
  1199  0000D1                     	ds   2
  1200  0000D1                     	global	vfprintf@ap
  1201                           vfprintf@ap:	; 2 bytes @ 0x53
  1202  0000D3                     	ds   2
  1203  0000D3                     ??_vfprintf:	; 1 bytes @ 0x55
  1204  0000D5                     	global	vfprintf@cfmt
  1205                           vfprintf@cfmt:	; 2 bytes @ 0x55
  1206  0000D5                     	ds   2
  1207  0000D5                     	global	?_sprintf
  1208                           ?_sprintf:	; 2 bytes @ 0x57
  1209  0000D7                     	global	sprintf@s
  1210                           sprintf@s:	; 2 bytes @ 0x57
  1211  0000D7                     	ds   2
  1212  0000D7                     	global	sprintf@fmt
  1213                           sprintf@fmt:	; 2 bytes @ 0x59
  1214  0000D9                     	ds   4
  1215  0000D9                     ??_sprintf:	; 1 bytes @ 0x5D
  1216  0000DD                     	global	sprintf@ret
  1217                           sprintf@ret:	; 2 bytes @ 0x5D
  1218  0000DD                     	ds   2
  1219  0000DD                     	global	sprintf@ap
  1220                           sprintf@ap:	; 2 bytes @ 0x5F
  1221  0000DF                     	ds   2
  1222  0000DF                     	global	sprintf@f
  1223                           sprintf@f:	; 6 bytes @ 0x61
  1224  0000E1                     	ds   6
  1225  0000E1                     ??_tempo1:	; 1 bytes @ 0x67
  1226  0000E7                     	ds   2
  1227  0000E7                     ??_estadosMaquina:	; 1 bytes @ 0x69
  1228  0000E9                     	ds   2
  1229  0000E9                     ??_main:	; 1 bytes @ 0x6B
  1230  0000EB                     	ds   1
  1231  0000EB                     psect	cstackCOMRAM,class=COMRAM,space=1,noexec
  1232                           global __pcstackCOMRAM
  1233                           __pcstackCOMRAM:
  1234  000001                     ?_estadosMaquina:	; 1 bytes @ 0x0
  1235  000001                     ?_escreve2:	; 1 bytes @ 0x0
  1236  000001                     ?_escreve:	; 1 bytes @ 0x0
  1237  000001                     ?_putch:	; 1 bytes @ 0x0
  1238  000001                     ?_lcd_write:	; 1 bytes @ 0x0
  1239  000001                     ?_lcd_clear:	; 1 bytes @ 0x0
  1240  000001                     ?_lcd_goto:	; 1 bytes @ 0x0
  1241  000001                     ?_lcd_init:	; 1 bytes @ 0x0
  1242  000001                     ?_config:	; 1 bytes @ 0x0
  1243  000001                     ?_main:	; 1 bytes @ 0x0
  1244  000001                     ?_tmr:	; 1 bytes @ 0x0
  1245  000001                     ?_tempo1:	; 1 bytes @ 0x0
  1246  000001                     ?i2_lcd_write:	; 1 bytes @ 0x0
  1247  000001                     ??i2_lcd_write:	; 1 bytes @ 0x0
  1248  000001                     ?i2_lcd_clear:	; 1 bytes @ 0x0
  1249  000001                     ?i2_lcd_goto:	; 1 bytes @ 0x0
  1250  000001                     ?i2_tempo1:	; 1 bytes @ 0x0
  1251  000001                     ?i2_estadosMaquina:	; 1 bytes @ 0x0
  1252  000001                     ?i2_escreve:	; 1 bytes @ 0x0
  1253  000001                     ?i2_escreve2:	; 1 bytes @ 0x0
  1254  000001                     ?i2_putch:	; 1 bytes @ 0x0
  1255  000001                     ??i2_putch:	; 1 bytes @ 0x0
  1256  000001                     ?i2_fputc:	; 2 bytes @ 0x0
  1257  000001                     	global	?i2_strlen
  1258                           ?i2_strlen:	; 2 bytes @ 0x0
  1259  000001                     	global	?i2___aodiv
  1260                           ?i2___aodiv:	; 8 bytes @ 0x0
  1261  000001                     	global	?i2___aomod
  1262                           ?i2___aomod:	; 8 bytes @ 0x0
  1263  000001                     putch@c:	; 1 bytes @ 0x0
  1264  000001                     	global	i2lcd_write@c
  1265                           i2lcd_write@c:	; 1 bytes @ 0x0
  1266  000001                     	global	i2fputc@c
  1267                           i2fputc@c:	; 2 bytes @ 0x0
  1268  000001                     	global	i2strlen@s
  1269                           i2strlen@s:	; 2 bytes @ 0x0
  1270  000001                     	global	i2___aodiv@dividend
  1271                           i2___aodiv@dividend:	; 8 bytes @ 0x0
  1272  000001                     	global	i2___aomod@dividend
  1273                           i2___aomod@dividend:	; 8 bytes @ 0x0
  1274  000001                     	ds   1
  1275  000001                     ??i2_lcd_clear:	; 1 bytes @ 0x1
  1276  000002                     ?i2_lcd_puts:	; 1 bytes @ 0x1
  1277  000002                     ??i2_lcd_goto:	; 1 bytes @ 0x1
  1278  000002                     	global	i2lcd_goto@pos
  1279                           i2lcd_goto@pos:	; 1 bytes @ 0x1
  1280  000002                     	global	i2lcd_puts@s
  1281                           i2lcd_puts@s:	; 2 bytes @ 0x1
  1282  000002                     	ds   1
  1283  000002                     ??i2_strlen:	; 1 bytes @ 0x2
  1284  000003                     	global	i2fputc@fp
  1285                           i2fputc@fp:	; 2 bytes @ 0x2
  1286  000003                     	ds   1
  1287  000003                     ??i2_lcd_puts:	; 1 bytes @ 0x3
  1288  000004                     ??i2_escreve:	; 1 bytes @ 0x3
  1289  000004                     ??i2_escreve2:	; 1 bytes @ 0x3
  1290  000004                     	ds   1
  1291  000004                     ??i2_fputc:	; 1 bytes @ 0x4
  1292  000005                     	global	i2strlen@a
  1293                           i2strlen@a:	; 2 bytes @ 0x4
  1294  000005                     	ds   4
  1295  000005                     	global	i2___aodiv@divisor
  1296                           i2___aodiv@divisor:	; 8 bytes @ 0x8
  1297  000009                     	global	i2___aomod@divisor
  1298                           i2___aomod@divisor:	; 8 bytes @ 0x8
  1299  000009                     	ds   1
  1300  000009                     ?i2_fputs:	; 2 bytes @ 0x9
  1301  00000A                     	global	i2fputs@s
  1302                           i2fputs@s:	; 2 bytes @ 0x9
  1303  00000A                     	ds   2
  1304  00000A                     	global	i2fputs@fp
  1305                           i2fputs@fp:	; 2 bytes @ 0xB
  1306  00000C                     	ds   2
  1307  00000C                     ??i2_fputs:	; 1 bytes @ 0xD
  1308  00000E                     	global	i2fputs@c
  1309                           i2fputs@c:	; 1 bytes @ 0xD
  1310  00000E                     	ds   1
  1311  00000E                     	global	i2fputs@i
  1312                           i2fputs@i:	; 2 bytes @ 0xE
  1313  00000F                     	ds   2
  1314  00000F                     ??i2___aodiv:	; 1 bytes @ 0x10
  1315  000011                     ??i2___aomod:	; 1 bytes @ 0x10
  1316  000011                     	global	?i2_pad
  1317                           ?i2_pad:	; 2 bytes @ 0x10
  1318  000011                     	global	i2___aodiv@counter
  1319                           i2___aodiv@counter:	; 1 bytes @ 0x10
  1320  000011                     	global	i2___aomod@counter
  1321                           i2___aomod@counter:	; 1 bytes @ 0x10
  1322  000011                     	global	i2pad@fp
  1323                           i2pad@fp:	; 2 bytes @ 0x10
  1324  000011                     	ds   1
  1325  000011                     	global	i2___aodiv@sign
  1326                           i2___aodiv@sign:	; 1 bytes @ 0x11
  1327  000012                     	global	i2___aomod@sign
  1328                           i2___aomod@sign:	; 1 bytes @ 0x11
  1329  000012                     	ds   1
  1330  000012                     	global	?i2_abs
  1331                           ?i2_abs:	; 2 bytes @ 0x12
  1332  000013                     	global	i2pad@buf
  1333                           i2pad@buf:	; 2 bytes @ 0x12
  1334  000013                     	global	i2abs@a
  1335                           i2abs@a:	; 2 bytes @ 0x12
  1336  000013                     	global	i2___aodiv@quotient
  1337                           i2___aodiv@quotient:	; 8 bytes @ 0x12
  1338  000013                     	ds   2
  1339  000013                     ??i2_abs:	; 1 bytes @ 0x14
  1340  000015                     	global	i2pad@p
  1341                           i2pad@p:	; 2 bytes @ 0x14
  1342  000015                     	ds   2
  1343  000015                     ??i2_pad:	; 1 bytes @ 0x16
  1344  000017                     	ds   1
  1345  000017                     	global	i2pad@i
  1346                           i2pad@i:	; 2 bytes @ 0x17
  1347  000018                     	ds   2
  1348  000018                     	global	i2pad@w
  1349                           i2pad@w:	; 2 bytes @ 0x19
  1350  00001A                     	ds   2
  1351  00001A                     	global	?i2_dtoa
  1352                           ?i2_dtoa:	; 2 bytes @ 0x1B
  1353  00001C                     	global	i2dtoa@fp
  1354                           i2dtoa@fp:	; 2 bytes @ 0x1B
  1355  00001C                     	ds   2
  1356  00001C                     	global	i2dtoa@d
  1357                           i2dtoa@d:	; 8 bytes @ 0x1D
  1358  00001E                     	ds   8
  1359  00001E                     ??i2_dtoa:	; 1 bytes @ 0x25
  1360  000026                     	ds   8
  1361  000026                     	global	i2_dtoa$347
  1362                           i2_dtoa$347:	; 2 bytes @ 0x2D
  1363  00002E                     	ds   2
  1364  00002E                     	global	i2dtoa@p
  1365                           i2dtoa@p:	; 2 bytes @ 0x2F
  1366  000030                     	ds   2
  1367  000030                     	global	i2dtoa@w
  1368                           i2dtoa@w:	; 2 bytes @ 0x31
  1369  000032                     	ds   2
  1370  000032                     	global	i2dtoa@s
  1371                           i2dtoa@s:	; 2 bytes @ 0x33
  1372  000034                     	ds   2
  1373  000034                     	global	i2dtoa@n
  1374                           i2dtoa@n:	; 8 bytes @ 0x35
  1375  000036                     	ds   8
  1376  000036                     	global	i2dtoa@i
  1377                           i2dtoa@i:	; 2 bytes @ 0x3D
  1378  00003E                     	ds   2
  1379  00003E                     	global	?i2_vfpfcnvrt
  1380                           ?i2_vfpfcnvrt:	; 2 bytes @ 0x3F
  1381  000040                     	global	i2vfpfcnvrt@fp
  1382                           i2vfpfcnvrt@fp:	; 2 bytes @ 0x3F
  1383  000040                     	ds   2
  1384  000040                     	global	i2vfpfcnvrt@fmt
  1385                           i2vfpfcnvrt@fmt:	; 2 bytes @ 0x41
  1386  000042                     	ds   2
  1387  000042                     	global	i2vfpfcnvrt@ap
  1388                           i2vfpfcnvrt@ap:	; 2 bytes @ 0x43
  1389  000044                     	ds   2
  1390  000044                     ??i2_vfpfcnvrt:	; 1 bytes @ 0x45
  1391  000046                     	ds   2
  1392  000046                     	global	i2vfpfcnvrt@ll
  1393                           i2vfpfcnvrt@ll:	; 8 bytes @ 0x47
  1394  000048                     	ds   8
  1395  000048                     	global	?i2_vfprintf
  1396                           ?i2_vfprintf:	; 2 bytes @ 0x4F
  1397  000050                     	global	i2vfprintf@fp
  1398                           i2vfprintf@fp:	; 2 bytes @ 0x4F
  1399  000050                     	ds   2
  1400  000050                     	global	i2vfprintf@fmt
  1401                           i2vfprintf@fmt:	; 2 bytes @ 0x51
  1402  000052                     	ds   2
  1403  000052                     	global	i2vfprintf@ap
  1404                           i2vfprintf@ap:	; 2 bytes @ 0x53
  1405  000054                     	ds   2
  1406  000054                     ??i2_vfprintf:	; 1 bytes @ 0x55
  1407  000056                     	global	i2vfprintf@cfmt
  1408                           i2vfprintf@cfmt:	; 2 bytes @ 0x55
  1409  000056                     	ds   2
  1410  000056                     	global	?i2_sprintf
  1411                           ?i2_sprintf:	; 2 bytes @ 0x57
  1412  000058                     	global	i2sprintf@s
  1413                           i2sprintf@s:	; 2 bytes @ 0x57
  1414  000058                     	ds   2
  1415  000058                     	global	i2sprintf@fmt
  1416                           i2sprintf@fmt:	; 2 bytes @ 0x59
  1417  00005A                     	ds   4
  1418  00005A                     ??i2_sprintf:	; 1 bytes @ 0x5D
  1419  00005E                     	global	i2sprintf@ret
  1420                           i2sprintf@ret:	; 2 bytes @ 0x5D
  1421  00005E                     	ds   2
  1422  00005E                     	global	i2sprintf@ap
  1423                           i2sprintf@ap:	; 2 bytes @ 0x5F
  1424  000060                     	ds   2
  1425  000060                     	global	i2sprintf@f
  1426                           i2sprintf@f:	; 6 bytes @ 0x61
  1427  000062                     	ds   6
  1428  000062                     ??i2_tempo1:	; 1 bytes @ 0x67
  1429  000068                     	ds   2
  1430  000068                     ??i2_estadosMaquina:	; 1 bytes @ 0x69
  1431  00006A                     	ds   2
  1432  00006A                     ??_tmr:	; 1 bytes @ 0x6B
  1433  00006C                     	ds   8
  1434  00006C                     ;!
  1435                           ;!Data Sizes:
  1436                           ;!    Strings     67
  1437                           ;!    Constant    0
  1438                           ;!    Data        0
  1439                           ;!    BSS         72
  1440                           ;!    Persistent  0
  1441                           ;!    Stack       0
  1442                           ;!
  1443                           ;!Auto Spaces:
  1444                           ;!    Space          Size  Autos    Used
  1445                           ;!    COMRAM          126    115     123
  1446                           ;!    BANK0           128    108     125
  1447                           ;!    BANK1           256      0      47
  1448                           ;!    BANK2           256      0       0
  1449                           ;!    BANK3           256      0       0
  1450                           ;!    BANK4           256      0       0
  1451                           ;!    BANK5           256      0       0
  1452                           
  1453                           ;!
  1454                           ;!Pointer List with Targets:
  1455                           ;!
  1456                           ;!    i2sprintf@f.buffer	PTR unsigned char  size(2) Largest target is 0
  1457                           ;!		 -> estadoMes(BANK1[15]), tempoDis(BANK0[5]), 
  1458                           ;!
  1459                           ;!    strlen@s	PTR const unsigned char  size(2) Largest target is 32
  1460                           ;!		 -> dbuf(BANK1[32]), 
  1461                           ;!
  1462                           ;!    strlen@a	PTR const unsigned char  size(2) Largest target is 32
  1463                           ;!		 -> dbuf(BANK1[32]), 
  1464                           ;!
  1465                           ;!    sprintf@fmt	PTR const unsigned char  size(2) Largest target is 10
  1466                           ;!		 -> STR_11(CODE[10]), STR_10(CODE[9]), STR_9(CODE[7]), STR_8(CODE[7]), 
  1467                           ;!		 -> STR_7(CODE[9]), STR_6(CODE[9]), STR_5(CODE[7]), STR_4(CODE[7]), 
  1468                           ;!		 -> STR_3(CODE[7]), STR_2(CODE[10]), STR_1(CODE[3]), 
  1469                           ;!
  1470                           ;!    sprintf@s	PTR unsigned char  size(2) Largest target is 15
  1471                           ;!		 -> estadoMes(BANK1[15]), tempoDis(BANK0[5]), 
  1472                           ;!
  1473                           ;!    sprintf@ap	PTR void [1] size(2) Largest target is 2
  1474                           ;!		 -> ?_sprintf(BANK0[2]), 
  1475                           ;!
  1476                           ;!    f.buffer	PTR unsigned char  size(2) Largest target is 15
  1477                           ;!		 -> estadoMes(BANK1[15]), tempoDis(BANK0[5]), 
  1478                           ;!
  1479                           ;!    fputs@s	PTR const unsigned char  size(2) Largest target is 32
  1480                           ;!		 -> dbuf(BANK1[32]), 
  1481                           ;!
  1482                           ;!    fputs@fp	PTR struct _IO_FILE size(2) Largest target is 7
  1483                           ;!		 -> sprintf@f(BANK0[6]), 
  1484                           ;!
  1485                           ;!    S808_IO_FILE$buffer	PTR unsigned char  size(2) Largest target is 15
  1486                           ;!		 -> estadoMes(BANK1[15]), tempoDis(BANK0[5]), 
  1487                           ;!
  1488                           ;!    fputc@fp.buffer	PTR unsigned char  size(2) Largest target is 15
  1489                           ;!		 -> estadoMes(BANK1[15]), tempoDis(BANK0[5]), 
  1490                           ;!
  1491                           ;!    fputc@fp	PTR struct _IO_FILE size(2) Largest target is 7
  1492                           ;!		 -> sprintf@f(BANK0[6]), 
  1493                           ;!
  1494                           ;!    vfprintf@ap	PTR PTR void  size(2) Largest target is 2
  1495                           ;!		 -> sprintf@ap(BANK0[2]), 
  1496                           ;!
  1497                           ;!    vfprintf@fp	PTR struct _IO_FILE size(2) Largest target is 7
  1498                           ;!		 -> sprintf@f(BANK0[6]), 
  1499                           ;!
  1500                           ;!    vfprintf@fmt	PTR const unsigned char  size(2) Largest target is 10
  1501                           ;!		 -> STR_11(CODE[10]), STR_10(CODE[9]), STR_9(CODE[7]), STR_8(CODE[7]), 
  1502                           ;!		 -> STR_7(CODE[9]), STR_6(CODE[9]), STR_5(CODE[7]), STR_4(CODE[7]), 
  1503                           ;!		 -> STR_3(CODE[7]), STR_2(CODE[10]), STR_1(CODE[3]), 
  1504                           ;!
  1505                           ;!    vfprintf@cfmt	PTR unsigned char  size(2) Largest target is 10
  1506                           ;!		 -> STR_11(CODE[10]), STR_10(CODE[9]), STR_9(CODE[7]), STR_8(CODE[7]), 
  1507                           ;!		 -> STR_7(CODE[9]), STR_6(CODE[9]), STR_5(CODE[7]), STR_4(CODE[7]), 
  1508                           ;!		 -> STR_3(CODE[7]), STR_2(CODE[10]), STR_1(CODE[3]), 
  1509                           ;!
  1510                           ;!    vfpfcnvrt@fp	PTR struct _IO_FILE size(2) Largest target is 7
  1511                           ;!		 -> sprintf@f(BANK0[6]), 
  1512                           ;!
  1513                           ;!    vfpfcnvrt@ap	PTR PTR void  size(2) Largest target is 2
  1514                           ;!		 -> sprintf@ap(BANK0[2]), 
  1515                           ;!
  1516                           ;!    vfpfcnvrt@fmt	PTR PTR unsigned char  size(2) Largest target is 2
  1517                           ;!		 -> vfprintf@cfmt(BANK0[2]), 
  1518                           ;!
  1519                           ;!    dtoa@fp	PTR struct _IO_FILE size(2) Largest target is 7
  1520                           ;!		 -> sprintf@f(BANK0[6]), 
  1521                           ;!
  1522                           ;!    pad@fp	PTR struct _IO_FILE size(2) Largest target is 7
  1523                           ;!		 -> sprintf@f(BANK0[6]), 
  1524                           ;!
  1525                           ;!    pad@buf	PTR unsigned char  size(2) Largest target is 32
  1526                           ;!		 -> dbuf(BANK1[32]), 
  1527                           ;!
  1528                           ;!    lcd_puts@s	PTR const unsigned char  size(2) Largest target is 15
  1529                           ;!		 -> STR_14(CODE[7]), STR_13(CODE[8]), STR_12(CODE[8]), estadoMes(BANK1[15]), 
  1530                           ;!		 -> tempoDis(BANK0[5]), 
  1531                           ;!
  1532                           
  1533                           
  1534                           ;!
  1535                           ;!Critical Paths under _main in COMRAM
  1536                           ;!
  1537                           ;!    None.
  1538                           ;!
  1539                           ;!Critical Paths under _tmr in COMRAM
  1540                           ;!
  1541                           ;!    _tmr->i2_estadosMaquina
  1542                           ;!    i2_estadosMaquina->i2_tempo1
  1543                           ;!    i2_tempo1->i2_sprintf
  1544                           ;!    i2_sprintf->i2_vfprintf
  1545                           ;!    i2_vfprintf->i2_vfpfcnvrt
  1546                           ;!    i2_vfpfcnvrt->i2_dtoa
  1547                           ;!    i2_dtoa->i2_pad
  1548                           ;!    i2_pad->i2_fputs
  1549                           ;!    i2_fputs->i2_fputc
  1550                           ;!    i2_abs->i2___aomod
  1551                           ;!    i2_escreve2->i2_lcd_puts
  1552                           ;!    i2_escreve->i2_lcd_puts
  1553                           ;!    i2_lcd_puts->i2_lcd_write
  1554                           ;!    i2_lcd_goto->i2_lcd_write
  1555                           ;!    i2_lcd_clear->i2_lcd_write
  1556                           ;!
  1557                           ;!Critical Paths under _main in BANK0
  1558                           ;!
  1559                           ;!    _main->_estadosMaquina
  1560                           ;!    _lcd_init->_lcd_clear
  1561                           ;!    _estadosMaquina->_tempo1
  1562                           ;!    _tempo1->_sprintf
  1563                           ;!    _sprintf->_vfprintf
  1564                           ;!    _vfprintf->_vfpfcnvrt
  1565                           ;!    _vfpfcnvrt->_dtoa
  1566                           ;!    _dtoa->_pad
  1567                           ;!    _pad->_fputs
  1568                           ;!    _fputs->_fputc
  1569                           ;!    _abs->___aomod
  1570                           ;!    _escreve2->_lcd_puts
  1571                           ;!    _escreve->_lcd_puts
  1572                           ;!    _lcd_puts->_lcd_write
  1573                           ;!    _lcd_goto->_lcd_write
  1574                           ;!    _lcd_clear->_lcd_write
  1575                           ;!
  1576                           ;!Critical Paths under _tmr in BANK0
  1577                           ;!
  1578                           ;!    None.
  1579                           ;!
  1580                           ;!Critical Paths under _main in BANK1
  1581                           ;!
  1582                           ;!    None.
  1583                           ;!
  1584                           ;!Critical Paths under _tmr in BANK1
  1585                           ;!
  1586                           ;!    None.
  1587                           ;!
  1588                           ;!Critical Paths under _main in BANK2
  1589                           ;!
  1590                           ;!    None.
  1591                           ;!
  1592                           ;!Critical Paths under _tmr in BANK2
  1593                           ;!
  1594                           ;!    None.
  1595                           ;!
  1596                           ;!Critical Paths under _main in BANK3
  1597                           ;!
  1598                           ;!    None.
  1599                           ;!
  1600                           ;!Critical Paths under _tmr in BANK3
  1601                           ;!
  1602                           ;!    None.
  1603                           ;!
  1604                           ;!Critical Paths under _main in BANK4
  1605                           ;!
  1606                           ;!    None.
  1607                           ;!
  1608                           ;!Critical Paths under _tmr in BANK4
  1609                           ;!
  1610                           ;!    None.
  1611                           ;!
  1612                           ;!Critical Paths under _main in BANK5
  1613                           ;!
  1614                           ;!    None.
  1615                           ;!
  1616                           ;!Critical Paths under _tmr in BANK5
  1617                           ;!
  1618                           ;!    None.
  1619                           
  1620 ;;
  1621 ;;Main: autosize = 0, tempsize = 1, incstack = 0, save=0
  1622 ;;
  1623                           
  1624                           ;!
  1625                           ;!Call Graph Tables:
  1626                           ;!
  1627                           ;! ---------------------------------------------------------------------------------
  1628                           ;! (Depth) Function   	        Calls       Base Space   Used Autos Params    Refs
  1629                           ;! ---------------------------------------------------------------------------------
  1630                           ;! (0) _main                                                 1     1      0   17245
  1631                           ;!                                            107 BANK0      1     1      0
  1632                           ;!                             _config
  1633                           ;!                     _estadosMaquina
  1634                           ;!                           _lcd_init
  1635                           ;! ---------------------------------------------------------------------------------
  1636                           ;! (1) _lcd_init                                             2     2      0      67
  1637                           ;!                                              2 BANK0      2     2      0
  1638                           ;!                          _lcd_clear
  1639                           ;!                          _lcd_write
  1640                           ;! ---------------------------------------------------------------------------------
  1641                           ;! (1) _estadosMaquina                                       2     2      0   17178
  1642                           ;!                                            105 BANK0      2     2      0
  1643                           ;!                            _escreve
  1644                           ;!                            _sprintf
  1645                           ;!                             _tempo1
  1646                           ;! ---------------------------------------------------------------------------------
  1647                           ;! (2) _tempo1                                               2     2      0    8589
  1648                           ;!                                            103 BANK0      2     2      0
  1649                           ;!                           _escreve2
  1650                           ;!                            _sprintf
  1651                           ;! ---------------------------------------------------------------------------------
  1652                           ;! (3) _sprintf                                             16    10      6    8000
  1653                           ;!                                             87 BANK0     16    10      6
  1654                           ;!                           _vfprintf
  1655                           ;! ---------------------------------------------------------------------------------
  1656                           ;! (4) _vfprintf                                             8     2      6    6120
  1657                           ;!                                             79 BANK0      8     2      6
  1658                           ;!                          _vfpfcnvrt
  1659                           ;! ---------------------------------------------------------------------------------
  1660                           ;! (5) _vfpfcnvrt                                           42    36      6    5751
  1661                           ;!                                             63 BANK0     16    10      6
  1662                           ;!                               _dtoa
  1663                           ;!                              _fputc
  1664                           ;! ---------------------------------------------------------------------------------
  1665                           ;! (6) _dtoa                                                36    26     10    4358
  1666                           ;!                                             27 BANK0     36    26     10
  1667                           ;!                            ___aodiv
  1668                           ;!                            ___aomod
  1669                           ;!                                _abs
  1670                           ;!                                _pad
  1671                           ;! ---------------------------------------------------------------------------------
  1672                           ;! (7) _pad                                                 11     5      6    2709
  1673                           ;!                                             16 BANK0     11     5      6
  1674                           ;!                              _fputc
  1675                           ;!                              _fputs
  1676                           ;!                             _strlen
  1677                           ;! ---------------------------------------------------------------------------------
  1678                           ;! (8) _strlen                                               6     4      2     166
  1679                           ;!                                              0 BANK0      6     4      2
  1680                           ;! ---------------------------------------------------------------------------------
  1681                           ;! (8) _fputs                                                7     3      4    1235
  1682                           ;!                                              9 BANK0      7     3      4
  1683                           ;!                              _fputc
  1684                           ;! ---------------------------------------------------------------------------------
  1685                           ;! (6) _fputc                                                9     5      4     834
  1686                           ;!                                              0 BANK0      9     5      4
  1687                           ;!                              _putch
  1688                           ;! ---------------------------------------------------------------------------------
  1689                           ;! (7) _putch                                                1     1      0       0
  1690                           ;! ---------------------------------------------------------------------------------
  1691                           ;! (7) _abs                                                  4     2      2     142
  1692                           ;!                                             18 BANK0      4     2      2
  1693                           ;!                            ___aomod (ARG)
  1694                           ;! ---------------------------------------------------------------------------------
  1695                           ;! (7) ___aomod                                             18     2     16     448
  1696                           ;!                                              0 BANK0     18     2     16
  1697                           ;! ---------------------------------------------------------------------------------
  1698                           ;! (7) ___aodiv                                             26    10     16     452
  1699                           ;!                                              0 BANK0     26    10     16
  1700                           ;! ---------------------------------------------------------------------------------
  1701                           ;! (3) _escreve2                                             0     0      0     589
  1702                           ;!                          _lcd_clear
  1703                           ;!                           _lcd_goto
  1704                           ;!                           _lcd_puts
  1705                           ;! ---------------------------------------------------------------------------------
  1706                           ;! (2) _escreve                                              0     0      0     589
  1707                           ;!                          _lcd_clear
  1708                           ;!                           _lcd_goto
  1709                           ;!                           _lcd_puts
  1710                           ;! ---------------------------------------------------------------------------------
  1711                           ;! (4) _lcd_puts                                             2     0      2     523
  1712                           ;!                                              1 BANK0      2     0      2
  1713                           ;!                          _lcd_write
  1714                           ;! ---------------------------------------------------------------------------------
  1715                           ;! (4) _lcd_goto                                             1     1      0      44
  1716                           ;!                                              1 BANK0      1     1      0
  1717                           ;!                          _lcd_write
  1718                           ;! ---------------------------------------------------------------------------------
  1719                           ;! (2) _lcd_clear                                            1     1      0      22
  1720                           ;!                                              1 BANK0      1     1      0
  1721                           ;!                          _lcd_write
  1722                           ;! ---------------------------------------------------------------------------------
  1723                           ;! (2) _lcd_write                                            1     1      0      22
  1724                           ;!                                              0 BANK0      1     1      0
  1725                           ;! ---------------------------------------------------------------------------------
  1726                           ;! (1) _config                                               0     0      0       0
  1727                           ;! ---------------------------------------------------------------------------------
  1728                           ;! Estimated maximum stack depth 8
  1729                           ;! ---------------------------------------------------------------------------------
  1730                           ;! (Depth) Function   	        Calls       Base Space   Used Autos Params    Refs
  1731                           ;! ---------------------------------------------------------------------------------
  1732                           ;! (11) _tmr                                                 8     8      0    9830
  1733                           ;!                                            107 COMRAM     8     8      0
  1734                           ;!                   i2_estadosMaquina
  1735                           ;! ---------------------------------------------------------------------------------
  1736                           ;! (12) i2_estadosMaquina                                    2     2      0    9830
  1737                           ;!                                            105 COMRAM     2     2      0
  1738                           ;!                          i2_escreve
  1739                           ;!                          i2_sprintf
  1740                           ;!                           i2_tempo1
  1741                           ;! ---------------------------------------------------------------------------------
  1742                           ;! (13) i2_tempo1                                            2     2      0    4915
  1743                           ;!                                            103 COMRAM     2     2      0
  1744                           ;!                         i2_escreve2
  1745                           ;!                          i2_sprintf
  1746                           ;! ---------------------------------------------------------------------------------
  1747                           ;! (14) i2_sprintf                                          16    10      6    4626
  1748                           ;!                                             87 COMRAM    16    10      6
  1749                           ;!                         i2_vfprintf
  1750                           ;! ---------------------------------------------------------------------------------
  1751                           ;! (15) i2_vfprintf                                          8     2      6    3855
  1752                           ;!                                             79 COMRAM     8     2      6
  1753                           ;!                        i2_vfpfcnvrt
  1754                           ;! ---------------------------------------------------------------------------------
  1755                           ;! (16) i2_vfpfcnvrt                                        42    36      6    3651
  1756                           ;!                                             63 COMRAM    16    10      6
  1757                           ;!                             i2_dtoa
  1758                           ;!                            i2_fputc
  1759                           ;! ---------------------------------------------------------------------------------
  1760                           ;! (17) i2_dtoa                                             36    26     10    2808
  1761                           ;!                                             27 COMRAM    36    26     10
  1762                           ;!                          i2___aodiv
  1763                           ;!                          i2___aomod
  1764                           ;!                              i2_abs
  1765                           ;!                              i2_pad
  1766                           ;! ---------------------------------------------------------------------------------
  1767                           ;! (18) i2_pad                                              11     5      6    1509
  1768                           ;!                                             16 COMRAM    11     5      6
  1769                           ;!                            i2_fputc
  1770                           ;!                            i2_fputs
  1771                           ;!                           i2_strlen
  1772                           ;! ---------------------------------------------------------------------------------
  1773                           ;! (19) i2_strlen                                            6     4      2     116
  1774                           ;!                                              0 COMRAM     6     4      2
  1775                           ;! ---------------------------------------------------------------------------------
  1776                           ;! (19) i2_fputs                                             7     3      4     635
  1777                           ;!                                              9 COMRAM     7     3      4
  1778                           ;!                            i2_fputc
  1779                           ;! ---------------------------------------------------------------------------------
  1780                           ;! (17) i2_fputc                                             9     5      4     434
  1781                           ;!                                              0 COMRAM     9     5      4
  1782                           ;!                            i2_putch
  1783                           ;! ---------------------------------------------------------------------------------
  1784                           ;! (18) i2_putch                                             1     1      0       0
  1785                           ;! ---------------------------------------------------------------------------------
  1786                           ;! (18) i2_abs                                               4     2      2      92
  1787                           ;!                                             18 COMRAM     4     2      2
  1788                           ;!                          i2___aomod (ARG)
  1789                           ;! ---------------------------------------------------------------------------------
  1790                           ;! (18) i2___aomod                                          18     2     16     348
  1791                           ;!                                              0 COMRAM    18     2     16
  1792                           ;! ---------------------------------------------------------------------------------
  1793                           ;! (18) i2___aodiv                                          26    10     16     352
  1794                           ;!                                              0 COMRAM    26    10     16
  1795                           ;! ---------------------------------------------------------------------------------
  1796                           ;! (14) i2_escreve2                                          0     0      0     289
  1797                           ;!                        i2_lcd_clear
  1798                           ;!                         i2_lcd_goto
  1799                           ;!                         i2_lcd_puts
  1800                           ;! ---------------------------------------------------------------------------------
  1801                           ;! (13) i2_escreve                                           0     0      0     289
  1802                           ;!                        i2_lcd_clear
  1803                           ;!                         i2_lcd_goto
  1804                           ;!                         i2_lcd_puts
  1805                           ;! ---------------------------------------------------------------------------------
  1806                           ;! (15) i2_lcd_puts                                          2     0      2     223
  1807                           ;!                                              1 COMRAM     2     0      2
  1808                           ;!                        i2_lcd_write
  1809                           ;! ---------------------------------------------------------------------------------
  1810                           ;! (15) i2_lcd_goto                                          1     1      0      44
  1811                           ;!                                              1 COMRAM     1     1      0
  1812                           ;!                        i2_lcd_write
  1813                           ;! ---------------------------------------------------------------------------------
  1814                           ;! (15) i2_lcd_clear                                         1     1      0      22
  1815                           ;!                                              1 COMRAM     1     1      0
  1816                           ;!                        i2_lcd_write
  1817                           ;! ---------------------------------------------------------------------------------
  1818                           ;! (16) i2_lcd_write                                         1     1      0      22
  1819                           ;!                                              0 COMRAM     1     1      0
  1820                           ;! ---------------------------------------------------------------------------------
  1821                           ;! Estimated maximum stack depth 19
  1822                           ;! ---------------------------------------------------------------------------------
  1823                           ;!
  1824                           ;! Call Graph Graphs:
  1825                           ;!
  1826                           ;! _main (ROOT)
  1827                           ;!   _config
  1828                           ;!   _estadosMaquina
  1829                           ;!     _escreve
  1830                           ;!       _lcd_clear
  1831                           ;!         _lcd_write
  1832                           ;!       _lcd_goto
  1833                           ;!         _lcd_write
  1834                           ;!       _lcd_puts
  1835                           ;!         _lcd_write
  1836                           ;!     _sprintf
  1837                           ;!       _vfprintf
  1838                           ;!         _vfpfcnvrt
  1839                           ;!           _dtoa
  1840                           ;!             ___aodiv
  1841                           ;!             ___aomod
  1842                           ;!             _abs
  1843                           ;!               ___aomod (ARG)
  1844                           ;!             _pad
  1845                           ;!               _fputc
  1846                           ;!                 _putch
  1847                           ;!               _fputs
  1848                           ;!                 _fputc
  1849                           ;!                   _putch
  1850                           ;!               _strlen
  1851                           ;!           _fputc
  1852                           ;!             _putch
  1853                           ;!     _tempo1
  1854                           ;!       _escreve2
  1855                           ;!         _lcd_clear
  1856                           ;!           _lcd_write
  1857                           ;!         _lcd_goto
  1858                           ;!           _lcd_write
  1859                           ;!         _lcd_puts
  1860                           ;!           _lcd_write
  1861                           ;!       _sprintf
  1862                           ;!         _vfprintf
  1863                           ;!           _vfpfcnvrt
  1864                           ;!             _dtoa
  1865                           ;!               ___aodiv
  1866                           ;!               ___aomod
  1867                           ;!               _abs
  1868                           ;!                 ___aomod (ARG)
  1869                           ;!               _pad
  1870                           ;!                 _fputc
  1871                           ;!                   _putch
  1872                           ;!                 _fputs
  1873                           ;!                   _fputc
  1874                           ;!                     _putch
  1875                           ;!                 _strlen
  1876                           ;!             _fputc
  1877                           ;!               _putch
  1878                           ;!   _lcd_init
  1879                           ;!     _lcd_clear
  1880                           ;!       _lcd_write
  1881                           ;!     _lcd_write
  1882                           ;!
  1883                           ;! _tmr (ROOT)
  1884                           ;!   i2_estadosMaquina
  1885                           ;!     i2_escreve
  1886                           ;!       i2_lcd_clear
  1887                           ;!         i2_lcd_write
  1888                           ;!       i2_lcd_goto
  1889                           ;!         i2_lcd_write
  1890                           ;!       i2_lcd_puts
  1891                           ;!         i2_lcd_write
  1892                           ;!     i2_sprintf
  1893                           ;!       i2_vfprintf
  1894                           ;!         i2_vfpfcnvrt
  1895                           ;!           i2_dtoa
  1896                           ;!             i2___aodiv
  1897                           ;!             i2___aomod
  1898                           ;!             i2_abs
  1899                           ;!               i2___aomod (ARG)
  1900                           ;!             i2_pad
  1901                           ;!               i2_fputc
  1902                           ;!                 i2_putch
  1903                           ;!               i2_fputs
  1904                           ;!                 i2_fputc
  1905                           ;!                   i2_putch
  1906                           ;!               i2_strlen
  1907                           ;!           i2_fputc
  1908                           ;!             i2_putch
  1909                           ;!     i2_tempo1
  1910                           ;!       i2_escreve2
  1911                           ;!         i2_lcd_clear
  1912                           ;!           i2_lcd_write
  1913                           ;!         i2_lcd_goto
  1914                           ;!           i2_lcd_write
  1915                           ;!         i2_lcd_puts
  1916                           ;!           i2_lcd_write
  1917                           ;!       i2_sprintf
  1918                           ;!         i2_vfprintf
  1919                           ;!           i2_vfpfcnvrt
  1920                           ;!             i2_dtoa
  1921                           ;!               i2___aodiv
  1922                           ;!               i2___aomod
  1923                           ;!               i2_abs
  1924                           ;!                 i2___aomod (ARG)
  1925                           ;!               i2_pad
  1926                           ;!                 i2_fputc
  1927                           ;!                   i2_putch
  1928                           ;!                 i2_fputs
  1929                           ;!                   i2_fputc
  1930                           ;!                     i2_putch
  1931                           ;!                 i2_strlen
  1932                           ;!             i2_fputc
  1933                           ;!               i2_putch
  1934                           ;!
  1935                           
  1936                           ;! Address spaces:
  1937                           
  1938                           ;!Name               Size   Autos  Total    Cost      Usage
  1939                           ;!BIGRAM             5FF      0       0      17        0.0%
  1940                           ;!EEDATA             100      0       0       0        0.0%
  1941                           ;!BITBANK5           100      0       0      16        0.0%
  1942                           ;!BANK5              100      0       0      14        0.0%
  1943                           ;!BITBANK4           100      0       0      12        0.0%
  1944                           ;!BANK4              100      0       0      13        0.0%
  1945                           ;!BITBANK3           100      0       0      10        0.0%
  1946                           ;!BANK3              100      0       0      11        0.0%
  1947                           ;!BITBANK2           100      0       0       8        0.0%
  1948                           ;!BANK2              100      0       0       9        0.0%
  1949                           ;!BITBANK1           100      0       0       6        0.0%
  1950                           ;!BANK1              100      0      2F       7       18.4%
  1951                           ;!BITBANK0            80      0       0       4        0.0%
  1952                           ;!BANK0               80     6C      7D       5       97.7%
  1953                           ;!BITCOMRAM           7E      0       0       0        0.0%
  1954                           ;!COMRAM              7E     73      7B       1       97.6%
  1955                           ;!BITSFR               0      0       0     200        0.0%
  1956                           ;!SFR                  0      0       0     200        0.0%
  1957                           ;!STACK                0      0       0       2        0.0%
  1958                           ;!NULL                 0      0       0       0        0.0%
  1959                           ;!ABS                  0      0     127      15        0.0%
  1960                           ;!DATA                 0      0     127       3        0.0%
  1961                           ;!CODE                 0      0       0       0        0.0%
  1962                           
  1963                           	global	_main
  1964                           
  1965 ;; *************** function _main *****************
  1966 ;; Defined at:
  1967 ;;		line 32 in file "comunica.c"
  1968 ;; Parameters:    Size  Location     Type
  1969 ;;		None
  1970 ;; Auto vars:     Size  Location     Type
  1971 ;;		None
  1972 ;; Return value:  Size  Location     Type
  1973 ;;                  1    wreg      void 
  1974 ;; Registers used:
  1975 ;;		wreg, fsr1l, fsr1h, fsr2l, fsr2h, status,2, status,0, tblptrl, tblptrh, tblptru, cstack
  1976 ;; Tracked objects:
  1977 ;;		On entry : 0/0
  1978 ;;		On exit  : 0/0
  1979 ;;		Unchanged: 0/0
  1980 ;; Data sizes:     COMRAM   BANK0   BANK1   BANK2   BANK3   BANK4   BANK5
  1981 ;;      Params:         0       0       0       0       0       0       0
  1982 ;;      Locals:         0       0       0       0       0       0       0
  1983 ;;      Temps:          0       1       0       0       0       0       0
  1984 ;;      Totals:         0       1       0       0       0       0       0
  1985 ;;Total ram usage:        1 bytes
  1986 ;; Hardware stack levels required when called:   21
  1987 ;; This function calls:
  1988 ;;		_config
  1989 ;;		_estadosMaquina
  1990 ;;		_lcd_init
  1991 ;; This function is called by:
  1992 ;;		Startup code after reset
  1993 ;; This function uses a non-reentrant model
  1994 ;;
  1995                           psect	text0,class=CODE,space=0,reloc=2,group=0
  1996                           	file	"comunica.c"
  1997                           	line	32
  1998                           global __ptext0
  1999                           __ptext0:
  2000  0020E4                     psect	text0
  2001                           	file	"comunica.c"
  2002                           	line	32
  2003                           	global	__size_of_main
  2004                           	__size_of_main	equ	__end_of_main-_main
  2005  0000                     	
  2006                           _main:
  2007  0020E4                     ;incstack = 0
  2008                           	opt	stack 10
  2009                           	line	34
  2010                           	
  2011                           l3147:
  2012  0020E4                     ;comunica.c: 34:     config();
  2013                           	call	_config	;wreg free
  2014  0020E4  ECC2  F015         	line	35
  2015                           ;comunica.c: 35:     lcd_init();
  2016                           	call	_lcd_init	;wreg free
  2017  0020E8  EC55  F013         	line	36
  2018                           	
  2019                           l3149:
  2020  0020EC                     ;comunica.c: 36:     PORTB = 0;
  2021                           	movlw	low(0)
  2022  0020EC  0E00               	movwf	((c:3969)),c	;volatile
  2023  0020EE  6E81               	line	37
  2024                           	
  2025                           l3151:
  2026  0020F0                     ;comunica.c: 37:     PORTD = 0;
  2027                           	movlw	low(0)
  2028  0020F0  0E00               	movwf	((c:3971)),c	;volatile
  2029  0020F2  6E83               	line	38
  2030                           	
  2031                           l3153:
  2032  0020F4                     ;comunica.c: 38:     PORTE = 0;
  2033                           	movlw	low(0)
  2034  0020F4  0E00               	movwf	((c:3972)),c	;volatile
  2035  0020F6  6E84               	line	39
  2036                           	
  2037                           l3155:
  2038  0020F8                     ;comunica.c: 39:     TMR0=6;
  2039                           	movlw	high(06h)
  2040  0020F8  0E00               	movwf	((c:4054+1)),c	;volatile
  2041  0020FA  6ED7               	movlw	low(06h)
  2042  0020FC  0E06               	movwf	((c:4054)),c	;volatile
  2043  0020FE  6ED6               	line	40
  2044                           	
  2045                           l3157:
  2046  002100                     ;comunica.c: 40:     estadosMaquina();
  2047                           	call	_estadosMaquina	;wreg free
  2048  002100  EC23  F003         	goto	l3159
  2049  002104  EF84  F010         	line	41
  2050                           ;comunica.c: 41:     while (1) {
  2051                           	
  2052                           l123:
  2053  002108                     	line	42
  2054                           	
  2055                           l3159:
  2056  002108                     ;comunica.c: 42:         if (!PORTCbits.RC1) {
  2057                           	btfsc	((c:3970)),c,1	;volatile
  2058  002108  B282               	goto	u3141
  2059  00210A  EF89  F010         	goto	u3140
  2060  00210E  EF8B  F010         u3141:
  2061  002112                     	goto	l3175
  2062  002112  EFC3  F010         u3140:
  2063  002116                     	line	43
  2064                           	
  2065                           l3161:
  2066  002116                     ;comunica.c: 43:             _delay((unsigned long)((5)*(4000000/4000.0)));
  2067                           	opt asmopt_push
  2068                           opt asmopt_off
  2069                           movlw	7
  2070  002116  0E07               	movlb	0	; () banked
  2071  002118  0100               movwf	(??_main+0+0)&0ffh,f
  2072  00211A  6FEB               	movlw	125
  2073  00211C  0E7D               u3317:
  2074  00211E                     decfsz	wreg,f
  2075  00211E  2EE8               	bra	u3317
  2076  002120  D7FE               	decfsz	(??_main+0+0)&0ffh,f
  2077  002122  2FEB               	bra	u3317
  2078  002124  D7FC               opt asmopt_pop
  2079                           
  2080                           	line	44
  2081                           	
  2082                           l3163:
  2083  002126                     ;comunica.c: 44:             if (!PORTCbits.RC1) {
  2084                           	btfsc	((c:3970)),c,1	;volatile
  2085  002126  B282               	goto	u3151
  2086  002128  EF98  F010         	goto	u3150
  2087  00212C  EF9A  F010         u3151:
  2088  002130                     	goto	l3175
  2089  002130  EFC3  F010         u3150:
  2090  002134                     	goto	l126
  2091  002134  EF9E  F010         	line	45
  2092                           	
  2093                           l3165:
  2094  002138                     ;comunica.c: 45:                 while (!PORTCbits.RC1);
  2095                           	goto	l126
  2096  002138  EF9E  F010         	
  2097                           l127:
  2098  00213C                     	
  2099                           l126:
  2100  00213C                     	btfss	((c:3970)),c,1	;volatile
  2101  00213C  A282               	goto	u3161
  2102  00213E  EFA3  F010         	goto	u3160
  2103  002142  EFA5  F010         u3161:
  2104  002146                     	goto	l126
  2105  002146  EF9E  F010         u3160:
  2106  00214A                     	goto	l3167
  2107  00214A  EFA7  F010         	
  2108                           l128:
  2109  00214E                     	line	48
  2110                           	
  2111                           l3167:
  2112  00214E                     ;comunica.c: 48:                 if(estado == 0){
  2113                           	movlb	0	; () banked
  2114  00214E  0100               	movf	((_estado))&0ffh,w
  2115  002150  51F4               iorwf	((_estado+1))&0ffh,w
  2116  002152  11F5               	btfss	status,2
  2117  002154  A4D8               	goto	u3171
  2118  002156  EFAF  F010         	goto	u3170
  2119  00215A  EFB1  F010         
  2120                           u3171:
  2121  00215E                     	goto	l3171
  2122  00215E  EFB7  F010         u3170:
  2123  002162                     	line	49
  2124                           	
  2125                           l3169:; BSR set to: 0
  2126  002162                     
  2127                           ;comunica.c: 49:                     estado = 1;
  2128                           	movlw	high(01h)
  2129  002162  0E00               	movwf	((_estado+1))&0ffh
  2130  002164  6FF5               	movlw	low(01h)
  2131  002166  0E01               	movwf	((_estado))&0ffh
  2132  002168  6FF4               	line	50
  2133                           ;comunica.c: 50:                 }else {
  2134                           	goto	l3173
  2135  00216A  EFBD  F010         	
  2136                           l129:; BSR set to: 0
  2137  00216E                     
  2138                           	line	51
  2139                           	
  2140                           l3171:; BSR set to: 0
  2141  00216E                     
  2142                           ;comunica.c: 51:                     estado = 0;
  2143                           	movlw	high(0)
  2144  00216E  0E00               	movwf	((_estado+1))&0ffh
  2145  002170  6FF5               	movlw	low(0)
  2146  002172  0E00               	movwf	((_estado))&0ffh
  2147  002174  6FF4               	goto	l3173
  2148  002176  EFBD  F010         	line	52
  2149                           ;comunica.c: 52:                 }
  2150                           	
  2151                           l130:; BSR set to: 0
  2152  00217A                     
  2153                           	line	53
  2154                           	
  2155                           l3173:; BSR set to: 0
  2156  00217A                     
  2157                           ;comunica.c: 53:                 estadosMaquina();
  2158                           	call	_estadosMaquina	;wreg free
  2159  00217A  EC23  F003         	goto	l3175
  2160  00217E  EFC3  F010         	line	54
  2161                           ;comunica.c: 54:             }
  2162                           	
  2163                           l125:
  2164  002182                     	goto	l3175
  2165  002182  EFC3  F010         	line	55
  2166                           ;comunica.c: 55:         }
  2167                           	
  2168                           l124:
  2169  002186                     	line	57
  2170                           	
  2171                           l3175:
  2172  002186                     ;comunica.c: 57:        if (!PORTCbits.RC2) {
  2173                           	btfsc	((c:3970)),c,2	;volatile
  2174  002186  B482               	goto	u3181
  2175  002188  EFC8  F010         	goto	u3180
  2176  00218C  EFCA  F010         u3181:
  2177  002190                     	goto	l3189
  2178  002190  EFFE  F010         u3180:
  2179  002194                     	line	58
  2180                           	
  2181                           l3177:
  2182  002194                     ;comunica.c: 58:             _delay((unsigned long)((5)*(4000000/4000.0)));
  2183                           	opt asmopt_push
  2184                           opt asmopt_off
  2185                           movlw	7
  2186  002194  0E07               	movlb	0	; () banked
  2187  002196  0100               movwf	(??_main+0+0)&0ffh,f
  2188  002198  6FEB               	movlw	125
  2189  00219A  0E7D               u3327:
  2190  00219C                     decfsz	wreg,f
  2191  00219C  2EE8               	bra	u3327
  2192  00219E  D7FE               	decfsz	(??_main+0+0)&0ffh,f
  2193  0021A0  2FEB               	bra	u3327
  2194  0021A2  D7FC               opt asmopt_pop
  2195                           
  2196                           	line	59
  2197                           	
  2198                           l3179:
  2199  0021A4                     ;comunica.c: 59:             if (!PORTCbits.RC2) {
  2200                           	btfsc	((c:3970)),c,2	;volatile
  2201  0021A4  B482               	goto	u3191
  2202  0021A6  EFD7  F010         	goto	u3190
  2203  0021AA  EFD9  F010         u3191:
  2204  0021AE                     	goto	l3189
  2205  0021AE  EFFE  F010         u3190:
  2206  0021B2                     	goto	l133
  2207  0021B2  EFDD  F010         	line	60
  2208                           	
  2209                           l3181:
  2210  0021B6                     ;comunica.c: 60:                 while (!PORTCbits.RC2);
  2211                           	goto	l133
  2212  0021B6  EFDD  F010         	
  2213                           l134:
  2214  0021BA                     	
  2215                           l133:
  2216  0021BA                     	btfss	((c:3970)),c,2	;volatile
  2217  0021BA  A482               	goto	u3201
  2218  0021BC  EFE2  F010         	goto	u3200
  2219  0021C0  EFE4  F010         u3201:
  2220  0021C4                     	goto	l133
  2221  0021C4  EFDD  F010         u3200:
  2222  0021C8                     	goto	l3183
  2223  0021C8  EFE6  F010         	
  2224                           l135:
  2225  0021CC                     	line	61
  2226                           	
  2227                           l3183:
  2228  0021CC                     ;comunica.c: 61:                 if(estado!=0)
  2229                           	movlb	0	; () banked
  2230  0021CC  0100               	movf	((_estado))&0ffh,w
  2231  0021CE  51F4               iorwf	((_estado+1))&0ffh,w
  2232  0021D0  11F5               	btfsc	status,2
  2233  0021D2  B4D8               	goto	u3211
  2234  0021D4  EFEE  F010         	goto	u3210
  2235  0021D8  EFF0  F010         
  2236                           u3211:
  2237  0021DC                     	goto	l3187
  2238  0021DC  EFF8  F010         u3210:
  2239  0021E0                     	line	62
  2240                           	
  2241                           l3185:; BSR set to: 0
  2242  0021E0                     
  2243                           ;comunica.c: 62:                 estado = estado + 1;
  2244                           	movlw	low(01h)
  2245  0021E0  0E01               	addwf	((_estado))&0ffh,w
  2246  0021E2  25F4               	movwf	((_estado))&0ffh
  2247  0021E4  6FF4               	movlw	high(01h)
  2248  0021E6  0E00               	addwfc	((_estado+1))&0ffh,w
  2249  0021E8  21F5               	movwf	1+((_estado))&0ffh
  2250  0021EA  6FF5               	goto	l3187
  2251  0021EC  EFF8  F010         	
  2252                           l136:; BSR set to: 0
  2253  0021F0                     
  2254                           	line	63
  2255                           	
  2256                           l3187:; BSR set to: 0
  2257  0021F0                     
  2258                           ;comunica.c: 63:                 estadosMaquina();
  2259                           	call	_estadosMaquina	;wreg free
  2260  0021F0  EC23  F003         	goto	l3189
  2261  0021F4  EFFE  F010         	line	65
  2262                           ;comunica.c: 65:             }
  2263                           	
  2264                           l132:
  2265  0021F8                     	goto	l3189
  2266  0021F8  EFFE  F010         	line	66
  2267                           ;comunica.c: 66:         }
  2268                           	
  2269                           l131:
  2270  0021FC                     	line	67
  2271                           	
  2272                           l3189:
  2273  0021FC                     ;comunica.c: 67:         if(estado != 0)
  2274                           	movlb	0	; () banked
  2275  0021FC  0100               	movf	((_estado))&0ffh,w
  2276  0021FE  51F4               iorwf	((_estado+1))&0ffh,w
  2277  002200  11F5               	btfsc	status,2
  2278  002202  B4D8               	goto	u3221
  2279  002204  EF06  F011         	goto	u3220
  2280  002208  EF08  F011         
  2281                           u3221:
  2282  00220C                     	goto	l3159
  2283  00220C  EF84  F010         u3220:
  2284  002210                     	line	69
  2285                           	
  2286                           l3191:; BSR set to: 0
  2287  002210                     
  2288                           ;comunica.c: 68:         {;comunica.c: 69:             estadosMaquina();
  2289                           	call	_estadosMaquina	;wreg free
  2290  002210  EC23  F003         	goto	l3159
  2291  002214  EF84  F010         	line	70
  2292                           ;comunica.c: 70:         }
  2293                           	
  2294                           l137:
  2295  002218                     	goto	l3159
  2296  002218  EF84  F010         	line	79
  2297                           ;comunica.c: 79:     }
  2298                           	
  2299                           l138:
  2300  00221C                     	goto	l3159
  2301  00221C  EF84  F010         	
  2302                           l139:
  2303  002220                     	line	82
  2304                           	
  2305                           l140:
  2306  002220                     	global	start
  2307                           	goto	start
  2308  002220  EF07  F000         	opt stack 0
  2309                           GLOBAL	__end_of_main
  2310                           	__end_of_main:
  2311  002224                     	signat	_main,89
  2312                           	global	_lcd_init
  2313                           
  2314 ;; *************** function _lcd_init *****************
  2315 ;; Defined at:
  2316 ;;		line 92 in file "lcd.c"
  2317 ;; Parameters:    Size  Location     Type
  2318 ;;		None
  2319 ;; Auto vars:     Size  Location     Type
  2320 ;;  init_value      1    3[BANK0 ] unsigned char 
  2321 ;; Return value:  Size  Location     Type
  2322 ;;                  1    wreg      void 
  2323 ;; Registers used:
  2324 ;;		wreg, status,2, cstack
  2325 ;; Tracked objects:
  2326 ;;		On entry : 0/0
  2327 ;;		On exit  : 0/0
  2328 ;;		Unchanged: 0/0
  2329 ;; Data sizes:     COMRAM   BANK0   BANK1   BANK2   BANK3   BANK4   BANK5
  2330 ;;      Params:         0       0       0       0       0       0       0
  2331 ;;      Locals:         0       1       0       0       0       0       0
  2332 ;;      Temps:          0       1       0       0       0       0       0
  2333 ;;      Totals:         0       2       0       0       0       0       0
  2334 ;;Total ram usage:        2 bytes
  2335 ;; Hardware stack levels used:    1
  2336 ;; Hardware stack levels required when called:   13
  2337 ;; This function calls:
  2338 ;;		_lcd_clear
  2339 ;;		_lcd_write
  2340 ;; This function is called by:
  2341 ;;		_main
  2342 ;; This function uses a non-reentrant model
  2343 ;;
  2344                           psect	text1,class=CODE,space=0,reloc=2,group=0
  2345                           	file	"lcd.c"
  2346                           	line	92
  2347                           global __ptext1
  2348                           __ptext1:
  2349  0026AA                     psect	text1
  2350                           	file	"lcd.c"
  2351                           	line	92
  2352                           	global	__size_of_lcd_init
  2353                           	__size_of_lcd_init	equ	__end_of_lcd_init-_lcd_init
  2354  0000                     	
  2355                           _lcd_init:
  2356  0026AA                     ;incstack = 0
  2357                           	opt	stack 17
  2358                           	line	97
  2359                           	
  2360                           l2773:
  2361  0026AA                     ;lcd.c: 94:  char init_value;;lcd.c: 97:  init_value = 0x03;
  2362                           	movlw	low(03h)
  2363  0026AA  0E03               	movlb	0	; () banked
  2364  0026AC  0100               	movwf	((lcd_init@init_value))&0ffh
  2365  0026AE  6F83               	line	98
  2366                           	
  2367                           l2775:; BSR set to: 0
  2368  0026B0                     
  2369                           ;lcd.c: 98:  LE0 = 0;
  2370                           	bcf	c:(31848/8),(31848)&7	;volatile
  2371  0026B0  908D               	line	99
  2372                           	
  2373                           l2777:; BSR set to: 0
  2374  0026B2                     
  2375                           ;lcd.c: 99:  LE1 = 0;
  2376                           	bcf	c:(31849/8),(31849)&7	;volatile
  2377  0026B2  928D               	line	102
  2378                           	
  2379                           l2779:; BSR set to: 0
  2380  0026B4                     
  2381                           ;lcd.c: 102:  _delay((unsigned long)((15)*(4000000/4000.0)));
  2382                           	opt asmopt_push
  2383                           opt asmopt_off
  2384                           movlw	20
  2385  0026B4  0E14               	movlb	0	; () banked
  2386  0026B6  0100               movwf	(??_lcd_init+0+0)&0ffh,f
  2387  0026B8  6F82               	movlw	121
  2388  0026BA  0E79               u3337:
  2389  0026BC                     decfsz	wreg,f
  2390  0026BC  2EE8               	bra	u3337
  2391  0026BE  D7FE               	decfsz	(??_lcd_init+0+0)&0ffh,f
  2392  0026C0  2F82               	bra	u3337
  2393  0026C2  D7FC               	nop2
  2394  0026C4  D000               opt asmopt_pop
  2395                           
  2396                           	line	103
  2397                           	
  2398                           l2781:
  2399  0026C6                     ;lcd.c: 103:  PORTD = init_value;
  2400                           	movff	(lcd_init@init_value),(c:3971)	;volatile
  2401  0026C6  C083  FF83         	line	104
  2402                           	
  2403                           l2783:
  2404  0026CA                     ;lcd.c: 104:  ((LE1 = 1),(LE1=0));
  2405                           	bsf	c:(31849/8),(31849)&7	;volatile
  2406  0026CA  828D               	
  2407                           l2785:
  2408  0026CC                     	bcf	c:(31849/8),(31849)&7	;volatile
  2409  0026CC  928D               	line	105
  2410                           	
  2411                           l2787:
  2412  0026CE                     ;lcd.c: 105:  _delay((unsigned long)((5)*(4000000/4000.0)));
  2413                           	opt asmopt_push
  2414                           opt asmopt_off
  2415                           movlw	7
  2416  0026CE  0E07               	movlb	0	; () banked
  2417  0026D0  0100               movwf	(??_lcd_init+0+0)&0ffh,f
  2418  0026D2  6F82               	movlw	125
  2419  0026D4  0E7D               u3347:
  2420  0026D6                     decfsz	wreg,f
  2421  0026D6  2EE8               	bra	u3347
  2422  0026D8  D7FE               	decfsz	(??_lcd_init+0+0)&0ffh,f
  2423  0026DA  2F82               	bra	u3347
  2424  0026DC  D7FC               opt asmopt_pop
  2425                           
  2426                           	line	106
  2427                           	
  2428                           l2789:
  2429  0026DE                     ;lcd.c: 106:  ((LE1 = 1),(LE1=0));
  2430                           	bsf	c:(31849/8),(31849)&7	;volatile
  2431  0026DE  828D               	
  2432                           l2791:
  2433  0026E0                     	bcf	c:(31849/8),(31849)&7	;volatile
  2434  0026E0  928D               	line	107
  2435                           	
  2436                           l2793:
  2437  0026E2                     ;lcd.c: 107:  _delay((unsigned long)((200)*(4000000/4000000.0)));
  2438                           	opt asmopt_push
  2439                           opt asmopt_off
  2440                           	movlw	66
  2441  0026E2  0E42               u3357:
  2442  0026E4                     decfsz	wreg,f
  2443  0026E4  2EE8               	bra	u3357
  2444  0026E6  D7FE               	nop2
  2445  0026E8  D000               opt asmopt_pop
  2446                           
  2447                           	line	108
  2448                           	
  2449                           l2795:
  2450  0026EA                     ;lcd.c: 108:  ((LE1 = 1),(LE1=0));
  2451                           	bsf	c:(31849/8),(31849)&7	;volatile
  2452  0026EA  828D               	
  2453                           l2797:
  2454  0026EC                     	bcf	c:(31849/8),(31849)&7	;volatile
  2455  0026EC  928D               	line	109
  2456                           	
  2457                           l2799:
  2458  0026EE                     ;lcd.c: 109:  _delay((unsigned long)((200)*(4000000/4000000.0)));
  2459                           	opt asmopt_push
  2460                           opt asmopt_off
  2461                           	movlw	66
  2462  0026EE  0E42               u3367:
  2463  0026F0                     decfsz	wreg,f
  2464  0026F0  2EE8               	bra	u3367
  2465  0026F2  D7FE               	nop2
  2466  0026F4  D000               opt asmopt_pop
  2467                           
  2468                           	line	110
  2469                           ;lcd.c: 110:  PORTD = 2;
  2470                           	movlw	low(02h)
  2471  0026F6  0E02               	movwf	((c:3971)),c	;volatile
  2472  0026F8  6E83               	line	111
  2473                           	
  2474                           l2801:
  2475  0026FA                     ;lcd.c: 111:  ((LE1 = 1),(LE1=0));
  2476                           	bsf	c:(31849/8),(31849)&7	;volatile
  2477  0026FA  828D               	
  2478                           l2803:
  2479  0026FC                     	bcf	c:(31849/8),(31849)&7	;volatile
  2480  0026FC  928D               	line	113
  2481                           	
  2482                           l2805:
  2483  0026FE                     ;lcd.c: 113:  lcd_write(0x38);
  2484                           	movlw	(038h)&0ffh
  2485  0026FE  0E38               	
  2486                           	call	_lcd_write
  2487  002700  EC5D  F016         	line	114
  2488                           	
  2489                           l2807:
  2490  002704                     ;lcd.c: 114:  lcd_write(0x06);
  2491                           	movlw	(06h)&0ffh
  2492  002704  0E06               	
  2493                           	call	_lcd_write
  2494  002706  EC5D  F016         	line	115
  2495                           	
  2496                           l2809:
  2497  00270A                     ;lcd.c: 115:  lcd_write(0x0C);
  2498                           	movlw	(0Ch)&0ffh
  2499  00270A  0E0C               	
  2500                           	call	_lcd_write
  2501  00270C  EC5D  F016         	line	116
  2502                           	
  2503                           l2811:
  2504  002710                     ;lcd.c: 116:  lcd_clear();
  2505                           	call	_lcd_clear	;wreg free
  2506  002710  EC43  F016         	line	118
  2507                           	
  2508                           l29:
  2509  002714                     	return	;funcret
  2510  002714  0012               	opt stack 0
  2511                           GLOBAL	__end_of_lcd_init
  2512                           	__end_of_lcd_init:
  2513  002716                     	signat	_lcd_init,89
  2514                           	global	_estadosMaquina
  2515                           
  2516 ;; *************** function _estadosMaquina *****************
  2517 ;; Defined at:
  2518 ;;		line 130 in file "comunica.c"
  2519 ;; Parameters:    Size  Location     Type
  2520 ;;		None
  2521 ;; Auto vars:     Size  Location     Type
  2522 ;;		None
  2523 ;; Return value:  Size  Location     Type
  2524 ;;                  1    wreg      void 
  2525 ;; Registers used:
  2526 ;;		wreg, fsr1l, fsr1h, fsr2l, fsr2h, status,2, status,0, tblptrl, tblptrh, tblptru, cstack
  2527 ;; Tracked objects:
  2528 ;;		On entry : 0/0
  2529 ;;		On exit  : 0/0
  2530 ;;		Unchanged: 0/0
  2531 ;; Data sizes:     COMRAM   BANK0   BANK1   BANK2   BANK3   BANK4   BANK5
  2532 ;;      Params:         0       0       0       0       0       0       0
  2533 ;;      Locals:         0       0       0       0       0       0       0
  2534 ;;      Temps:          0       2       0       0       0       0       0
  2535 ;;      Totals:         0       2       0       0       0       0       0
  2536 ;;Total ram usage:        2 bytes
  2537 ;; Hardware stack levels used:    1
  2538 ;; Hardware stack levels required when called:   20
  2539 ;; This function calls:
  2540 ;;		_escreve
  2541 ;;		_sprintf
  2542 ;;		_tempo1
  2543 ;; This function is called by:
  2544 ;;		_main
  2545 ;; This function uses a non-reentrant model
  2546 ;;
  2547                           psect	text2,class=CODE,space=0,reloc=2,group=0
  2548                           	file	"comunica.c"
  2549                           	line	130
  2550                           global __ptext2
  2551                           __ptext2:
  2552  000646                     psect	text2
  2553                           	file	"comunica.c"
  2554                           	line	130
  2555                           	global	__size_of_estadosMaquina
  2556                           	__size_of_estadosMaquina	equ	__end_of_estadosMaquina-_estadosMaquina
  2557  0000                     	
  2558                           _estadosMaquina:
  2559  000646                     ;incstack = 0
  2560                           	opt	stack 10
  2561                           	line	133
  2562                           	
  2563                           l2823:
  2564  000646                     ;comunica.c: 133:         if((RCREG == '0') || (estado == 0) ){
  2565                           		movlw	48
  2566  000646  0E30               	xorwf	((c:4014)),c,w	;volatile
  2567  000648  18AE               	btfsc	status,2
  2568  00064A  B4D8               	goto	u2661
  2569  00064C  EF2A  F003         	goto	u2660
  2570  000650  EF2C  F003         
  2571                           u2661:
  2572  000654                     	goto	l171
  2573  000654  EF36  F003         u2660:
  2574  000658                     	
  2575                           l2825:
  2576  000658                     	movlb	0	; () banked
  2577  000658  0100               	movf	((_estado))&0ffh,w
  2578  00065A  51F4               iorwf	((_estado+1))&0ffh,w
  2579  00065C  11F5               	btfss	status,2
  2580  00065E  A4D8               	goto	u2671
  2581  000660  EF34  F003         	goto	u2670
  2582  000664  EF36  F003         
  2583                           u2671:
  2584  000668                     	goto	l2833
  2585  000668  EF4B  F003         u2670:
  2586  00066C                     	
  2587                           l171:
  2588  00066C                     	line	134
  2589                           ;comunica.c: 134:             PORTBbits.RB7 =0;
  2590                           	bcf	((c:3969)),c,7	;volatile
  2591  00066C  9E81               	line	135
  2592                           ;comunica.c: 135:             PORTBbits.RB5 =0;
  2593                           	bcf	((c:3969)),c,5	;volatile
  2594  00066E  9A81               	line	136
  2595                           ;comunica.c: 136:             PORTBbits.RB6 =0;
  2596                           	bcf	((c:3969)),c,6	;volatile
  2597  000670  9C81               	line	137
  2598                           ;comunica.c: 137:             PORTBbits.RB0 = 0;
  2599                           	bcf	((c:3969)),c,0	;volatile
  2600  000672  9081               	line	138
  2601                           	
  2602                           l2827:
  2603  000674                     ;comunica.c: 138:             TXREG = 0;
  2604                           	movlw	low(0)
  2605  000674  0E00               	movwf	((c:4013)),c	;volatile
  2606  000676  6EAD               	line	139
  2607                           	
  2608                           l2829:
  2609  000678                     ;comunica.c: 139:             sprintf(estadoMes, "Desligado");
  2610                           		movlw	low(_estadoMes)
  2611  000678  0E20               	movlb	0	; () banked
  2612  00067A  0100               	movwf	((sprintf@s))&0ffh
  2613  00067C  6FD7               	movlw	high(_estadoMes)
  2614  00067E  0E01               	movwf	((sprintf@s+1))&0ffh
  2615  000680  6FD8               
  2616                           		movlw	low(STR_2)
  2617  000682  0E01               	movwf	((sprintf@fmt))&0ffh
  2618  000684  6FD9               	movlw	high(STR_2)
  2619  000686  0E06               	movwf	((sprintf@fmt+1))&0ffh
  2620  000688  6FDA               
  2621                           	call	_sprintf	;wreg free
  2622  00068A  EC5A  F014         	line	140
  2623                           	
  2624                           l2831:
  2625  00068E                     ;comunica.c: 140:             escreve();
  2626                           	call	_escreve	;wreg free
  2627  00068E  EC1D  F016         	line	141
  2628                           ;comunica.c: 141:         }
  2629                           	goto	l208
  2630  000692  EF6A  F005         	line	142
  2631                           ;comunica.c: 142:         else if((RCREG == '1') || (estado == 1)) {
  2632                           	
  2633                           l169:
  2634  000696                     	
  2635                           l2833:
  2636  000696                     		movlw	49
  2637  000696  0E31               	xorwf	((c:4014)),c,w	;volatile
  2638  000698  18AE               	btfsc	status,2
  2639  00069A  B4D8               	goto	u2681
  2640  00069C  EF52  F003         	goto	u2680
  2641  0006A0  EF54  F003         
  2642                           u2681:
  2643  0006A4                     	goto	l2837
  2644  0006A4  EF60  F003         u2680:
  2645  0006A8                     	
  2646                           l2835:
  2647  0006A8                     	movlb	0	; () banked
  2648  0006A8  0100               		decf	((_estado))&0ffh,w
  2649  0006AA  05F4               iorwf	((_estado+1))&0ffh,w
  2650  0006AC  11F5               	btfss	status,2
  2651  0006AE  A4D8               	goto	u2691
  2652  0006B0  EF5C  F003         	goto	u2690
  2653  0006B4  EF5E  F003         
  2654                           u2691:
  2655  0006B8                     	goto	l2851
  2656  0006B8  EF7B  F003         u2690:
  2657  0006BC                     	goto	l2837
  2658  0006BC  EF60  F003         	
  2659                           l175:; BSR set to: 0
  2660  0006C0                     
  2661                           	line	143
  2662                           	
  2663                           l2837:
  2664  0006C0                     ;comunica.c: 143:             sprintf(estadoMes, "Encher");
  2665                           		movlw	low(_estadoMes)
  2666  0006C0  0E20               	movlb	0	; () banked
  2667  0006C2  0100               	movwf	((sprintf@s))&0ffh
  2668  0006C4  6FD7               	movlw	high(_estadoMes)
  2669  0006C6  0E01               	movwf	((sprintf@s+1))&0ffh
  2670  0006C8  6FD8               
  2671                           		movlw	low(STR_3)
  2672  0006CA  0E3A               	movwf	((sprintf@fmt))&0ffh
  2673  0006CC  6FD9               	movlw	high(STR_3)
  2674  0006CE  0E06               	movwf	((sprintf@fmt+1))&0ffh
  2675  0006D0  6FDA               
  2676                           	call	_sprintf	;wreg free
  2677  0006D2  EC5A  F014         	line	144
  2678                           	
  2679                           l2839:
  2680  0006D6                     ;comunica.c: 144:             PORTBbits.RB0 = 1;
  2681                           	bsf	((c:3969)),c,0	;volatile
  2682  0006D6  8081               	line	145
  2683                           	
  2684                           l2841:
  2685  0006D8                     ;comunica.c: 145:             PORTBbits.RB7 =1;
  2686                           	bsf	((c:3969)),c,7	;volatile
  2687  0006D8  8E81               	line	146
  2688                           	
  2689                           l2843:
  2690  0006DA                     ;comunica.c: 146:             PORTBbits.RB6 =1;
  2691                           	bsf	((c:3969)),c,6	;volatile
  2692  0006DA  8C81               	line	147
  2693                           	
  2694                           l2845:
  2695  0006DC                     ;comunica.c: 147:             TXREG = 1;
  2696                           	movlw	low(01h)
  2697  0006DC  0E01               	movwf	((c:4013)),c	;volatile
  2698  0006DE  6EAD               	line	148
  2699                           	
  2700                           l2847:
  2701  0006E0                     ;comunica.c: 148:             estado = estado + 1;
  2702                           	movlw	low(01h)
  2703  0006E0  0E01               	movlb	0	; () banked
  2704  0006E2  0100               	addwf	((_estado))&0ffh,w
  2705  0006E4  25F4               	movwf	((_estado))&0ffh
  2706  0006E6  6FF4               	movlw	high(01h)
  2707  0006E8  0E00               	addwfc	((_estado+1))&0ffh,w
  2708  0006EA  21F5               	movwf	1+((_estado))&0ffh
  2709  0006EC  6FF5               	line	149
  2710                           	
  2711                           l2849:; BSR set to: 0
  2712  0006EE                     
  2713                           ;comunica.c: 149:             escreve();
  2714                           	call	_escreve	;wreg free
  2715  0006EE  EC1D  F016         	line	150
  2716                           ;comunica.c: 150:         }
  2717                           	goto	l208
  2718  0006F2  EF6A  F005         	line	151
  2719                           ;comunica.c: 151:         else if(((RCREG == '2') || (estado == 2)) && (PORTCbits.RC3 ==
                                  0)){
  2720                           	
  2721                           l173:
  2722  0006F6                     	
  2723                           l2851:
  2724  0006F6                     		movlw	50
  2725  0006F6  0E32               	xorwf	((c:4014)),c,w	;volatile
  2726  0006F8  18AE               	btfsc	status,2
  2727  0006FA  B4D8               	goto	u2701
  2728  0006FC  EF82  F003         	goto	u2700
  2729  000700  EF84  F003         
  2730                           u2701:
  2731  000704                     	goto	l179
  2732  000704  EF8F  F003         u2700:
  2733  000708                     	
  2734                           l2853:
  2735  000708                     		movlw	2
  2736  000708  0E02               	movlb	0	; () banked
  2737  00070A  0100               	xorwf	((_estado))&0ffh,w
  2738  00070C  19F4               iorwf	((_estado+1))&0ffh,w
  2739  00070E  11F5               	btfss	status,2
  2740  000710  A4D8               	goto	u2711
  2741  000712  EF8D  F003         	goto	u2710
  2742  000716  EF8F  F003         
  2743                           u2711:
  2744  00071A                     	goto	l2871
  2745  00071A  EFC1  F003         u2710:
  2746  00071E                     	
  2747                           l179:
  2748  00071E                     	btfsc	((c:3970)),c,3	;volatile
  2749  00071E  B682               	goto	u2721
  2750  000720  EF94  F003         	goto	u2720
  2751  000724  EF96  F003         u2721:
  2752  000728                     	goto	l2871
  2753  000728  EFC1  F003         u2720:
  2754  00072C                     	line	152
  2755                           	
  2756                           l2855:
  2757  00072C                     ;comunica.c: 152:             PORTBbits.RB5 =1;
  2758                           	bsf	((c:3969)),c,5	;volatile
  2759  00072C  8A81               	line	153
  2760                           ;comunica.c: 153:             PORTBbits.RB7 =0;
  2761                           	bcf	((c:3969)),c,7	;volatile
  2762  00072E  9E81               	line	154
  2763                           ;comunica.c: 154:             PORTBbits.RB6 =0;
  2764                           	bcf	((c:3969)),c,6	;volatile
  2765  000730  9C81               	line	155
  2766                           	
  2767                           l2857:
  2768  000732                     ;comunica.c: 155:             _delay((unsigned long)((500)*(4000000/4000.0)));
  2769                           	opt asmopt_push
  2770                           opt asmopt_off
  2771                           movlw  3
  2772  000732  0E03               	movlb	0	; () banked
  2773  000734  0100               movwf	(??_estadosMaquina+0+0+1)&0ffh,f
  2774  000736  6FEA               movlw	138
  2775  000738  0E8A               movwf	(??_estadosMaquina+0+0)&0ffh,f
  2776  00073A  6FE9               	movlw	85
  2777  00073C  0E55               u3377:
  2778  00073E                     decfsz	wreg,f
  2779  00073E  2EE8               	bra	u3377
  2780  000740  D7FE               	decfsz	(??_estadosMaquina+0+0)&0ffh,f
  2781  000742  2FE9               	bra	u3377
  2782  000744  D7FC               	decfsz	(??_estadosMaquina+0+0+1)&0ffh,f
  2783  000746  2FEA               	bra	u3377
  2784  000748  D7FA               	nop2
  2785  00074A  D000               opt asmopt_pop
  2786                           
  2787                           	line	156
  2788                           	
  2789                           l2859:
  2790  00074C                     ;comunica.c: 156:             PORTBbits.RB7 = 1;
  2791                           	bsf	((c:3969)),c,7	;volatile
  2792  00074C  8E81               	line	157
  2793                           	
  2794                           l2861:
  2795  00074E                     ;comunica.c: 157:             sprintf(estadoMes, "Agitar");
  2796                           		movlw	low(_estadoMes)
  2797  00074E  0E20               	movlb	0	; () banked
  2798  000750  0100               	movwf	((sprintf@s))&0ffh
  2799  000752  6FD7               	movlw	high(_estadoMes)
  2800  000754  0E01               	movwf	((sprintf@s+1))&0ffh
  2801  000756  6FD8               
  2802                           		movlw	low(STR_4)
  2803  000758  0E33               	movwf	((sprintf@fmt))&0ffh
  2804  00075A  6FD9               	movlw	high(STR_4)
  2805  00075C  0E06               	movwf	((sprintf@fmt+1))&0ffh
  2806  00075E  6FDA               
  2807                           	call	_sprintf	;wreg free
  2808  000760  EC5A  F014         	line	158
  2809                           	
  2810                           l2863:
  2811  000764                     ;comunica.c: 158:             tempo1();
  2812                           	call	_tempo1	;wreg free
  2813  000764  ECCA  F012         	line	159
  2814                           	
  2815                           l2865:
  2816  000768                     ;comunica.c: 159:             TXREG = 2;
  2817                           	movlw	low(02h)
  2818  000768  0E02               	movwf	((c:4013)),c	;volatile
  2819  00076A  6EAD               	line	160
  2820                           	
  2821                           l2867:
  2822  00076C                     ;comunica.c: 160:             estado = estado + 1;
  2823                           	movlw	low(01h)
  2824  00076C  0E01               	movlb	0	; () banked
  2825  00076E  0100               	addwf	((_estado))&0ffh,w
  2826  000770  25F4               	movwf	((_estado))&0ffh
  2827  000772  6FF4               	movlw	high(01h)
  2828  000774  0E00               	addwfc	((_estado+1))&0ffh,w
  2829  000776  21F5               	movwf	1+((_estado))&0ffh
  2830  000778  6FF5               	line	161
  2831                           	
  2832                           l2869:; BSR set to: 0
  2833  00077A                     
  2834                           ;comunica.c: 161:             escreve();
  2835                           	call	_escreve	;wreg free
  2836  00077A  EC1D  F016         	line	162
  2837                           ;comunica.c: 162:         }
  2838                           	goto	l208
  2839  00077E  EF6A  F005         	line	163
  2840                           ;comunica.c: 163:         else if((RCREG == '3') || (estado == 3)){
  2841                           	
  2842                           l177:
  2843  000782                     	
  2844                           l2871:
  2845  000782                     		movlw	51
  2846  000782  0E33               	xorwf	((c:4014)),c,w	;volatile
  2847  000784  18AE               	btfsc	status,2
  2848  000786  B4D8               	goto	u2731
  2849  000788  EFC8  F003         	goto	u2730
  2850  00078C  EFCA  F003         
  2851                           u2731:
  2852  000790                     	goto	l183
  2853  000790  EFD5  F003         u2730:
  2854  000794                     	
  2855                           l2873:
  2856  000794                     		movlw	3
  2857  000794  0E03               	movlb	0	; () banked
  2858  000796  0100               	xorwf	((_estado))&0ffh,w
  2859  000798  19F4               iorwf	((_estado+1))&0ffh,w
  2860  00079A  11F5               	btfss	status,2
  2861  00079C  A4D8               	goto	u2741
  2862  00079E  EFD3  F003         	goto	u2740
  2863  0007A2  EFD5  F003         
  2864                           u2741:
  2865  0007A6                     	goto	l2887
  2866  0007A6  EFFD  F003         u2740:
  2867  0007AA                     	
  2868                           l183:
  2869  0007AA                     	line	164
  2870                           ;comunica.c: 164:             PORTBbits.RB5 =0;
  2871                           	bcf	((c:3969)),c,5	;volatile
  2872  0007AA  9A81               	line	165
  2873                           ;comunica.c: 165:             PORTBbits.RB7 =0;
  2874                           	bcf	((c:3969)),c,7	;volatile
  2875  0007AC  9E81               	line	166
  2876                           	
  2877                           l2875:
  2878  0007AE                     ;comunica.c: 166:             _delay((unsigned long)((500)*(4000000/4000.0)));
  2879                           	opt asmopt_push
  2880                           opt asmopt_off
  2881                           movlw  3
  2882  0007AE  0E03               	movlb	0	; () banked
  2883  0007B0  0100               movwf	(??_estadosMaquina+0+0+1)&0ffh,f
  2884  0007B2  6FEA               movlw	138
  2885  0007B4  0E8A               movwf	(??_estadosMaquina+0+0)&0ffh,f
  2886  0007B6  6FE9               	movlw	85
  2887  0007B8  0E55               u3387:
  2888  0007BA                     decfsz	wreg,f
  2889  0007BA  2EE8               	bra	u3387
  2890  0007BC  D7FE               	decfsz	(??_estadosMaquina+0+0)&0ffh,f
  2891  0007BE  2FE9               	bra	u3387
  2892  0007C0  D7FC               	decfsz	(??_estadosMaquina+0+0+1)&0ffh,f
  2893  0007C2  2FEA               	bra	u3387
  2894  0007C4  D7FA               	nop2
  2895  0007C6  D000               opt asmopt_pop
  2896                           
  2897                           	line	167
  2898                           	
  2899                           l2877:
  2900  0007C8                     ;comunica.c: 167:             PORTBbits.RB6 =1;
  2901                           	bsf	((c:3969)),c,6	;volatile
  2902  0007C8  8C81               	line	168
  2903                           	
  2904                           l2879:
  2905  0007CA                     ;comunica.c: 168:             sprintf(estadoMes, "Drenar");
  2906                           		movlw	low(_estadoMes)
  2907  0007CA  0E20               	movlb	0	; () banked
  2908  0007CC  0100               	movwf	((sprintf@s))&0ffh
  2909  0007CE  6FD7               	movlw	high(_estadoMes)
  2910  0007D0  0E01               	movwf	((sprintf@s+1))&0ffh
  2911  0007D2  6FD8               
  2912                           		movlw	low(STR_5)
  2913  0007D4  0E2C               	movwf	((sprintf@fmt))&0ffh
  2914  0007D6  6FD9               	movlw	high(STR_5)
  2915  0007D8  0E06               	movwf	((sprintf@fmt+1))&0ffh
  2916  0007DA  6FDA               
  2917                           	call	_sprintf	;wreg free
  2918  0007DC  EC5A  F014         	line	169
  2919                           	
  2920                           l2881:
  2921  0007E0                     ;comunica.c: 169:             TXREG = 3;
  2922                           	movlw	low(03h)
  2923  0007E0  0E03               	movwf	((c:4013)),c	;volatile
  2924  0007E2  6EAD               	line	170
  2925                           	
  2926                           l2883:
  2927  0007E4                     ;comunica.c: 170:             estado = estado + 1;
  2928                           	movlw	low(01h)
  2929  0007E4  0E01               	movlb	0	; () banked
  2930  0007E6  0100               	addwf	((_estado))&0ffh,w
  2931  0007E8  25F4               	movwf	((_estado))&0ffh
  2932  0007EA  6FF4               	movlw	high(01h)
  2933  0007EC  0E00               	addwfc	((_estado+1))&0ffh,w
  2934  0007EE  21F5               	movwf	1+((_estado))&0ffh
  2935  0007F0  6FF5               	line	171
  2936                           	
  2937                           l2885:; BSR set to: 0
  2938  0007F2                     
  2939                           ;comunica.c: 171:             escreve();
  2940                           	call	_escreve	;wreg free
  2941  0007F2  EC1D  F016         	line	172
  2942                           ;comunica.c: 172:         }
  2943                           	goto	l208
  2944  0007F6  EF6A  F005         	line	173
  2945                           ;comunica.c: 173:         else if(((RCREG == '4') || (estado == 4)) && (PORTCbits.RC0 ==
                                  0 )){
  2946                           	
  2947                           l181:
  2948  0007FA                     	
  2949                           l2887:
  2950  0007FA                     		movlw	52
  2951  0007FA  0E34               	xorwf	((c:4014)),c,w	;volatile
  2952  0007FC  18AE               	btfsc	status,2
  2953  0007FE  B4D8               	goto	u2751
  2954  000800  EF04  F004         	goto	u2750
  2955  000804  EF06  F004         
  2956                           u2751:
  2957  000808                     	goto	l187
  2958  000808  EF11  F004         u2750:
  2959  00080C                     	
  2960                           l2889:
  2961  00080C                     		movlw	4
  2962  00080C  0E04               	movlb	0	; () banked
  2963  00080E  0100               	xorwf	((_estado))&0ffh,w
  2964  000810  19F4               iorwf	((_estado+1))&0ffh,w
  2965  000812  11F5               	btfss	status,2
  2966  000814  A4D8               	goto	u2761
  2967  000816  EF0F  F004         	goto	u2760
  2968  00081A  EF11  F004         
  2969                           u2761:
  2970  00081E                     	goto	l2901
  2971  00081E  EF34  F004         u2760:
  2972  000822                     	
  2973                           l187:
  2974  000822                     	btfsc	((c:3970)),c,0	;volatile
  2975  000822  B082               	goto	u2771
  2976  000824  EF16  F004         	goto	u2770
  2977  000828  EF18  F004         u2771:
  2978  00082C                     	goto	l2901
  2979  00082C  EF34  F004         u2770:
  2980  000830                     	line	174
  2981                           	
  2982                           l2891:
  2983  000830                     ;comunica.c: 174:              PORTBbits.RB5 =1;
  2984                           	bsf	((c:3969)),c,5	;volatile
  2985  000830  8A81               	line	175
  2986                           ;comunica.c: 175:              PORTBbits.RB7 =1;
  2987                           	bsf	((c:3969)),c,7	;volatile
  2988  000832  8E81               	line	176
  2989                           	
  2990                           l2893:
  2991  000834                     ;comunica.c: 176:              sprintf(estadoMes, "Centrif.");
  2992                           		movlw	low(_estadoMes)
  2993  000834  0E20               	movlb	0	; () banked
  2994  000836  0100               	movwf	((sprintf@s))&0ffh
  2995  000838  6FD7               	movlw	high(_estadoMes)
  2996  00083A  0E01               	movwf	((sprintf@s+1))&0ffh
  2997  00083C  6FD8               
  2998                           		movlw	low(STR_6)
  2999  00083E  0E0B               	movwf	((sprintf@fmt))&0ffh
  3000  000840  6FD9               	movlw	high(STR_6)
  3001  000842  0E06               	movwf	((sprintf@fmt+1))&0ffh
  3002  000844  6FDA               
  3003                           	call	_sprintf	;wreg free
  3004  000846  EC5A  F014         	line	177
  3005                           ;comunica.c: 177:              tempo1();
  3006                           	call	_tempo1	;wreg free
  3007  00084A  ECCA  F012         	line	178
  3008                           	
  3009                           l2895:
  3010  00084E                     ;comunica.c: 178:              TXREG = 4;
  3011                           	movlw	low(04h)
  3012  00084E  0E04               	movwf	((c:4013)),c	;volatile
  3013  000850  6EAD               	line	179
  3014                           	
  3015                           l2897:
  3016  000852                     ;comunica.c: 179:              estado = estado + 1;
  3017                           	movlw	low(01h)
  3018  000852  0E01               	movlb	0	; () banked
  3019  000854  0100               	addwf	((_estado))&0ffh,w
  3020  000856  25F4               	movwf	((_estado))&0ffh
  3021  000858  6FF4               	movlw	high(01h)
  3022  00085A  0E00               	addwfc	((_estado+1))&0ffh,w
  3023  00085C  21F5               	movwf	1+((_estado))&0ffh
  3024  00085E  6FF5               	line	180
  3025                           	
  3026                           l2899:; BSR set to: 0
  3027  000860                     
  3028                           ;comunica.c: 180:              escreve();
  3029                           	call	_escreve	;wreg free
  3030  000860  EC1D  F016         	line	181
  3031                           ;comunica.c: 181:         }
  3032                           	goto	l208
  3033  000864  EF6A  F005         	line	182
  3034                           ;comunica.c: 182:         else if((RCREG == '5') || (estado == 5)){
  3035                           	
  3036                           l185:
  3037  000868                     	
  3038                           l2901:
  3039  000868                     		movlw	53
  3040  000868  0E35               	xorwf	((c:4014)),c,w	;volatile
  3041  00086A  18AE               	btfsc	status,2
  3042  00086C  B4D8               	goto	u2781
  3043  00086E  EF3B  F004         	goto	u2780
  3044  000872  EF3D  F004         
  3045                           u2781:
  3046  000876                     	goto	l191
  3047  000876  EF48  F004         u2780:
  3048  00087A                     	
  3049                           l2903:
  3050  00087A                     		movlw	5
  3051  00087A  0E05               	movlb	0	; () banked
  3052  00087C  0100               	xorwf	((_estado))&0ffh,w
  3053  00087E  19F4               iorwf	((_estado+1))&0ffh,w
  3054  000880  11F5               	btfss	status,2
  3055  000882  A4D8               	goto	u2791
  3056  000884  EF46  F004         	goto	u2790
  3057  000888  EF48  F004         
  3058                           u2791:
  3059  00088C                     	goto	l2919
  3060  00088C  EF72  F004         u2790:
  3061  000890                     	
  3062                           l191:
  3063  000890                     	line	183
  3064                           ;comunica.c: 183:             PORTBbits.RB7 =0;
  3065                           	bcf	((c:3969)),c,7	;volatile
  3066  000890  9E81               	line	184
  3067                           ;comunica.c: 184:             PORTBbits.RB6 =0;
  3068                           	bcf	((c:3969)),c,6	;volatile
  3069  000892  9C81               	line	185
  3070                           ;comunica.c: 185:              PORTBbits.RB5 =0;
  3071                           	bcf	((c:3969)),c,5	;volatile
  3072  000894  9A81               	line	186
  3073                           	
  3074                           l2905:
  3075  000896                     ;comunica.c: 186:             _delay((unsigned long)((500)*(4000000/4000.0)));
  3076                           	opt asmopt_push
  3077                           opt asmopt_off
  3078                           movlw  3
  3079  000896  0E03               	movlb	0	; () banked
  3080  000898  0100               movwf	(??_estadosMaquina+0+0+1)&0ffh,f
  3081  00089A  6FEA               movlw	138
  3082  00089C  0E8A               movwf	(??_estadosMaquina+0+0)&0ffh,f
  3083  00089E  6FE9               	movlw	85
  3084  0008A0  0E55               u3397:
  3085  0008A2                     decfsz	wreg,f
  3086  0008A2  2EE8               	bra	u3397
  3087  0008A4  D7FE               	decfsz	(??_estadosMaquina+0+0)&0ffh,f
  3088  0008A6  2FE9               	bra	u3397
  3089  0008A8  D7FC               	decfsz	(??_estadosMaquina+0+0+1)&0ffh,f
  3090  0008AA  2FEA               	bra	u3397
  3091  0008AC  D7FA               	nop2
  3092  0008AE  D000               opt asmopt_pop
  3093                           
  3094                           	line	187
  3095                           	
  3096                           l2907:
  3097  0008B0                     ;comunica.c: 187:              PORTBbits.RB7 =1;
  3098                           	bsf	((c:3969)),c,7	;volatile
  3099  0008B0  8E81               	line	188
  3100                           	
  3101                           l2909:
  3102  0008B2                     ;comunica.c: 188:              PORTBbits.RB6 =1;
  3103                           	bsf	((c:3969)),c,6	;volatile
  3104  0008B2  8C81               	line	189
  3105                           	
  3106                           l2911:
  3107  0008B4                     ;comunica.c: 189:             sprintf(estadoMes, "Enxaguar");
  3108                           		movlw	low(_estadoMes)
  3109  0008B4  0E20               	movlb	0	; () banked
  3110  0008B6  0100               	movwf	((sprintf@s))&0ffh
  3111  0008B8  6FD7               	movlw	high(_estadoMes)
  3112  0008BA  0E01               	movwf	((sprintf@s+1))&0ffh
  3113  0008BC  6FD8               
  3114                           		movlw	low(STR_7)
  3115  0008BE  0E14               	movwf	((sprintf@fmt))&0ffh
  3116  0008C0  6FD9               	movlw	high(STR_7)
  3117  0008C2  0E06               	movwf	((sprintf@fmt+1))&0ffh
  3118  0008C4  6FDA               
  3119                           	call	_sprintf	;wreg free
  3120  0008C6  EC5A  F014         	line	190
  3121                           	
  3122                           l2913:
  3123  0008CA                     ;comunica.c: 190:             TXREG = 5;
  3124                           	movlw	low(05h)
  3125  0008CA  0E05               	movwf	((c:4013)),c	;volatile
  3126  0008CC  6EAD               	line	191
  3127                           	
  3128                           l2915:
  3129  0008CE                     ;comunica.c: 191:             estado = estado + 1;
  3130                           	movlw	low(01h)
  3131  0008CE  0E01               	movlb	0	; () banked
  3132  0008D0  0100               	addwf	((_estado))&0ffh,w
  3133  0008D2  25F4               	movwf	((_estado))&0ffh
  3134  0008D4  6FF4               	movlw	high(01h)
  3135  0008D6  0E00               	addwfc	((_estado+1))&0ffh,w
  3136  0008D8  21F5               	movwf	1+((_estado))&0ffh
  3137  0008DA  6FF5               	line	192
  3138                           	
  3139                           l2917:; BSR set to: 0
  3140  0008DC                     
  3141                           ;comunica.c: 192:             escreve();
  3142                           	call	_escreve	;wreg free
  3143  0008DC  EC1D  F016         	line	193
  3144                           ;comunica.c: 193:         }
  3145                           	goto	l208
  3146  0008E0  EF6A  F005         	line	194
  3147                           ;comunica.c: 194:         else if((RCREG == '6') || (estado == 6) && (PORTCbits.RC3 == 0
                                 )){
  3148                           	
  3149                           l189:
  3150  0008E4                     	
  3151                           l2919:
  3152  0008E4                     		movlw	54
  3153  0008E4  0E36               	xorwf	((c:4014)),c,w	;volatile
  3154  0008E6  18AE               	btfsc	status,2
  3155  0008E8  B4D8               	goto	u2801
  3156  0008EA  EF79  F004         	goto	u2800
  3157  0008EE  EF7B  F004         
  3158                           u2801:
  3159  0008F2                     	goto	l195
  3160  0008F2  EF8D  F004         u2800:
  3161  0008F6                     	
  3162                           l2921:
  3163  0008F6                     		movlw	6
  3164  0008F6  0E06               	movlb	0	; () banked
  3165  0008F8  0100               	xorwf	((_estado))&0ffh,w
  3166  0008FA  19F4               iorwf	((_estado+1))&0ffh,w
  3167  0008FC  11F5               	btfss	status,2
  3168  0008FE  A4D8               	goto	u2811
  3169  000900  EF84  F004         	goto	u2810
  3170  000904  EF86  F004         
  3171                           u2811:
  3172  000908                     	goto	l2941
  3173  000908  EFB8  F004         u2810:
  3174  00090C                     	
  3175                           l2923:; BSR set to: 0
  3176  00090C                     
  3177                           	btfsc	((c:3970)),c,3	;volatile
  3178  00090C  B682               	goto	u2821
  3179  00090E  EF8B  F004         	goto	u2820
  3180  000912  EF8D  F004         u2821:
  3181  000916                     	goto	l2941
  3182  000916  EFB8  F004         u2820:
  3183  00091A                     	
  3184                           l195:
  3185  00091A                     	line	195
  3186                           ;comunica.c: 195:             PORTBbits.RB7 =0;
  3187                           	bcf	((c:3969)),c,7	;volatile
  3188  00091A  9E81               	line	196
  3189                           ;comunica.c: 196:             PORTBbits.RB6 =0;
  3190                           	bcf	((c:3969)),c,6	;volatile
  3191  00091C  9C81               	line	197
  3192                           	
  3193                           l2925:
  3194  00091E                     ;comunica.c: 197:             _delay((unsigned long)((500)*(4000000/4000.0)));
  3195                           	opt asmopt_push
  3196                           opt asmopt_off
  3197                           movlw  3
  3198  00091E  0E03               	movlb	0	; () banked
  3199  000920  0100               movwf	(??_estadosMaquina+0+0+1)&0ffh,f
  3200  000922  6FEA               movlw	138
  3201  000924  0E8A               movwf	(??_estadosMaquina+0+0)&0ffh,f
  3202  000926  6FE9               	movlw	85
  3203  000928  0E55               u3407:
  3204  00092A                     decfsz	wreg,f
  3205  00092A  2EE8               	bra	u3407
  3206  00092C  D7FE               	decfsz	(??_estadosMaquina+0+0)&0ffh,f
  3207  00092E  2FE9               	bra	u3407
  3208  000930  D7FC               	decfsz	(??_estadosMaquina+0+0+1)&0ffh,f
  3209  000932  2FEA               	bra	u3407
  3210  000934  D7FA               	nop2
  3211  000936  D000               opt asmopt_pop
  3212                           
  3213                           	line	198
  3214                           	
  3215                           l2927:
  3216  000938                     ;comunica.c: 198:             PORTBbits.RB7 =1;
  3217                           	bsf	((c:3969)),c,7	;volatile
  3218  000938  8E81               	line	199
  3219                           	
  3220                           l2929:
  3221  00093A                     ;comunica.c: 199:             PORTBbits.RB5 =1;
  3222                           	bsf	((c:3969)),c,5	;volatile
  3223  00093A  8A81               	line	200
  3224                           	
  3225                           l2931:
  3226  00093C                     ;comunica.c: 200:             sprintf(estadoMes, "Agitar");
  3227                           		movlw	low(_estadoMes)
  3228  00093C  0E20               	movlb	0	; () banked
  3229  00093E  0100               	movwf	((sprintf@s))&0ffh
  3230  000940  6FD7               	movlw	high(_estadoMes)
  3231  000942  0E01               	movwf	((sprintf@s+1))&0ffh
  3232  000944  6FD8               
  3233                           		movlw	low(STR_8)
  3234  000946  0E33               	movwf	((sprintf@fmt))&0ffh
  3235  000948  6FD9               	movlw	high(STR_8)
  3236  00094A  0E06               	movwf	((sprintf@fmt+1))&0ffh
  3237  00094C  6FDA               
  3238                           	call	_sprintf	;wreg free
  3239  00094E  EC5A  F014         	line	201
  3240                           	
  3241                           l2933:
  3242  000952                     ;comunica.c: 201:             tempo1();
  3243                           	call	_tempo1	;wreg free
  3244  000952  ECCA  F012         	line	202
  3245                           	
  3246                           l2935:
  3247  000956                     ;comunica.c: 202:             TXREG = 6;
  3248                           	movlw	low(06h)
  3249  000956  0E06               	movwf	((c:4013)),c	;volatile
  3250  000958  6EAD               	line	203
  3251                           	
  3252                           l2937:
  3253  00095A                     ;comunica.c: 203:             estado = estado + 1;
  3254                           	movlw	low(01h)
  3255  00095A  0E01               	movlb	0	; () banked
  3256  00095C  0100               	addwf	((_estado))&0ffh,w
  3257  00095E  25F4               	movwf	((_estado))&0ffh
  3258  000960  6FF4               	movlw	high(01h)
  3259  000962  0E00               	addwfc	((_estado+1))&0ffh,w
  3260  000964  21F5               	movwf	1+((_estado))&0ffh
  3261  000966  6FF5               	line	204
  3262                           	
  3263                           l2939:; BSR set to: 0
  3264  000968                     
  3265                           ;comunica.c: 204:             escreve();
  3266                           	call	_escreve	;wreg free
  3267  000968  EC1D  F016         	line	205
  3268                           ;comunica.c: 205:         }
  3269                           	goto	l208
  3270  00096C  EF6A  F005         	line	206
  3271                           ;comunica.c: 206:         else if((RCREG == '7') || (estado == 7)){
  3272                           	
  3273                           l193:
  3274  000970                     	
  3275                           l2941:
  3276  000970                     		movlw	55
  3277  000970  0E37               	xorwf	((c:4014)),c,w	;volatile
  3278  000972  18AE               	btfsc	status,2
  3279  000974  B4D8               	goto	u2831
  3280  000976  EFBF  F004         	goto	u2830
  3281  00097A  EFC1  F004         
  3282                           u2831:
  3283  00097E                     	goto	l199
  3284  00097E  EFCC  F004         u2830:
  3285  000982                     	
  3286                           l2943:
  3287  000982                     		movlw	7
  3288  000982  0E07               	movlb	0	; () banked
  3289  000984  0100               	xorwf	((_estado))&0ffh,w
  3290  000986  19F4               iorwf	((_estado+1))&0ffh,w
  3291  000988  11F5               	btfss	status,2
  3292  00098A  A4D8               	goto	u2841
  3293  00098C  EFCA  F004         	goto	u2840
  3294  000990  EFCC  F004         
  3295                           u2841:
  3296  000994                     	goto	l2957
  3297  000994  EFF4  F004         u2840:
  3298  000998                     	
  3299                           l199:
  3300  000998                     	line	207
  3301                           ;comunica.c: 207:             PORTBbits.RB7 =0;
  3302                           	bcf	((c:3969)),c,7	;volatile
  3303  000998  9E81               	line	208
  3304                           ;comunica.c: 208:             PORTBbits.RB5 =0;
  3305                           	bcf	((c:3969)),c,5	;volatile
  3306  00099A  9A81               	line	209
  3307                           	
  3308                           l2945:
  3309  00099C                     ;comunica.c: 209:             _delay((unsigned long)((500)*(4000000/4000.0)));
  3310                           	opt asmopt_push
  3311                           opt asmopt_off
  3312                           movlw  3
  3313  00099C  0E03               	movlb	0	; () banked
  3314  00099E  0100               movwf	(??_estadosMaquina+0+0+1)&0ffh,f
  3315  0009A0  6FEA               movlw	138
  3316  0009A2  0E8A               movwf	(??_estadosMaquina+0+0)&0ffh,f
  3317  0009A4  6FE9               	movlw	85
  3318  0009A6  0E55               u3417:
  3319  0009A8                     decfsz	wreg,f
  3320  0009A8  2EE8               	bra	u3417
  3321  0009AA  D7FE               	decfsz	(??_estadosMaquina+0+0)&0ffh,f
  3322  0009AC  2FE9               	bra	u3417
  3323  0009AE  D7FC               	decfsz	(??_estadosMaquina+0+0+1)&0ffh,f
  3324  0009B0  2FEA               	bra	u3417
  3325  0009B2  D7FA               	nop2
  3326  0009B4  D000               opt asmopt_pop
  3327                           
  3328                           	line	210
  3329                           	
  3330                           l2947:
  3331  0009B6                     ;comunica.c: 210:             PORTBbits.RB6 =1;
  3332                           	bsf	((c:3969)),c,6	;volatile
  3333  0009B6  8C81               	line	211
  3334                           	
  3335                           l2949:
  3336  0009B8                     ;comunica.c: 211:             sprintf(estadoMes, "Drenar");
  3337                           		movlw	low(_estadoMes)
  3338  0009B8  0E20               	movlb	0	; () banked
  3339  0009BA  0100               	movwf	((sprintf@s))&0ffh
  3340  0009BC  6FD7               	movlw	high(_estadoMes)
  3341  0009BE  0E01               	movwf	((sprintf@s+1))&0ffh
  3342  0009C0  6FD8               
  3343                           		movlw	low(STR_9)
  3344  0009C2  0E2C               	movwf	((sprintf@fmt))&0ffh
  3345  0009C4  6FD9               	movlw	high(STR_9)
  3346  0009C6  0E06               	movwf	((sprintf@fmt+1))&0ffh
  3347  0009C8  6FDA               
  3348                           	call	_sprintf	;wreg free
  3349  0009CA  EC5A  F014         	line	212
  3350                           	
  3351                           l2951:
  3352  0009CE                     ;comunica.c: 212:             TXREG = 7;
  3353                           	movlw	low(07h)
  3354  0009CE  0E07               	movwf	((c:4013)),c	;volatile
  3355  0009D0  6EAD               	line	213
  3356                           	
  3357                           l2953:
  3358  0009D2                     ;comunica.c: 213:             estado = estado + 1;
  3359                           	movlw	low(01h)
  3360  0009D2  0E01               	movlb	0	; () banked
  3361  0009D4  0100               	addwf	((_estado))&0ffh,w
  3362  0009D6  25F4               	movwf	((_estado))&0ffh
  3363  0009D8  6FF4               	movlw	high(01h)
  3364  0009DA  0E00               	addwfc	((_estado+1))&0ffh,w
  3365  0009DC  21F5               	movwf	1+((_estado))&0ffh
  3366  0009DE  6FF5               	line	214
  3367                           	
  3368                           l2955:; BSR set to: 0
  3369  0009E0                     
  3370                           ;comunica.c: 214:             escreve();
  3371                           	call	_escreve	;wreg free
  3372  0009E0  EC1D  F016         	line	215
  3373                           ;comunica.c: 215:         }
  3374                           	goto	l208
  3375  0009E4  EF6A  F005         	line	216
  3376                           ;comunica.c: 216:         else if((RCREG == '8') || (estado == 8) && (PORTCbits.RC0 == 0
                                  )){
  3377                           	
  3378                           l197:
  3379  0009E8                     	
  3380                           l2957:
  3381  0009E8                     		movlw	56
  3382  0009E8  0E38               	xorwf	((c:4014)),c,w	;volatile
  3383  0009EA  18AE               	btfsc	status,2
  3384  0009EC  B4D8               	goto	u2851
  3385  0009EE  EFFB  F004         	goto	u2850
  3386  0009F2  EFFD  F004         
  3387                           u2851:
  3388  0009F6                     	goto	l203
  3389  0009F6  EF0F  F005         u2850:
  3390  0009FA                     	
  3391                           l2959:
  3392  0009FA                     		movlw	8
  3393  0009FA  0E08               	movlb	0	; () banked
  3394  0009FC  0100               	xorwf	((_estado))&0ffh,w
  3395  0009FE  19F4               iorwf	((_estado+1))&0ffh,w
  3396  000A00  11F5               	btfss	status,2
  3397  000A02  A4D8               	goto	u2861
  3398  000A04  EF06  F005         	goto	u2860
  3399  000A08  EF08  F005         
  3400                           u2861:
  3401  000A0C                     	goto	l2971
  3402  000A0C  EF2B  F005         u2860:
  3403  000A10                     	
  3404                           l2961:; BSR set to: 0
  3405  000A10                     
  3406                           	btfsc	((c:3970)),c,0	;volatile
  3407  000A10  B082               	goto	u2871
  3408  000A12  EF0D  F005         	goto	u2870
  3409  000A16  EF0F  F005         u2871:
  3410  000A1A                     	goto	l2971
  3411  000A1A  EF2B  F005         u2870:
  3412  000A1E                     	
  3413                           l203:
  3414  000A1E                     	line	217
  3415                           ;comunica.c: 217:             PORTBbits.RB7 =1;
  3416                           	bsf	((c:3969)),c,7	;volatile
  3417  000A1E  8E81               	line	218
  3418                           ;comunica.c: 218:             PORTBbits.RB5 =1;
  3419                           	bsf	((c:3969)),c,5	;volatile
  3420  000A20  8A81               	line	219
  3421                           	
  3422                           l2963:
  3423  000A22                     ;comunica.c: 219:             sprintf(estadoMes, "Centrif.");
  3424                           		movlw	low(_estadoMes)
  3425  000A22  0E20               	movlb	0	; () banked
  3426  000A24  0100               	movwf	((sprintf@s))&0ffh
  3427  000A26  6FD7               	movlw	high(_estadoMes)
  3428  000A28  0E01               	movwf	((sprintf@s+1))&0ffh
  3429  000A2A  6FD8               
  3430                           		movlw	low(STR_10)
  3431  000A2C  0E0B               	movwf	((sprintf@fmt))&0ffh
  3432  000A2E  6FD9               	movlw	high(STR_10)
  3433  000A30  0E06               	movwf	((sprintf@fmt+1))&0ffh
  3434  000A32  6FDA               
  3435                           	call	_sprintf	;wreg free
  3436  000A34  EC5A  F014         	line	220
  3437                           ;comunica.c: 220:             tempo1();
  3438                           	call	_tempo1	;wreg free
  3439  000A38  ECCA  F012         	line	221
  3440                           	
  3441                           l2965:
  3442  000A3C                     ;comunica.c: 221:             TXREG = 8;
  3443                           	movlw	low(08h)
  3444  000A3C  0E08               	movwf	((c:4013)),c	;volatile
  3445  000A3E  6EAD               	line	222
  3446                           	
  3447                           l2967:
  3448  000A40                     ;comunica.c: 222:             estado = estado + 1;
  3449                           	movlw	low(01h)
  3450  000A40  0E01               	movlb	0	; () banked
  3451  000A42  0100               	addwf	((_estado))&0ffh,w
  3452  000A44  25F4               	movwf	((_estado))&0ffh
  3453  000A46  6FF4               	movlw	high(01h)
  3454  000A48  0E00               	addwfc	((_estado+1))&0ffh,w
  3455  000A4A  21F5               	movwf	1+((_estado))&0ffh
  3456  000A4C  6FF5               	line	223
  3457                           	
  3458                           l2969:; BSR set to: 0
  3459  000A4E                     
  3460                           ;comunica.c: 223:             escreve();
  3461                           	call	_escreve	;wreg free
  3462  000A4E  EC1D  F016         	line	224
  3463                           ;comunica.c: 224:         }else if((RCREG == '9') || (estado == 9)){
  3464                           	goto	l208
  3465  000A52  EF6A  F005         	
  3466                           l201:
  3467  000A56                     	
  3468                           l2971:
  3469  000A56                     		movlw	57
  3470  000A56  0E39               	xorwf	((c:4014)),c,w	;volatile
  3471  000A58  18AE               	btfsc	status,2
  3472  000A5A  B4D8               	goto	u2881
  3473  000A5C  EF32  F005         	goto	u2880
  3474  000A60  EF34  F005         
  3475                           u2881:
  3476  000A64                     	goto	l207
  3477  000A64  EF3F  F005         u2880:
  3478  000A68                     	
  3479                           l2973:
  3480  000A68                     		movlw	9
  3481  000A68  0E09               	movlb	0	; () banked
  3482  000A6A  0100               	xorwf	((_estado))&0ffh,w
  3483  000A6C  19F4               iorwf	((_estado+1))&0ffh,w
  3484  000A6E  11F5               	btfss	status,2
  3485  000A70  A4D8               	goto	u2891
  3486  000A72  EF3D  F005         	goto	u2890
  3487  000A76  EF3F  F005         
  3488                           u2891:
  3489  000A7A                     	goto	l208
  3490  000A7A  EF6A  F005         u2890:
  3491  000A7E                     	
  3492                           l207:
  3493  000A7E                     	line	225
  3494                           ;comunica.c: 225:             PORTBbits.RB7 =0;
  3495                           	bcf	((c:3969)),c,7	;volatile
  3496  000A7E  9E81               	line	226
  3497                           ;comunica.c: 226:             PORTBbits.RB5 =0;
  3498                           	bcf	((c:3969)),c,5	;volatile
  3499  000A80  9A81               	line	227
  3500                           ;comunica.c: 227:             PORTBbits.RB6 =0;
  3501                           	bcf	((c:3969)),c,6	;volatile
  3502  000A82  9C81               	line	228
  3503                           	
  3504                           l2975:
  3505  000A84                     ;comunica.c: 228:             estado = 0;
  3506                           	movlw	high(0)
  3507  000A84  0E00               	movlb	0	; () banked
  3508  000A86  0100               	movwf	((_estado+1))&0ffh
  3509  000A88  6FF5               	movlw	low(0)
  3510  000A8A  0E00               	movwf	((_estado))&0ffh
  3511  000A8C  6FF4               	line	229
  3512                           ;comunica.c: 229:             TXREG = 0;
  3513                           	movlw	low(0)
  3514  000A8E  0E00               	movwf	((c:4013)),c	;volatile
  3515  000A90  6EAD               	line	230
  3516                           	
  3517                           l2977:; BSR set to: 0
  3518  000A92                     
  3519                           ;comunica.c: 230:             sprintf(estadoMes, "Desligado");
  3520                           		movlw	low(_estadoMes)
  3521  000A92  0E20               	movwf	((sprintf@s))&0ffh
  3522  000A94  6FD7               	movlw	high(_estadoMes)
  3523  000A96  0E01               	movwf	((sprintf@s+1))&0ffh
  3524  000A98  6FD8               
  3525                           		movlw	low(STR_11)
  3526  000A9A  0E01               	movwf	((sprintf@fmt))&0ffh
  3527  000A9C  6FD9               	movlw	high(STR_11)
  3528  000A9E  0E06               	movwf	((sprintf@fmt+1))&0ffh
  3529  000AA0  6FDA               
  3530                           	call	_sprintf	;wreg free
  3531  000AA2  EC5A  F014         	line	231
  3532                           	
  3533                           l2979:
  3534  000AA6                     ;comunica.c: 231:             PORTBbits.RB0 = 0;
  3535                           	bcf	((c:3969)),c,0	;volatile
  3536  000AA6  9081               	line	232
  3537                           	
  3538                           l2981:
  3539  000AA8                     ;comunica.c: 232:             escreve();
  3540                           	call	_escreve	;wreg free
  3541  000AA8  EC1D  F016         	goto	l208
  3542  000AAC  EF6A  F005         	line	233
  3543                           ;comunica.c: 233:         }
  3544                           	
  3545                           l205:
  3546  000AB0                     	goto	l208
  3547  000AB0  EF6A  F005         	
  3548                           l204:
  3549  000AB4                     	goto	l208
  3550  000AB4  EF6A  F005         	
  3551                           l200:
  3552  000AB8                     	goto	l208
  3553  000AB8  EF6A  F005         	
  3554                           l196:
  3555  000ABC                     	goto	l208
  3556  000ABC  EF6A  F005         	
  3557                           l192:
  3558  000AC0                     	goto	l208
  3559  000AC0  EF6A  F005         	
  3560                           l188:
  3561  000AC4                     	goto	l208
  3562  000AC4  EF6A  F005         	
  3563                           l184:
  3564  000AC8                     	goto	l208
  3565  000AC8  EF6A  F005         	
  3566                           l180:
  3567  000ACC                     	goto	l208
  3568  000ACC  EF6A  F005         	
  3569                           l176:
  3570  000AD0                     	goto	l208
  3571  000AD0  EF6A  F005         	
  3572                           l172:
  3573  000AD4                     	line	237
  3574                           	
  3575                           l208:
  3576  000AD4                     	return	;funcret
  3577  000AD4  0012               	opt stack 0
  3578                           GLOBAL	__end_of_estadosMaquina
  3579                           	__end_of_estadosMaquina:
  3580  000AD6                     	signat	_estadosMaquina,89
  3581                           	global	_tempo1
  3582                           
  3583 ;; *************** function _tempo1 *****************
  3584 ;; Defined at:
  3585 ;;		line 120 in file "comunica.c"
  3586 ;; Parameters:    Size  Location     Type
  3587 ;;		None
  3588 ;; Auto vars:     Size  Location     Type
  3589 ;;		None
  3590 ;; Return value:  Size  Location     Type
  3591 ;;                  1    wreg      void 
  3592 ;; Registers used:
  3593 ;;		wreg, fsr1l, fsr1h, fsr2l, fsr2h, status,2, status,0, tblptrl, tblptrh, tblptru, cstack
  3594 ;; Tracked objects:
  3595 ;;		On entry : 0/0
  3596 ;;		On exit  : 0/0
  3597 ;;		Unchanged: 0/0
  3598 ;; Data sizes:     COMRAM   BANK0   BANK1   BANK2   BANK3   BANK4   BANK5
  3599 ;;      Params:         0       0       0       0       0       0       0
  3600 ;;      Locals:         0       0       0       0       0       0       0
  3601 ;;      Temps:          0       2       0       0       0       0       0
  3602 ;;      Totals:         0       2       0       0       0       0       0
  3603 ;;Total ram usage:        2 bytes
  3604 ;; Hardware stack levels used:    1
  3605 ;; Hardware stack levels required when called:   19
  3606 ;; This function calls:
  3607 ;;		_escreve2
  3608 ;;		_sprintf
  3609 ;; This function is called by:
  3610 ;;		_estadosMaquina
  3611 ;; This function uses a non-reentrant model
  3612 ;;
  3613                           psect	text3,class=CODE,space=0,reloc=2,group=0
  3614                           	line	120
  3615                           global __ptext3
  3616                           __ptext3:
  3617  002594                     psect	text3
  3618                           	file	"comunica.c"
  3619                           	line	120
  3620                           	global	__size_of_tempo1
  3621                           	__size_of_tempo1	equ	__end_of_tempo1-_tempo1
  3622  0000                     	
  3623                           _tempo1:
  3624  002594                     ;incstack = 0
  3625                           	opt	stack 10
  3626                           	line	122
  3627                           	
  3628                           l2721:
  3629  002594                     ;comunica.c: 122:     for(tempo=5;tempo>-1;tempo--)
  3630                           	movlw	high(05h)
  3631  002594  0E00               	movlb	0	; () banked
  3632  002596  0100               	movwf	((_tempo+1))&0ffh
  3633  002598  6FF7               	movlw	low(05h)
  3634  00259A  0E05               	movwf	((_tempo))&0ffh
  3635  00259C  6FF6               	
  3636                           l2723:; BSR set to: 0
  3637  00259E                     
  3638                           	btfsc	((_tempo+1))&0ffh,7
  3639  00259E  BFF7               	goto	u2600
  3640  0025A0  EFD6  F012         	goto	u2601
  3641  0025A4  EFD4  F012         
  3642                           u2601:
  3643  0025A8                     	goto	l2727
  3644  0025A8  EFDA  F012         u2600:
  3645  0025AC                     	goto	l166
  3646  0025AC  EF10  F013         	
  3647                           l2725:; BSR set to: 0
  3648  0025B0                     
  3649                           	goto	l166
  3650  0025B0  EF10  F013         	
  3651                           l163:; BSR set to: 0
  3652  0025B4                     
  3653                           	line	123
  3654                           	
  3655                           l2727:; BSR set to: 0
  3656  0025B4                     
  3657                           ;comunica.c: 123:     { if(estado!=0){
  3658                           	movf	((_estado))&0ffh,w
  3659  0025B4  51F4               iorwf	((_estado+1))&0ffh,w
  3660  0025B6  11F5               	btfsc	status,2
  3661  0025B8  B4D8               	goto	u2611
  3662  0025BA  EFE1  F012         	goto	u2610
  3663  0025BE  EFE3  F012         
  3664                           u2611:
  3665  0025C2                     	goto	l2735
  3666  0025C2  EF03  F013         u2610:
  3667  0025C6                     	line	124
  3668                           	
  3669                           l2729:; BSR set to: 0
  3670  0025C6                     
  3671                           ;comunica.c: 124:             _delay((unsigned long)((1000)*(4000000/4000.0)));
  3672                           	opt asmopt_push
  3673                           opt asmopt_off
  3674                           movlw  6
  3675  0025C6  0E06               	movlb	0	; () banked
  3676  0025C8  0100               movwf	(??_tempo1+0+0+1)&0ffh,f
  3677  0025CA  6FE8               movlw	19
  3678  0025CC  0E13               movwf	(??_tempo1+0+0)&0ffh,f
  3679  0025CE  6FE7               	movlw	173
  3680  0025D0  0EAD               u3427:
  3681  0025D2                     decfsz	wreg,f
  3682  0025D2  2EE8               	bra	u3427
  3683  0025D4  D7FE               	decfsz	(??_tempo1+0+0)&0ffh,f
  3684  0025D6  2FE7               	bra	u3427
  3685  0025D8  D7FC               	decfsz	(??_tempo1+0+0+1)&0ffh,f
  3686  0025DA  2FE8               	bra	u3427
  3687  0025DC  D7FA               	nop2
  3688  0025DE  D000               opt asmopt_pop
  3689                           
  3690                           	line	125
  3691                           	
  3692                           l2731:
  3693  0025E0                     ;comunica.c: 125:             sprintf(tempoDis, "%i", tempo);
  3694                           		movlw	low(_tempoDis)
  3695  0025E0  0EF8               	movlb	0	; () banked
  3696  0025E2  0100               	movwf	((sprintf@s))&0ffh
  3697  0025E4  6FD7               	movlw	high(_tempoDis)
  3698  0025E6  0E00               	movwf	((sprintf@s+1))&0ffh
  3699  0025E8  6FD8               
  3700                           		movlw	low(STR_1)
  3701  0025EA  0E41               	movwf	((sprintf@fmt))&0ffh
  3702  0025EC  6FD9               	movlw	high(STR_1)
  3703  0025EE  0E06               	movwf	((sprintf@fmt+1))&0ffh
  3704  0025F0  6FDA               
  3705                           	movff	(_tempo),0+(?_sprintf+04h)
  3706  0025F2  C0F6  F0DB         	movff	(_tempo+1),1+(?_sprintf+04h)
  3707  0025F6  C0F7  F0DC         	call	_sprintf	;wreg free
  3708  0025FA  EC5A  F014         	line	126
  3709                           	
  3710                           l2733:
  3711  0025FE                     ;comunica.c: 126:             escreve2();}
  3712                           	call	_escreve2	;wreg free
  3713  0025FE  EC58  F015         	goto	l2735
  3714  002602  EF03  F013         	
  3715                           l165:
  3716  002606                     	line	127
  3717                           	
  3718                           l2735:
  3719  002606                     ;comunica.c: 127:         }
  3720                           	movlb	0	; () banked
  3721  002606  0100               	decf	((_tempo))&0ffh
  3722  002608  07F6               	btfss	status,0
  3723  00260A  A0D8               	decf	((_tempo+1))&0ffh
  3724  00260C  07F7               	
  3725                           l2737:; BSR set to: 0
  3726  00260E                     
  3727                           	btfsc	((_tempo+1))&0ffh,7
  3728  00260E  BFF7               	goto	u2620
  3729  002610  EF0E  F013         	goto	u2621
  3730  002614  EF0C  F013         
  3731                           u2621:
  3732  002618                     	goto	l2727
  3733  002618  EFDA  F012         u2620:
  3734  00261C                     	goto	l166
  3735  00261C  EF10  F013         	
  3736                           l164:; BSR set to: 0
  3737  002620                     
  3738                           	line	128
  3739                           	
  3740                           l166:; BSR set to: 0
  3741  002620                     
  3742                           	return	;funcret
  3743  002620  0012               	opt stack 0
  3744                           GLOBAL	__end_of_tempo1
  3745                           	__end_of_tempo1:
  3746  002622                     	signat	_tempo1,89
  3747                           	global	_sprintf
  3748                           
  3749 ;; *************** function _sprintf *****************
  3750 ;; Defined at:
  3751 ;;		line 9 in file "E:\ProgramasWindowns\Microchip\xc8\v2.00\pic\sources\c99\common\nf_sprintf.c"
  3752 ;; Parameters:    Size  Location     Type
  3753 ;;  s               2   87[BANK0 ] PTR unsigned char 
  3754 ;;		 -> estadoMes(15), tempoDis(5), 
  3755 ;;  fmt             2   89[BANK0 ] PTR const unsigned char 
  3756 ;;		 -> STR_11(10), STR_10(9), STR_9(7), STR_8(7), 
  3757 ;;		 -> STR_7(9), STR_6(9), STR_5(7), STR_4(7), 
  3758 ;;		 -> STR_3(7), STR_2(10), STR_1(3), 
  3759 ;; Auto vars:     Size  Location     Type
  3760 ;;  f               6   97[BANK0 ] struct _IO_FILE
  3761 ;;  ap              2   95[BANK0 ] PTR void [1]
  3762 ;;		 -> ?_sprintf(2), 
  3763 ;;  ret             2   93[BANK0 ] int 
  3764 ;; Return value:  Size  Location     Type
  3765 ;;                  2   87[BANK0 ] int 
  3766 ;; Registers used:
  3767 ;;		wreg, fsr1l, fsr1h, fsr2l, fsr2h, status,2, status,0, tblptrl, tblptrh, tblptru, cstack
  3768 ;; Tracked objects:
  3769 ;;		On entry : 0/0
  3770 ;;		On exit  : 0/0
  3771 ;;		Unchanged: 0/0
  3772 ;; Data sizes:     COMRAM   BANK0   BANK1   BANK2   BANK3   BANK4   BANK5
  3773 ;;      Params:         0       6       0       0       0       0       0
  3774 ;;      Locals:         0      10       0       0       0       0       0
  3775 ;;      Temps:          0       0       0       0       0       0       0
  3776 ;;      Totals:         0      16       0       0       0       0       0
  3777 ;;Total ram usage:       16 bytes
  3778 ;; Hardware stack levels used:    1
  3779 ;; Hardware stack levels required when called:   18
  3780 ;; This function calls:
  3781 ;;		_vfprintf
  3782 ;; This function is called by:
  3783 ;;		_tempo1
  3784 ;;		_estadosMaquina
  3785 ;; This function uses a non-reentrant model
  3786 ;;
  3787                           psect	text4,class=CODE,space=0,reloc=2,group=2
  3788                           	file	"E:\ProgramasWindowns\Microchip\xc8\v2.00\pic\sources\c99\common\nf_sprintf.c"
  3789                           	line	9
  3790                           global __ptext4
  3791                           __ptext4:
  3792  0028B4                     psect	text4
  3793                           	file	"E:\ProgramasWindowns\Microchip\xc8\v2.00\pic\sources\c99\common\nf_sprintf.c"
  3794                           	line	9
  3795                           	global	__size_of_sprintf
  3796                           	__size_of_sprintf	equ	__end_of_sprintf-_sprintf
  3797  0000                     	
  3798                           _sprintf:; BSR set to: 0
  3799  0028B4                     
  3800                           ;incstack = 0
  3801                           	opt	stack 10
  3802                           	line	15
  3803                           	
  3804                           l2669:
  3805  0028B4                     		movlw	low(?_sprintf+04h)
  3806  0028B4  0EDB               	movlb	0	; () banked
  3807  0028B6  0100               	movwf	((sprintf@ap))&0ffh
  3808  0028B8  6FDF               	movlw	high(?_sprintf+04h)
  3809  0028BA  0E00               	movwf	((sprintf@ap+1))&0ffh
  3810  0028BC  6FE0               
  3811                           	line	16
  3812                           		movff	(sprintf@s),(sprintf@f)
  3813  0028BE  C0D7  F0E1         	movff	(sprintf@s+1),(sprintf@f+1)
  3814  0028C2  C0D8  F0E2         
  3815                           	line	17
  3816                           	
  3817                           l2671:; BSR set to: 0
  3818  0028C6                     
  3819                           	movlw	high(0)
  3820  0028C6  0E00               	movwf	(1+(sprintf@f+02h))&0ffh
  3821  0028C8  6FE4               	movlw	low(0)
  3822  0028CA  0E00               	movwf	(0+(sprintf@f+02h))&0ffh
  3823  0028CC  6FE3               	line	18
  3824                           	
  3825                           l2673:; BSR set to: 0
  3826  0028CE                     
  3827                           	movlw	high(0)
  3828  0028CE  0E00               	movwf	(1+(sprintf@f+04h))&0ffh
  3829  0028D0  6FE6               	movlw	low(0)
  3830  0028D2  0E00               	movwf	(0+(sprintf@f+04h))&0ffh
  3831  0028D4  6FE5               	line	19
  3832                           	
  3833                           l2675:; BSR set to: 0
  3834  0028D6                     
  3835                           		movlw	low(sprintf@f)
  3836  0028D6  0EE1               	movwf	((vfprintf@fp))&0ffh
  3837  0028D8  6FCF               	movlw	high(sprintf@f)
  3838  0028DA  0E00               	movwf	((vfprintf@fp+1))&0ffh
  3839  0028DC  6FD0               
  3840                           		movff	(sprintf@fmt),(vfprintf@fmt)
  3841  0028DE  C0D9  F0D1         	movff	(sprintf@fmt+1),(vfprintf@fmt+1)
  3842  0028E2  C0DA  F0D2         
  3843                           		movlw	low(sprintf@ap)
  3844  0028E6  0EDF               	movwf	((vfprintf@ap))&0ffh
  3845  0028E8  6FD3               	movlw	high(sprintf@ap)
  3846  0028EA  0E00               	movwf	((vfprintf@ap+1))&0ffh
  3847  0028EC  6FD4               
  3848                           	call	_vfprintf	;wreg free
  3849  0028EE  ECF4  F013         	movff	0+?_vfprintf,(sprintf@ret)
  3850  0028F2  C0CF  F0DD         	movff	1+?_vfprintf,(sprintf@ret+1)
  3851  0028F6  C0D0  F0DE         	line	20
  3852                           	
  3853                           l2677:
  3854  0028FA                     	movlb	0	; () banked
  3855  0028FA  0100               	movf	(0+(sprintf@f+02h))&0ffh,w
  3856  0028FC  51E3               	addwf	((sprintf@s))&0ffh,w
  3857  0028FE  25D7               	movwf	c:fsr2l
  3858  002900  6ED9               	movf	(1+(sprintf@f+02h))&0ffh,w
  3859  002902  51E4               	addwfc	((sprintf@s+1))&0ffh,w
  3860  002904  21D8               	movwf	1+c:fsr2l
  3861  002906  6EDA               	movlw	low(0)
  3862  002908  0E00               	movwf	indf2
  3863  00290A  6EDF               	goto	l994
  3864  00290C  EF88  F014         	line	22
  3865                           	
  3866                           l2679:; BSR set to: 0
  3867  002910                     
  3868                           	line	23
  3869                           ;	Return value of _sprintf is never used
  3870                           	
  3871                           l994:; BSR set to: 0
  3872  002910                     
  3873                           	return	;funcret
  3874  002910  0012               	opt stack 0
  3875                           GLOBAL	__end_of_sprintf
  3876                           	__end_of_sprintf:
  3877  002912                     	signat	_sprintf,4698
  3878                           	global	_vfprintf
  3879                           
  3880 ;; *************** function _vfprintf *****************
  3881 ;; Defined at:
  3882 ;;		line 1368 in file "E:\ProgramasWindowns\Microchip\xc8\v2.00\pic\sources\c99\common\doprnt.c"
  3883 ;; Parameters:    Size  Location     Type
  3884 ;;  fp              2   79[BANK0 ] PTR struct _IO_FILE
  3885 ;;		 -> sprintf@f(6), 
  3886 ;;  fmt             2   81[BANK0 ] PTR const unsigned char 
  3887 ;;		 -> STR_11(10), STR_10(9), STR_9(7), STR_8(7), 
  3888 ;;		 -> STR_7(9), STR_6(9), STR_5(7), STR_4(7), 
  3889 ;;		 -> STR_3(7), STR_2(10), STR_1(3), 
  3890 ;;  ap              2   83[BANK0 ] PTR PTR void 
  3891 ;;		 -> sprintf@ap(2), 
  3892 ;; Auto vars:     Size  Location     Type
  3893 ;;  cfmt            2   85[BANK0 ] PTR unsigned char 
  3894 ;;		 -> STR_11(10), STR_10(9), STR_9(7), STR_8(7), 
  3895 ;;		 -> STR_7(9), STR_6(9), STR_5(7), STR_4(7), 
  3896 ;;		 -> STR_3(7), STR_2(10), STR_1(3), 
  3897 ;; Return value:  Size  Location     Type
  3898 ;;                  2   79[BANK0 ] int 
  3899 ;; Registers used:
  3900 ;;		wreg, fsr1l, fsr1h, fsr2l, fsr2h, status,2, status,0, tblptrl, tblptrh, tblptru, cstack
  3901 ;; Tracked objects:
  3902 ;;		On entry : 0/0
  3903 ;;		On exit  : 0/0
  3904 ;;		Unchanged: 0/0
  3905 ;; Data sizes:     COMRAM   BANK0   BANK1   BANK2   BANK3   BANK4   BANK5
  3906 ;;      Params:         0       6       0       0       0       0       0
  3907 ;;      Locals:         0       2       0       0       0       0       0
  3908 ;;      Temps:          0       0       0       0       0       0       0
  3909 ;;      Totals:         0       8       0       0       0       0       0
  3910 ;;Total ram usage:        8 bytes
  3911 ;; Hardware stack levels used:    1
  3912 ;; Hardware stack levels required when called:   17
  3913 ;; This function calls:
  3914 ;;		_vfpfcnvrt
  3915 ;; This function is called by:
  3916 ;;		_sprintf
  3917 ;; This function uses a non-reentrant model
  3918 ;;
  3919                           psect	text5,class=CODE,space=0,reloc=2,group=0
  3920                           	file	"E:\ProgramasWindowns\Microchip\xc8\v2.00\pic\sources\c99\common\doprnt.c"
  3921                           	line	1368
  3922                           global __ptext5
  3923                           __ptext5:
  3924  0027E8                     psect	text5
  3925                           	file	"E:\ProgramasWindowns\Microchip\xc8\v2.00\pic\sources\c99\common\doprnt.c"
  3926                           	line	1368
  3927                           	global	__size_of_vfprintf
  3928                           	__size_of_vfprintf	equ	__end_of_vfprintf-_vfprintf
  3929  0000                     	
  3930                           _vfprintf:; BSR set to: 0
  3931  0027E8                     
  3932                           ;incstack = 0
  3933                           	opt	stack 10
  3934                           	line	1373
  3935                           	
  3936                           l2635:
  3937  0027E8                     ;E:\ProgramasWindowns\Microchip\xc8\v2.00\pic\sources\c99\common\doprnt.c: 1368: int vfp
                                 rintf(FILE *fp, const char *fmt, va_list ap);E:\ProgramasWindowns\Microchip\xc8\v2.00\pi
                                 c\sources\c99\common\doprnt.c: 1369: {;E:\ProgramasWindowns\Microchip\xc8\v2.00\pic\sour
                                 ces\c99\common\doprnt.c: 1371:     char *cfmt;;E:\ProgramasWindowns\Microchip\xc8\v2.00\
                                 pic\sources\c99\common\doprnt.c: 1373:     cfmt = (char *)fmt;
  3938                           		movff	(vfprintf@fmt),(vfprintf@cfmt)
  3939  0027E8  C0D1  F0D5         	movff	(vfprintf@fmt+1),(vfprintf@cfmt+1)
  3940  0027EC  C0D2  F0D6         
  3941                           	line	1374
  3942                           	
  3943                           l2637:
  3944  0027F0                     ;E:\ProgramasWindowns\Microchip\xc8\v2.00\pic\sources\c99\common\doprnt.c: 1374:     nou
                                 t = 0;
  3945                           	movlw	high(0)
  3946  0027F0  0E00               	movlb	0	; () banked
  3947  0027F2  0100               	movwf	((_nout+1))&0ffh
  3948  0027F4  6FED               	movlw	low(0)
  3949  0027F6  0E00               	movwf	((_nout))&0ffh
  3950  0027F8  6FEC               	line	1375
  3951                           ;E:\ProgramasWindowns\Microchip\xc8\v2.00\pic\sources\c99\common\doprnt.c: 1375:     whi
                                 le (*cfmt) {
  3952                           	goto	l2641
  3953  0027FA  EF14  F014         	
  3954                           l284:; BSR set to: 0
  3955  0027FE                     
  3956                           	line	1376
  3957                           	
  3958                           l2639:; BSR set to: 0
  3959  0027FE                     
  3960                           ;E:\ProgramasWindowns\Microchip\xc8\v2.00\pic\sources\c99\common\doprnt.c: 1376:        
                                  nout += vfpfcnvrt(fp, &cfmt, ap);
  3961                           		movff	(vfprintf@fp),(vfpfcnvrt@fp)
  3962  0027FE  C0CF  F0BF         	movff	(vfprintf@fp+1),(vfpfcnvrt@fp+1)
  3963  002802  C0D0  F0C0         
  3964                           		movlw	low(vfprintf@cfmt)
  3965  002806  0ED5               	movwf	((vfpfcnvrt@fmt))&0ffh
  3966  002808  6FC1               	movlw	high(vfprintf@cfmt)
  3967  00280A  0E00               	movwf	((vfpfcnvrt@fmt+1))&0ffh
  3968  00280C  6FC2               
  3969                           		movff	(vfprintf@ap),(vfpfcnvrt@ap)
  3970  00280E  C0D3  F0C3         	movff	(vfprintf@ap+1),(vfpfcnvrt@ap+1)
  3971  002812  C0D4  F0C4         
  3972                           	call	_vfpfcnvrt	;wreg free
  3973  002816  ECBE  F00A         	movlb	0	; () banked
  3974  00281A  0100               	movf	(0+?_vfpfcnvrt)&0ffh,w
  3975  00281C  51BF               	addwf	((_nout))&0ffh
  3976  00281E  27EC               	movf	(1+?_vfpfcnvrt)&0ffh,w
  3977  002820  51C0               	addwfc	((_nout+1))&0ffh
  3978  002822  23ED               
  3979                           	goto	l2641
  3980  002824  EF14  F014         	line	1377
  3981                           ;E:\ProgramasWindowns\Microchip\xc8\v2.00\pic\sources\c99\common\doprnt.c: 1377:     }
  3982                           	
  3983                           l283:; BSR set to: 0
  3984  002828                     
  3985                           	line	1375
  3986                           	
  3987                           l2641:; BSR set to: 0
  3988  002828                     
  3989                           ;E:\ProgramasWindowns\Microchip\xc8\v2.00\pic\sources\c99\common\doprnt.c: 1375:     whi
                                 le (*cfmt) {
  3990                           	movff	(vfprintf@cfmt),tblptrl
  3991  002828  C0D5  FFF6         	movff	(vfprintf@cfmt+1),tblptrh
  3992  00282C  C0D6  FFF7         	if	0	;tblptru may be non-zero
  3993  002830                     	clrf	tblptru
  3995  002830                     	if	0	;tblptru may be non-zero
  3996  002830                     	global __mediumconst
  3997                           movlw	low highword(__mediumconst)
  4000  002830                     	tblrd	*
  4001  002830  0008               	
  4002                           	movf	tablat,w
  4003  002832  50F5               	iorlw	0
  4004  002834  0900               	btfss	status,2
  4005  002836  A4D8               	goto	u2551
  4006  002838  EF20  F014         	goto	u2550
  4007  00283C  EF22  F014         u2551:
  4008  002840                     	goto	l2639
  4009  002840  EFFF  F013         u2550:
  4010  002844                     	
  4011                           l285:; BSR set to: 0
  4012  002844                     
  4013                           	line	1378
  4014                           ;E:\ProgramasWindowns\Microchip\xc8\v2.00\pic\sources\c99\common\doprnt.c: 1378:     ret
                                 urn nout;
  4015                           	movff	(_nout),(?_vfprintf)
  4016  002844  C0EC  F0CF         	movff	(_nout+1),(?_vfprintf+1)
  4017  002848  C0ED  F0D0         	line	1382
  4018                           	
  4019                           l286:; BSR set to: 0
  4020  00284C                     
  4021                           	return	;funcret
  4022  00284C  0012               	opt stack 0
  4023                           GLOBAL	__end_of_vfprintf
  4024                           	__end_of_vfprintf:
  4025  00284E                     	signat	_vfprintf,12410
  4026                           	global	_vfpfcnvrt
  4027                           
  4028 ;; *************** function _vfpfcnvrt *****************
  4029 ;; Defined at:
  4030 ;;		line 670 in file "E:\ProgramasWindowns\Microchip\xc8\v2.00\pic\sources\c99\common\doprnt.c"
  4031 ;; Parameters:    Size  Location     Type
  4032 ;;  fp              2   63[BANK0 ] PTR struct _IO_FILE
  4033 ;;		 -> sprintf@f(6), 
  4034 ;;  fmt             2   65[BANK0 ] PTR PTR unsigned char 
  4035 ;;		 -> vfprintf@cfmt(2), 
  4036 ;;  ap              2   67[BANK0 ] PTR PTR void 
  4037 ;;		 -> sprintf@ap(2), 
  4038 ;; Auto vars:     Size  Location     Type
  4039 ;;  ll              8   71[BANK0 ] long long 
  4040 ;;  llu             8    0        unsigned long long 
  4041 ;;  f               4    0        unsigned long long 
  4042 ;;  vp              3    0        PTR void 
  4043 ;;  ct              3    0        unsigned char [3]
  4044 ;;  cp              3    0        PTR unsigned char 
  4045 ;;  i               2    0        int 
  4046 ;;  done            2    0        int 
  4047 ;;  c               1    0        unsigned char 
  4048 ;; Return value:  Size  Location     Type
  4049 ;;                  2   63[BANK0 ] int 
  4050 ;; Registers used:
  4051 ;;		wreg, fsr1l, fsr1h, fsr2l, fsr2h, status,2, status,0, tblptrl, tblptrh, tblptru, cstack
  4052 ;; Tracked objects:
  4053 ;;		On entry : 0/0
  4054 ;;		On exit  : 0/0
  4055 ;;		Unchanged: 0/0
  4056 ;; Data sizes:     COMRAM   BANK0   BANK1   BANK2   BANK3   BANK4   BANK5
  4057 ;;      Params:         0       6       0       0       0       0       0
  4058 ;;      Locals:         0       8       0       0       0       0       0
  4059 ;;      Temps:          0       2       0       0       0       0       0
  4060 ;;      Totals:         0      16       0       0       0       0       0
  4061 ;;Total ram usage:       16 bytes
  4062 ;; Hardware stack levels used:    1
  4063 ;; Hardware stack levels required when called:   16
  4064 ;; This function calls:
  4065 ;;		_dtoa
  4066 ;;		_fputc
  4067 ;; This function is called by:
  4068 ;;		_vfprintf
  4069 ;; This function uses a non-reentrant model
  4070 ;;
  4071                           psect	text6,class=CODE,space=0,reloc=2,group=0
  4072                           	line	670
  4073                           global __ptext6
  4074                           __ptext6:
  4075  00157C                     psect	text6
  4076                           	file	"E:\ProgramasWindowns\Microchip\xc8\v2.00\pic\sources\c99\common\doprnt.c"
  4077                           	line	670
  4078                           	global	__size_of_vfpfcnvrt
  4079                           	__size_of_vfpfcnvrt	equ	__end_of_vfpfcnvrt-_vfpfcnvrt
  4080  0000                     	
  4081                           _vfpfcnvrt:; BSR set to: 0
  4082  00157C                     
  4083                           ;incstack = 0
  4084                           	opt	stack 10
  4085                           	line	680
  4086                           	
  4087                           l2525:
  4088  00157C                     ;E:\ProgramasWindowns\Microchip\xc8\v2.00\pic\sources\c99\common\doprnt.c: 670: static i
                                 nt vfpfcnvrt(FILE *fp, char *fmt[], va_list ap);E:\ProgramasWindowns\Microchip\xc8\v2.00
                                 \pic\sources\c99\common\doprnt.c: 671: {;E:\ProgramasWindowns\Microchip\xc8\v2.00\pic\so
                                 urces\c99\common\doprnt.c: 672:     char c, *cp, ct[3];;E:\ProgramasWindowns\Microchip\x
                                 c8\v2.00\pic\sources\c99\common\doprnt.c: 673:     int done, i;;E:\ProgramasWindowns\Mic
                                 rochip\xc8\v2.00\pic\sources\c99\common\doprnt.c: 674:     long long ll;
  4089                           	movff	(vfpfcnvrt@fmt),fsr2l
  4090  00157C  C0C1  FFD9         	movff	(vfpfcnvrt@fmt+1),fsr2h
  4091  001580  C0C2  FFDA         	movff	postinc2,tblptrl
  4092  001584  CFDE FFF6          	movff	postdec2,tblptrh
  4093  001588  CFDD FFF7          	if	0	;tblptru may be non-zero
  4094  00158C                     	clrf	tblptru
  4096  00158C                     	if	0	;tblptru may be non-zero
  4097  00158C                     	global __mediumconst
  4098                           movlw	low highword(__mediumconst)
  4101  00158C                     	tblrd	*
  4102  00158C  0008               	
  4103                           	movf	tablat,w
  4104  00158E  50F5               	xorlw	025h
  4105  001590  0A25               	btfss	status,2
  4106  001592  A4D8               	goto	u2441
  4107  001594  EFCE  F00A         	goto	u2440
  4108  001598  EFD0  F00A         u2441:
  4109  00159C                     	goto	l2559
  4110  00159C  EF87  F00B         u2440:
  4111  0015A0                     	line	681
  4112                           	
  4113                           l2527:
  4114  0015A0                     ;E:\ProgramasWindowns\Microchip\xc8\v2.00\pic\sources\c99\common\doprnt.c: 681:         
                                 ++*fmt;
  4115                           	movff	(vfpfcnvrt@fmt),fsr2l
  4116  0015A0  C0C1  FFD9         	movff	(vfpfcnvrt@fmt+1),fsr2h
  4117  0015A4  C0C2  FFDA         	incf	postinc2
  4118  0015A8  2ADE               	movlw	0
  4119  0015AA  0E00               	addwfc	postdec2
  4120  0015AC  22DD               	line	683
  4121                           	
  4122                           l2529:
  4123  0015AE                     ;E:\ProgramasWindowns\Microchip\xc8\v2.00\pic\sources\c99\common\doprnt.c: 683:         
                                 flags = width = 0;
  4124                           	movlw	high(0)
  4125  0015AE  0E00               	movlb	0	; () banked
  4126  0015B0  0100               	movwf	((_width+1))&0ffh
  4127  0015B2  6FEF               	movlw	low(0)
  4128  0015B4  0E00               	movwf	((_width))&0ffh
  4129  0015B6  6FEE               	movff	(_width),(_flags)
  4130  0015B8  C0EE  F0F2         	movff	(_width+1),(_flags+1)
  4131  0015BC  C0EF  F0F3         	line	684
  4132                           	
  4133                           l2531:; BSR set to: 0
  4134  0015C0                     
  4135                           ;E:\ProgramasWindowns\Microchip\xc8\v2.00\pic\sources\c99\common\doprnt.c: 684:         
                                 prec = -1;
  4136                           	setf	((_prec))&0ffh
  4137  0015C0  69F0               	setf	((_prec+1))&0ffh
  4138  0015C2  69F1               	line	825
  4139                           	
  4140                           l2533:; BSR set to: 0
  4141  0015C4                     
  4142                           ;E:\ProgramasWindowns\Microchip\xc8\v2.00\pic\sources\c99\common\doprnt.c: 825:         
                                 if ((*fmt[0] == 'd') || (*fmt[0] == 'i')) {
  4143                           	movff	(vfpfcnvrt@fmt),fsr2l
  4144  0015C4  C0C1  FFD9         	movff	(vfpfcnvrt@fmt+1),fsr2h
  4145  0015C8  C0C2  FFDA         	movff	postinc2,tblptrl
  4146  0015CC  CFDE FFF6          	movff	postdec2,tblptrh
  4147  0015D0  CFDD FFF7          	if	0	;tblptru may be non-zero
  4148  0015D4                     	clrf	tblptru
  4150  0015D4                     	if	0	;tblptru may be non-zero
  4151  0015D4                     	global __mediumconst
  4152                           movlw	low highword(__mediumconst)
  4155  0015D4                     	tblrd	*
  4156  0015D4  0008               	
  4157                           	movf	tablat,w
  4158  0015D6  50F5               	xorlw	064h
  4159  0015D8  0A64               	btfsc	status,2
  4160  0015DA  B4D8               	goto	u2451
  4161  0015DC  EFF2  F00A         	goto	u2450
  4162  0015E0  EFF4  F00A         u2451:
  4163  0015E4                     	goto	l2537
  4164  0015E4  EF08  F00B         u2450:
  4165  0015E8                     	
  4166                           l2535:; BSR set to: 0
  4167  0015E8                     
  4168                           	movff	(vfpfcnvrt@fmt),fsr2l
  4169  0015E8  C0C1  FFD9         	movff	(vfpfcnvrt@fmt+1),fsr2h
  4170  0015EC  C0C2  FFDA         	movff	postinc2,tblptrl
  4171  0015F0  CFDE FFF6          	movff	postdec2,tblptrh
  4172  0015F4  CFDD FFF7          	if	0	;tblptru may be non-zero
  4173  0015F8                     	clrf	tblptru
  4175  0015F8                     	if	0	;tblptru may be non-zero
  4176  0015F8                     	global __mediumconst
  4177                           movlw	low highword(__mediumconst)
  4180  0015F8                     	tblrd	*
  4181  0015F8  0008               	
  4182                           	movf	tablat,w
  4183  0015FA  50F5               	xorlw	069h
  4184  0015FC  0A69               	btfss	status,2
  4185  0015FE  A4D8               	goto	u2461
  4186  001600  EF04  F00B         	goto	u2460
  4187  001604  EF06  F00B         u2461:
  4188  001608                     	goto	l2543
  4189  001608  EF4A  F00B         u2460:
  4190  00160C                     	goto	l2537
  4191  00160C  EF08  F00B         	
  4192                           l278:; BSR set to: 0
  4193  001610                     
  4194                           	line	827
  4195                           	
  4196                           l2537:; BSR set to: 0
  4197  001610                     
  4198                           ;E:\ProgramasWindowns\Microchip\xc8\v2.00\pic\sources\c99\common\doprnt.c: 827:         
                                     ++*fmt;
  4199                           	movff	(vfpfcnvrt@fmt),fsr2l
  4200  001610  C0C1  FFD9         	movff	(vfpfcnvrt@fmt+1),fsr2h
  4201  001614  C0C2  FFDA         	incf	postinc2
  4202  001618  2ADE               	movlw	0
  4203  00161A  0E00               	addwfc	postdec2
  4204  00161C  22DD               	line	828
  4205                           ;E:\ProgramasWindowns\Microchip\xc8\v2.00\pic\sources\c99\common\doprnt.c: 828:         
                                     ll = (long long)(*(int *)__va_arg(*(int **)ap, (int)0));
  4206                           	movff	(vfpfcnvrt@ap),fsr2l
  4207  00161E  C0C3  FFD9         	movff	(vfpfcnvrt@ap+1),fsr2h
  4208  001622  C0C4  FFDA         	movff	indf2,??_vfpfcnvrt+0+0
  4209  001626  CFDF F0C5          	movlw	low(02h)
  4210  00162A  0E02               	addwf	postinc2
  4211  00162C  26DE               	movff	indf2,??_vfpfcnvrt+0+0+1
  4212  00162E  CFDF F0C6          	movlw	high(02h)
  4213  001632  0E00               	addwfc	postdec2
  4214  001634  22DD               	movff	??_vfpfcnvrt+0+0,fsr2l
  4215  001636  C0C5  FFD9         	movff	??_vfpfcnvrt+0+1,fsr2h
  4216  00163A  C0C6  FFDA         	movff	postinc2,(vfpfcnvrt@ll)
  4217  00163E  CFDE F0C7          	movff	postdec2,(vfpfcnvrt@ll+1)
  4218  001642  CFDD F0C8          	movlw	0
  4219  001646  0E00               	btfsc	((vfpfcnvrt@ll+1))&0ffh,7
  4220  001648  BFC8               	movlw	-1
  4221  00164A  0EFF               	movwf	((vfpfcnvrt@ll+2))&0ffh
  4222  00164C  6FC9               	movwf	((vfpfcnvrt@ll+3))&0ffh
  4223  00164E  6FCA               	movwf	((vfpfcnvrt@ll+4))&0ffh
  4224  001650  6FCB               	movwf	((vfpfcnvrt@ll+5))&0ffh
  4225  001652  6FCC               	movwf	((vfpfcnvrt@ll+6))&0ffh
  4226  001654  6FCD               	movwf	((vfpfcnvrt@ll+7))&0ffh
  4227  001656  6FCE               	line	830
  4228                           	
  4229                           l2539:; BSR set to: 0
  4230  001658                     
  4231                           ;E:\ProgramasWindowns\Microchip\xc8\v2.00\pic\sources\c99\common\doprnt.c: 830:         
                                     return dtoa(fp, ll);
  4232                           		movff	(vfpfcnvrt@fp),(dtoa@fp)
  4233  001658  C0BF  F09B         	movff	(vfpfcnvrt@fp+1),(dtoa@fp+1)
  4234  00165C  C0C0  F09C         
  4235                           	movff	(vfpfcnvrt@ll),(dtoa@d)
  4236  001660  C0C7  F09D         	movff	(vfpfcnvrt@ll+1),(dtoa@d+1)
  4237  001664  C0C8  F09E         	movff	(vfpfcnvrt@ll+2),(dtoa@d+2)
  4238  001668  C0C9  F09F         	movff	(vfpfcnvrt@ll+3),(dtoa@d+3)
  4239  00166C  C0CA  F0A0         	movff	(vfpfcnvrt@ll+4),(dtoa@d+4)
  4240  001670  C0CB  F0A1         	movff	(vfpfcnvrt@ll+5),(dtoa@d+5)
  4241  001674  C0CC  F0A2         	movff	(vfpfcnvrt@ll+6),(dtoa@d+6)
  4242  001678  C0CD  F0A3         	movff	(vfpfcnvrt@ll+7),(dtoa@d+7)
  4243  00167C  C0CE  F0A4         	call	_dtoa	;wreg free
  4244  001680  ECA0  F007         	movff	0+?_dtoa,(?_vfpfcnvrt)
  4245  001684  C09B  F0BF         	movff	1+?_dtoa,(?_vfpfcnvrt+1)
  4246  001688  C09C  F0C0         	goto	l279
  4247  00168C  EFA8  F00B         	
  4248                           l2541:
  4249  001690                     	goto	l279
  4250  001690  EFA8  F00B         	line	831
  4251                           ;E:\ProgramasWindowns\Microchip\xc8\v2.00\pic\sources\c99\common\doprnt.c: 831:         
                                 }
  4252                           	
  4253                           l276:
  4254  001694                     	line	1350
  4255                           	
  4256                           l2543:
  4257  001694                     ;E:\ProgramasWindowns\Microchip\xc8\v2.00\pic\sources\c99\common\doprnt.c: 1350:        
                                  if ((*fmt)[0] == '%') {
  4258                           	movff	(vfpfcnvrt@fmt),fsr2l
  4259  001694  C0C1  FFD9         	movff	(vfpfcnvrt@fmt+1),fsr2h
  4260  001698  C0C2  FFDA         	movff	postinc2,tblptrl
  4261  00169C  CFDE FFF6          	movff	postdec2,tblptrh
  4262  0016A0  CFDD FFF7          	if	0	;tblptru may be non-zero
  4263  0016A4                     	clrf	tblptru
  4265  0016A4                     	if	0	;tblptru may be non-zero
  4266  0016A4                     	global __mediumconst
  4267                           movlw	low highword(__mediumconst)
  4270  0016A4                     	tblrd	*
  4271  0016A4  0008               	
  4272                           	movf	tablat,w
  4273  0016A6  50F5               	xorlw	025h
  4274  0016A8  0A25               	btfss	status,2
  4275  0016AA  A4D8               	goto	u2471
  4276  0016AC  EF5A  F00B         	goto	u2470
  4277  0016B0  EF5C  F00B         u2471:
  4278  0016B4                     	goto	l2553
  4279  0016B4  EF77  F00B         u2470:
  4280  0016B8                     	line	1351
  4281                           	
  4282                           l2545:
  4283  0016B8                     ;E:\ProgramasWindowns\Microchip\xc8\v2.00\pic\sources\c99\common\doprnt.c: 1351:        
                                      ++*fmt;
  4284                           	movff	(vfpfcnvrt@fmt),fsr2l
  4285  0016B8  C0C1  FFD9         	movff	(vfpfcnvrt@fmt+1),fsr2h
  4286  0016BC  C0C2  FFDA         	incf	postinc2
  4287  0016C0  2ADE               	movlw	0
  4288  0016C2  0E00               	addwfc	postdec2
  4289  0016C4  22DD               	line	1352
  4290                           	
  4291                           l2547:
  4292  0016C6                     ;E:\ProgramasWindowns\Microchip\xc8\v2.00\pic\sources\c99\common\doprnt.c: 1352:        
                                      fputc((int)'%', fp);
  4293                           	movlw	high(025h)
  4294  0016C6  0E00               	movlb	0	; () banked
  4295  0016C8  0100               	movwf	((fputc@c+1))&0ffh
  4296  0016CA  6F81               	movlw	low(025h)
  4297  0016CC  0E25               	movwf	((fputc@c))&0ffh
  4298  0016CE  6F80               		movff	(vfpfcnvrt@fp),(fputc@fp)
  4299  0016D0  C0BF  F082         	movff	(vfpfcnvrt@fp+1),(fputc@fp+1)
  4300  0016D4  C0C0  F083         
  4301                           	call	_fputc	;wreg free
  4302  0016D8  EC12  F011         	line	1353
  4303                           	
  4304                           l2549:
  4305  0016DC                     ;E:\ProgramasWindowns\Microchip\xc8\v2.00\pic\sources\c99\common\doprnt.c: 1353:        
                                      return 1;
  4306                           	movlw	high(01h)
  4307  0016DC  0E00               	movlb	0	; () banked
  4308  0016DE  0100               	movwf	((?_vfpfcnvrt+1))&0ffh
  4309  0016E0  6FC0               	movlw	low(01h)
  4310  0016E2  0E01               	movwf	((?_vfpfcnvrt))&0ffh
  4311  0016E4  6FBF               	goto	l279
  4312  0016E6  EFA8  F00B         	
  4313                           l2551:; BSR set to: 0
  4314  0016EA                     
  4315                           	goto	l279
  4316  0016EA  EFA8  F00B         	line	1354
  4317                           ;E:\ProgramasWindowns\Microchip\xc8\v2.00\pic\sources\c99\common\doprnt.c: 1354:        
                                  }
  4318                           	
  4319                           l280:; BSR set to: 0
  4320  0016EE                     
  4321                           	line	1357
  4322                           	
  4323                           l2553:
  4324  0016EE                     ;E:\ProgramasWindowns\Microchip\xc8\v2.00\pic\sources\c99\common\doprnt.c: 1357:        
                                  ++*fmt;
  4325                           	movff	(vfpfcnvrt@fmt),fsr2l
  4326  0016EE  C0C1  FFD9         	movff	(vfpfcnvrt@fmt+1),fsr2h
  4327  0016F2  C0C2  FFDA         	incf	postinc2
  4328  0016F6  2ADE               	movlw	0
  4329  0016F8  0E00               	addwfc	postdec2
  4330  0016FA  22DD               	line	1358
  4331                           	
  4332                           l2555:
  4333  0016FC                     ;E:\ProgramasWindowns\Microchip\xc8\v2.00\pic\sources\c99\common\doprnt.c: 1358:        
                                  return 0;
  4334                           	movlw	high(0)
  4335  0016FC  0E00               	movlb	0	; () banked
  4336  0016FE  0100               	movwf	((?_vfpfcnvrt+1))&0ffh
  4337  001700  6FC0               	movlw	low(0)
  4338  001702  0E00               	movwf	((?_vfpfcnvrt))&0ffh
  4339  001704  6FBF               	goto	l279
  4340  001706  EFA8  F00B         	
  4341                           l2557:; BSR set to: 0
  4342  00170A                     
  4343                           	goto	l279
  4344  00170A  EFA8  F00B         	line	1359
  4345                           ;E:\ProgramasWindowns\Microchip\xc8\v2.00\pic\sources\c99\common\doprnt.c: 1359:     }
  4346                           	
  4347                           l275:; BSR set to: 0
  4348  00170E                     
  4349                           	line	1362
  4350                           	
  4351                           l2559:
  4352  00170E                     ;E:\ProgramasWindowns\Microchip\xc8\v2.00\pic\sources\c99\common\doprnt.c: 1362:     fpu
                                 tc((int)(*fmt)[0], fp);
  4353                           	movff	(vfpfcnvrt@fmt),fsr2l
  4354  00170E  C0C1  FFD9         	movff	(vfpfcnvrt@fmt+1),fsr2h
  4355  001712  C0C2  FFDA         	movff	postinc2,tblptrl
  4356  001716  CFDE FFF6          	movff	postdec2,tblptrh
  4357  00171A  CFDD FFF7          	if	0	;tblptru may be non-zero
  4358  00171E                     	clrf	tblptru
  4360  00171E                     	if	0	;tblptru may be non-zero
  4361  00171E                     	global __mediumconst
  4362                           movlw	low highword(__mediumconst)
  4365  00171E                     	tblrd	*
  4366  00171E  0008               	
  4367                           	movf	tablat,w
  4368  001720  50F5               
  4369                           	movlb	0	; () banked
  4370  001722  0100               	movwf	((fputc@c))&0ffh
  4371  001724  6F80               	clrf	((fputc@c+1))&0ffh
  4372  001726  6B81               		movff	(vfpfcnvrt@fp),(fputc@fp)
  4373  001728  C0BF  F082         	movff	(vfpfcnvrt@fp+1),(fputc@fp+1)
  4374  00172C  C0C0  F083         
  4375                           	call	_fputc	;wreg free
  4376  001730  EC12  F011         	line	1363
  4377                           	
  4378                           l2561:
  4379  001734                     ;E:\ProgramasWindowns\Microchip\xc8\v2.00\pic\sources\c99\common\doprnt.c: 1363:     ++*
                                 fmt;
  4380                           	movff	(vfpfcnvrt@fmt),fsr2l
  4381  001734  C0C1  FFD9         	movff	(vfpfcnvrt@fmt+1),fsr2h
  4382  001738  C0C2  FFDA         	incf	postinc2
  4383  00173C  2ADE               	movlw	0
  4384  00173E  0E00               	addwfc	postdec2
  4385  001740  22DD               	line	1364
  4386                           	
  4387                           l2563:
  4388  001742                     ;E:\ProgramasWindowns\Microchip\xc8\v2.00\pic\sources\c99\common\doprnt.c: 1364:     ret
                                 urn 1;
  4389                           	movlw	high(01h)
  4390  001742  0E00               	movlb	0	; () banked
  4391  001744  0100               	movwf	((?_vfpfcnvrt+1))&0ffh
  4392  001746  6FC0               	movlw	low(01h)
  4393  001748  0E01               	movwf	((?_vfpfcnvrt))&0ffh
  4394  00174A  6FBF               	goto	l279
  4395  00174C  EFA8  F00B         	
  4396                           l2565:; BSR set to: 0
  4397  001750                     
  4398                           	line	1365
  4399                           	
  4400                           l279:
  4401  001750                     	return	;funcret
  4402  001750  0012               	opt stack 0
  4403                           GLOBAL	__end_of_vfpfcnvrt
  4404                           	__end_of_vfpfcnvrt:
  4405  001752                     	signat	_vfpfcnvrt,12410
  4406                           	global	_dtoa
  4407                           
  4408 ;; *************** function _dtoa *****************
  4409 ;; Defined at:
  4410 ;;		line 274 in file "E:\ProgramasWindowns\Microchip\xc8\v2.00\pic\sources\c99\common\doprnt.c"
  4411 ;; Parameters:    Size  Location     Type
  4412 ;;  fp              2   27[BANK0 ] PTR struct _IO_FILE
  4413 ;;		 -> sprintf@f(6), 
  4414 ;;  d               8   29[BANK0 ] long long 
  4415 ;; Auto vars:     Size  Location     Type
  4416 ;;  n               8   53[BANK0 ] long long 
  4417 ;;  i               2   61[BANK0 ] int 
  4418 ;;  s               2   51[BANK0 ] int 
  4419 ;;  w               2   49[BANK0 ] int 
  4420 ;;  p               2   47[BANK0 ] int 
  4421 ;; Return value:  Size  Location     Type
  4422 ;;                  2   27[BANK0 ] int 
  4423 ;; Registers used:
  4424 ;;		wreg, fsr1l, fsr1h, fsr2l, fsr2h, status,2, status,0, cstack
  4425 ;; Tracked objects:
  4426 ;;		On entry : 0/0
  4427 ;;		On exit  : 0/0
  4428 ;;		Unchanged: 0/0
  4429 ;; Data sizes:     COMRAM   BANK0   BANK1   BANK2   BANK3   BANK4   BANK5
  4430 ;;      Params:         0      10       0       0       0       0       0
  4431 ;;      Locals:         0      18       0       0       0       0       0
  4432 ;;      Temps:          0       8       0       0       0       0       0
  4433 ;;      Totals:         0      36       0       0       0       0       0
  4434 ;;Total ram usage:       36 bytes
  4435 ;; Hardware stack levels used:    1
  4436 ;; Hardware stack levels required when called:   15
  4437 ;; This function calls:
  4438 ;;		___aodiv
  4439 ;;		___aomod
  4440 ;;		_abs
  4441 ;;		_pad
  4442 ;; This function is called by:
  4443 ;;		_vfpfcnvrt
  4444 ;; This function uses a non-reentrant model
  4445 ;;
  4446                           psect	text7,class=CODE,space=0,reloc=2,group=0
  4447                           	line	274
  4448                           global __ptext7
  4449                           __ptext7:
  4450  000F40                     psect	text7
  4451                           	file	"E:\ProgramasWindowns\Microchip\xc8\v2.00\pic\sources\c99\common\doprnt.c"
  4452                           	line	274
  4453                           	global	__size_of_dtoa
  4454                           	__size_of_dtoa	equ	__end_of_dtoa-_dtoa
  4455  0000                     	
  4456                           _dtoa:
  4457  000F40                     ;incstack = 0
  4458                           	opt	stack 10
  4459                           	line	280
  4460                           	
  4461                           l2393:
  4462  000F40                     ;E:\ProgramasWindowns\Microchip\xc8\v2.00\pic\sources\c99\common\doprnt.c: 274: static i
                                 nt dtoa(FILE *fp, long long d);E:\ProgramasWindowns\Microchip\xc8\v2.00\pic\sources\c99\
                                 common\doprnt.c: 275: {;E:\ProgramasWindowns\Microchip\xc8\v2.00\pic\sources\c99\common\
                                 doprnt.c: 276:     int i, p, s, w;;E:\ProgramasWindowns\Microchip\xc8\v2.00\pic\sources\
                                 c99\common\doprnt.c: 277:     long long n;;E:\ProgramasWindowns\Microchip\xc8\v2.00\pic\
                                 sources\c99\common\doprnt.c: 280:     n = d;
  4463                           	movff	(dtoa@d),(dtoa@n)
  4464  000F40  C09D  F0B5         	movff	(dtoa@d+1),(dtoa@n+1)
  4465  000F44  C09E  F0B6         	movff	(dtoa@d+2),(dtoa@n+2)
  4466  000F48  C09F  F0B7         	movff	(dtoa@d+3),(dtoa@n+3)
  4467  000F4C  C0A0  F0B8         	movff	(dtoa@d+4),(dtoa@n+4)
  4468  000F50  C0A1  F0B9         	movff	(dtoa@d+5),(dtoa@n+5)
  4469  000F54  C0A2  F0BA         	movff	(dtoa@d+6),(dtoa@n+6)
  4470  000F58  C0A3  F0BB         	movff	(dtoa@d+7),(dtoa@n+7)
  4471  000F5C  C0A4  F0BC         	line	281
  4472                           	
  4473                           l2395:
  4474  000F60                     ;E:\ProgramasWindowns\Microchip\xc8\v2.00\pic\sources\c99\common\doprnt.c: 281:     s = 
                                 n < 0 ? 1 : 0;
  4475                           	movlb	0	; () banked
  4476  000F60  0100               	btfsc	((dtoa@n+7))&0ffh,7
  4477  000F62  BFBC               	goto	u2141
  4478  000F64  EFB6  F007         	goto	u2140
  4479  000F68  EFB9  F007         
  4480                           u2141:
  4481  000F6C                     	movlw	1
  4482  000F6C  0E01               	goto	u2150
  4483  000F6E  EFBA  F007         u2140:
  4484  000F72                     	movlw	0
  4485  000F72  0E00               u2150:
  4486  000F74                     	movwf	((dtoa@s))&0ffh
  4487  000F74  6FB3               	clrf	((dtoa@s+1))&0ffh
  4488  000F76  6BB4               	line	282
  4489                           ;E:\ProgramasWindowns\Microchip\xc8\v2.00\pic\sources\c99\common\doprnt.c: 282:     if (
                                 s) {
  4490                           	movf	((dtoa@s))&0ffh,w
  4491  000F78  51B3               iorwf	((dtoa@s+1))&0ffh,w
  4492  000F7A  11B4               	btfsc	status,2
  4493  000F7C  B4D8               	goto	u2161
  4494  000F7E  EFC3  F007         	goto	u2160
  4495  000F82  EFC5  F007         
  4496                           u2161:
  4497  000F86                     	goto	l2399
  4498  000F86  EFD7  F007         u2160:
  4499  000F8A                     	line	283
  4500                           	
  4501                           l2397:; BSR set to: 0
  4502  000F8A                     
  4503                           ;E:\ProgramasWindowns\Microchip\xc8\v2.00\pic\sources\c99\common\doprnt.c: 283:         
                                 n = -n;
  4504                           	comf	((dtoa@n+7))&0ffh
  4505  000F8A  1FBC               	comf	((dtoa@n+6))&0ffh
  4506  000F8C  1FBB               	comf	((dtoa@n+5))&0ffh
  4507  000F8E  1FBA               	comf	((dtoa@n+4))&0ffh
  4508  000F90  1FB9               	comf	((dtoa@n+3))&0ffh
  4509  000F92  1FB8               	comf	((dtoa@n+2))&0ffh
  4510  000F94  1FB7               	comf	((dtoa@n+1))&0ffh
  4511  000F96  1FB6               	negf	((dtoa@n))&0ffh
  4512  000F98  6DB5               	movlw	0
  4513  000F9A  0E00               	addwfc	((dtoa@n+1))&0ffh
  4514  000F9C  23B6               	addwfc	((dtoa@n+2))&0ffh
  4515  000F9E  23B7               	addwfc	((dtoa@n+3))&0ffh
  4516  000FA0  23B8               	addwfc	((dtoa@n+4))&0ffh
  4517  000FA2  23B9               	addwfc	((dtoa@n+5))&0ffh
  4518  000FA4  23BA               	addwfc	((dtoa@n+6))&0ffh
  4519  000FA6  23BB               	addwfc	((dtoa@n+7))&0ffh
  4520  000FA8  23BC               	goto	l2399
  4521  000FAA  EFD7  F007         	line	284
  4522                           ;E:\ProgramasWindowns\Microchip\xc8\v2.00\pic\sources\c99\common\doprnt.c: 284:     }
  4523                           	
  4524                           l249:; BSR set to: 0
  4525  000FAE                     
  4526                           	line	287
  4527                           	
  4528                           l2399:; BSR set to: 0
  4529  000FAE                     
  4530                           ;E:\ProgramasWindowns\Microchip\xc8\v2.00\pic\sources\c99\common\doprnt.c: 287:     if (
                                 !(prec < 0)) {
  4531                           	btfsc	((_prec+1))&0ffh,7
  4532  000FAE  BFF1               	goto	u2171
  4533  000FB0  EFDC  F007         	goto	u2170
  4534  000FB4  EFDE  F007         
  4535                           u2171:
  4536  000FB8                     	goto	l2403
  4537  000FB8  EFE1  F007         u2170:
  4538  000FBC                     	line	288
  4539                           	
  4540                           l2401:; BSR set to: 0
  4541  000FBC                     
  4542                           ;E:\ProgramasWindowns\Microchip\xc8\v2.00\pic\sources\c99\common\doprnt.c: 288:         
                                 flags &= ~(1 << 1);
  4543                           	bcf	(0+(1/8)+(_flags))&0ffh,(1)&7
  4544  000FBC  93F2               	goto	l2403
  4545  000FBE  EFE1  F007         	line	289
  4546                           ;E:\ProgramasWindowns\Microchip\xc8\v2.00\pic\sources\c99\common\doprnt.c: 289:     }
  4547                           	
  4548                           l250:; BSR set to: 0
  4549  000FC2                     
  4550                           	line	290
  4551                           	
  4552                           l2403:; BSR set to: 0
  4553  000FC2                     
  4554                           ;E:\ProgramasWindowns\Microchip\xc8\v2.00\pic\sources\c99\common\doprnt.c: 290:     p = 
                                 (0 < prec) ? prec : 1;
  4555                           	btfsc	((_prec+1))&0ffh,7
  4556  000FC2  BFF1               	goto	u2180
  4557  000FC4  EFEE  F007         	movf	((_prec+1))&0ffh,w
  4558  000FC8  51F1               	bnz	u2181
  4559  000FCA  E106               	decf	((_prec))&0ffh,w
  4560  000FCC  05F0               	btfsc	status,0
  4561  000FCE  B0D8               	goto	u2181
  4562  000FD0  EFEC  F007         	goto	u2180
  4563  000FD4  EFEE  F007         
  4564                           u2181:
  4565  000FD8                     	goto	l252
  4566  000FD8  EFF4  F007         u2180:
  4567  000FDC                     	
  4568                           l2405:; BSR set to: 0
  4569  000FDC                     
  4570                           	movlw	high(01h)
  4571  000FDC  0E00               	movwf	((dtoa@p+1))&0ffh
  4572  000FDE  6FB0               	movlw	low(01h)
  4573  000FE0  0E01               	movwf	((dtoa@p))&0ffh
  4574  000FE2  6FAF               	goto	l254
  4575  000FE4  EFF8  F007         	
  4576                           l252:; BSR set to: 0
  4577  000FE8                     
  4578                           	movff	(_prec),(dtoa@p)
  4579  000FE8  C0F0  F0AF         	movff	(_prec+1),(dtoa@p+1)
  4580  000FEC  C0F1  F0B0         	
  4581                           l254:; BSR set to: 0
  4582  000FF0                     
  4583                           	line	291
  4584                           ;E:\ProgramasWindowns\Microchip\xc8\v2.00\pic\sources\c99\common\doprnt.c: 291:     w = 
                                 width;
  4585                           	movff	(_width),(dtoa@w)
  4586  000FF0  C0EE  F0B1         	movff	(_width+1),(dtoa@w+1)
  4587  000FF4  C0EF  F0B2         	line	292
  4588                           	
  4589                           l2407:; BSR set to: 0
  4590  000FF8                     
  4591                           ;E:\ProgramasWindowns\Microchip\xc8\v2.00\pic\sources\c99\common\doprnt.c: 292:     if (
                                 s || (flags & (1 << 2))) {
  4592                           	movf	((dtoa@s))&0ffh,w
  4593  000FF8  51B3               iorwf	((dtoa@s+1))&0ffh,w
  4594  000FFA  11B4               	btfss	status,2
  4595  000FFC  A4D8               	goto	u2191
  4596  000FFE  EF03  F008         	goto	u2190
  4597  001002  EF05  F008         
  4598                           u2191:
  4599  001006                     	goto	l2411
  4600  001006  EF0E  F008         u2190:
  4601  00100A                     	
  4602                           l2409:; BSR set to: 0
  4603  00100A                     
  4604                           	
  4605                           	btfss	((_flags))&0ffh,(2)&7
  4606  00100A  A5F2               	goto	u2201
  4607  00100C  EF0A  F008         	goto	u2200
  4608  001010  EF0C  F008         u2201:
  4609  001014                     	goto	l2413
  4610  001014  EF13  F008         u2200:
  4611  001018                     	goto	l2411
  4612  001018  EF0E  F008         	
  4613                           l257:; BSR set to: 0
  4614  00101C                     
  4615                           	line	293
  4616                           	
  4617                           l2411:; BSR set to: 0
  4618  00101C                     
  4619                           ;E:\ProgramasWindowns\Microchip\xc8\v2.00\pic\sources\c99\common\doprnt.c: 293:         
                                 --w;
  4620                           	decf	((dtoa@w))&0ffh
  4621  00101C  07B1               	btfss	status,0
  4622  00101E  A0D8               	decf	((dtoa@w+1))&0ffh
  4623  001020  07B2               	goto	l2413
  4624  001022  EF13  F008         	line	294
  4625                           ;E:\ProgramasWindowns\Microchip\xc8\v2.00\pic\sources\c99\common\doprnt.c: 294:     }
  4626                           	
  4627                           l255:; BSR set to: 0
  4628  001026                     
  4629                           	line	297
  4630                           	
  4631                           l2413:; BSR set to: 0
  4632  001026                     
  4633                           ;E:\ProgramasWindowns\Microchip\xc8\v2.00\pic\sources\c99\common\doprnt.c: 297:     i = 
                                 sizeof(dbuf) - 1;
  4634                           	movlw	high(01Fh)
  4635  001026  0E00               	movwf	((dtoa@i+1))&0ffh
  4636  001028  6FBE               	movlw	low(01Fh)
  4637  00102A  0E1F               	movwf	((dtoa@i))&0ffh
  4638  00102C  6FBD               	line	298
  4639                           	
  4640                           l2415:; BSR set to: 0
  4641  00102E                     
  4642                           ;E:\ProgramasWindowns\Microchip\xc8\v2.00\pic\sources\c99\common\doprnt.c: 298:     dbuf
                                 [i] = '\0';
  4643                           	movlw	low(_dbuf)
  4644  00102E  0E00               	addwf	((dtoa@i))&0ffh,w
  4645  001030  25BD               	movwf	c:fsr2l
  4646  001032  6ED9               	movlw	high(_dbuf)
  4647  001034  0E01               	addwfc	((dtoa@i+1))&0ffh,w
  4648  001036  21BE               	movwf	1+c:fsr2l
  4649  001038  6EDA               	movlw	low(0)
  4650  00103A  0E00               	movwf	indf2
  4651  00103C  6EDF               	line	299
  4652                           ;E:\ProgramasWindowns\Microchip\xc8\v2.00\pic\sources\c99\common\doprnt.c: 299:     whil
                                 e (!(i < 1) && (n || (0 < p) || ((0 < w) && (flags & (1 << 1))))) {
  4653                           	goto	l2427
  4654  00103E  EFA0  F008         	
  4655                           l259:; BSR set to: 0
  4656  001042                     
  4657                           	line	300
  4658                           	
  4659                           l2417:; BSR set to: 0
  4660  001042                     
  4661                           ;E:\ProgramasWindowns\Microchip\xc8\v2.00\pic\sources\c99\common\doprnt.c: 300:         
                                 --i;
  4662                           	decf	((dtoa@i))&0ffh
  4663  001042  07BD               	btfss	status,0
  4664  001044  A0D8               	decf	((dtoa@i+1))&0ffh
  4665  001046  07BE               	line	301
  4666                           	
  4667                           l2419:; BSR set to: 0
  4668  001048                     
  4669                           ;E:\ProgramasWindowns\Microchip\xc8\v2.00\pic\sources\c99\common\doprnt.c: 301:         
                                 dbuf[i] = '0' + abs(n % 10);
  4670                           	movlw	low(_dbuf)
  4671  001048  0E00               	addwf	((dtoa@i))&0ffh,w
  4672  00104A  25BD               	movwf	c:fsr2l
  4673  00104C  6ED9               	movlw	high(_dbuf)
  4674  00104E  0E01               	addwfc	((dtoa@i+1))&0ffh,w
  4675  001050  21BE               	movwf	1+c:fsr2l
  4676  001052  6EDA               	movff	(dtoa@n),(___aomod@dividend)
  4677  001054  C0B5  F080         	movff	(dtoa@n+1),(___aomod@dividend+1)
  4678  001058  C0B6  F081         	movff	(dtoa@n+2),(___aomod@dividend+2)
  4679  00105C  C0B7  F082         	movff	(dtoa@n+3),(___aomod@dividend+3)
  4680  001060  C0B8  F083         	movff	(dtoa@n+4),(___aomod@dividend+4)
  4681  001064  C0B9  F084         	movff	(dtoa@n+5),(___aomod@dividend+5)
  4682  001068  C0BA  F085         	movff	(dtoa@n+6),(___aomod@dividend+6)
  4683  00106C  C0BB  F086         	movff	(dtoa@n+7),(___aomod@dividend+7)
  4684  001070  C0BC  F087         	movlw	byte0(0Ah)
  4685  001074  0E0A               	movwf	((___aomod@divisor))&0ffh
  4686  001076  6F88               	movlw	byte1(0Ah)
  4687  001078  0E00               	movwf	((___aomod@divisor+1))&0ffh
  4688  00107A  6F89               	movlw	byte2(0Ah)
  4689  00107C  0E00               	movwf	((___aomod@divisor+2))&0ffh
  4690  00107E  6F8A               	movlw	byte3(0Ah)
  4691  001080  0E00               	movwf	((___aomod@divisor+3))&0ffh
  4692  001082  6F8B               	movlw	byte4(0Ah)
  4693  001084  0E00               	movwf	((___aomod@divisor+4))&0ffh
  4694  001086  6F8C               	movlw	byte5(0Ah)
  4695  001088  0E00               	movwf	((___aomod@divisor+5))&0ffh
  4696  00108A  6F8D               	movlw	byte6(0Ah)
  4697  00108C  0E00               	movwf	((___aomod@divisor+6))&0ffh
  4698  00108E  6F8E               	movlw	byte7(0Ah)
  4699  001090  0E00               	movwf	((___aomod@divisor+7))&0ffh
  4700  001092  6F8F               	call	___aomod	;wreg free
  4701  001094  EC40  F00E         	movff	0+?___aomod,??_dtoa+0+0
  4702  001098  C080  F0A5         	movff	1+?___aomod,??_dtoa+0+0+1
  4703  00109C  C081  F0A6         	movff	2+?___aomod,??_dtoa+0+0+2
  4704  0010A0  C082  F0A7         	movff	3+?___aomod,??_dtoa+0+0+3
  4705  0010A4  C083  F0A8         	movff	4+?___aomod,??_dtoa+0+0+4
  4706  0010A8  C084  F0A9         	movff	5+?___aomod,??_dtoa+0+0+5
  4707  0010AC  C085  F0AA         	movff	6+?___aomod,??_dtoa+0+0+6
  4708  0010B0  C086  F0AB         	movff	7+?___aomod,??_dtoa+0+0+7
  4709  0010B4  C087  F0AC         	
  4710                           	movff	??_dtoa+0+0,(abs@a)
  4711  0010B8  C0A5  F092         	movff	??_dtoa+0+2,(abs@a+1)
  4712  0010BC  C0A7  F093         	call	_abs	;wreg free
  4713  0010C0  EC7D  F015         	movlb	0	; () banked
  4714  0010C4  0100               	movf	(0+?_abs)&0ffh,w
  4715  0010C6  5192               	addlw	low(030h)
  4716  0010C8  0F30               	movwf	indf2,c
  4717  0010CA  6EDF               
  4718                           	line	302
  4719                           	
  4720                           l2421:; BSR set to: 0
  4721  0010CC                     
  4722                           ;E:\ProgramasWindowns\Microchip\xc8\v2.00\pic\sources\c99\common\doprnt.c: 302:         
                                 --p;
  4723                           	decf	((dtoa@p))&0ffh
  4724  0010CC  07AF               	btfss	status,0
  4725  0010CE  A0D8               	decf	((dtoa@p+1))&0ffh
  4726  0010D0  07B0               	line	303
  4727                           	
  4728                           l2423:; BSR set to: 0
  4729  0010D2                     
  4730                           ;E:\ProgramasWindowns\Microchip\xc8\v2.00\pic\sources\c99\common\doprnt.c: 303:         
                                 --w;
  4731                           	decf	((dtoa@w))&0ffh
  4732  0010D2  07B1               	btfss	status,0
  4733  0010D4  A0D8               	decf	((dtoa@w+1))&0ffh
  4734  0010D6  07B2               	line	304
  4735                           	
  4736                           l2425:; BSR set to: 0
  4737  0010D8                     
  4738                           ;E:\ProgramasWindowns\Microchip\xc8\v2.00\pic\sources\c99\common\doprnt.c: 304:         
                                 n = n / 10;
  4739                           	movff	(dtoa@n),(___aodiv@dividend)
  4740  0010D8  C0B5  F080         	movff	(dtoa@n+1),(___aodiv@dividend+1)
  4741  0010DC  C0B6  F081         	movff	(dtoa@n+2),(___aodiv@dividend+2)
  4742  0010E0  C0B7  F082         	movff	(dtoa@n+3),(___aodiv@dividend+3)
  4743  0010E4  C0B8  F083         	movff	(dtoa@n+4),(___aodiv@dividend+4)
  4744  0010E8  C0B9  F084         	movff	(dtoa@n+5),(___aodiv@dividend+5)
  4745  0010EC  C0BA  F085         	movff	(dtoa@n+6),(___aodiv@dividend+6)
  4746  0010F0  C0BB  F086         	movff	(dtoa@n+7),(___aodiv@dividend+7)
  4747  0010F4  C0BC  F087         	movlw	byte0(0Ah)
  4748  0010F8  0E0A               	movwf	((___aodiv@divisor))&0ffh
  4749  0010FA  6F88               	movlw	byte1(0Ah)
  4750  0010FC  0E00               	movwf	((___aodiv@divisor+1))&0ffh
  4751  0010FE  6F89               	movlw	byte2(0Ah)
  4752  001100  0E00               	movwf	((___aodiv@divisor+2))&0ffh
  4753  001102  6F8A               	movlw	byte3(0Ah)
  4754  001104  0E00               	movwf	((___aodiv@divisor+3))&0ffh
  4755  001106  6F8B               	movlw	byte4(0Ah)
  4756  001108  0E00               	movwf	((___aodiv@divisor+4))&0ffh
  4757  00110A  6F8C               	movlw	byte5(0Ah)
  4758  00110C  0E00               	movwf	((___aodiv@divisor+5))&0ffh
  4759  00110E  6F8D               	movlw	byte6(0Ah)
  4760  001110  0E00               	movwf	((___aodiv@divisor+6))&0ffh
  4761  001112  6F8E               	movlw	byte7(0Ah)
  4762  001114  0E00               	movwf	((___aodiv@divisor+7))&0ffh
  4763  001116  6F8F               	call	___aodiv	;wreg free
  4764  001118  EC8F  F00C         	movff	0+?___aodiv,(dtoa@n)
  4765  00111C  C080  F0B5         	movff	1+?___aodiv,(dtoa@n+1)
  4766  001120  C081  F0B6         	movff	2+?___aodiv,(dtoa@n+2)
  4767  001124  C082  F0B7         	movff	3+?___aodiv,(dtoa@n+3)
  4768  001128  C083  F0B8         	movff	4+?___aodiv,(dtoa@n+4)
  4769  00112C  C084  F0B9         	movff	5+?___aodiv,(dtoa@n+5)
  4770  001130  C085  F0BA         	movff	6+?___aodiv,(dtoa@n+6)
  4771  001134  C086  F0BB         	movff	7+?___aodiv,(dtoa@n+7)
  4772  001138  C087  F0BC         	
  4773                           	goto	l2427
  4774  00113C  EFA0  F008         	line	305
  4775                           ;E:\ProgramasWindowns\Microchip\xc8\v2.00\pic\sources\c99\common\doprnt.c: 305:     }
  4776                           	
  4777                           l258:
  4778  001140                     	line	299
  4779                           	
  4780                           l2427:
  4781  001140                     ;E:\ProgramasWindowns\Microchip\xc8\v2.00\pic\sources\c99\common\doprnt.c: 299:     whil
                                 e (!(i < 1) && (n || (0 < p) || ((0 < w) && (flags & (1 << 1))))) {
  4782                           	movlb	0	; () banked
  4783  001140  0100               	btfsc	((dtoa@i+1))&0ffh,7
  4784  001142  BFBE               	goto	u2211
  4785  001144  EFAC  F008         	movf	((dtoa@i+1))&0ffh,w
  4786  001148  51BE               	bnz	u2210
  4787  00114A  E108               	decf	((dtoa@i))&0ffh,w
  4788  00114C  05BD               	btfss	status,0
  4789  00114E  A0D8               	goto	u2211
  4790  001150  EFAC  F008         	goto	u2210
  4791  001154  EFAE  F008         
  4792                           u2211:
  4793  001158                     	goto	l2437
  4794  001158  EFE4  F008         u2210:
  4795  00115C                     	
  4796                           l2429:; BSR set to: 0
  4797  00115C                     
  4798                           	movf	((dtoa@n))&0ffh,w
  4799  00115C  51B5               iorwf	((dtoa@n+1))&0ffh,w
  4800  00115E  11B6               iorwf	((dtoa@n+2))&0ffh,w
  4801  001160  11B7               iorwf	((dtoa@n+3))&0ffh,w
  4802  001162  11B8               iorwf	((dtoa@n+4))&0ffh,w
  4803  001164  11B9               iorwf	((dtoa@n+5))&0ffh,w
  4804  001166  11BA               iorwf	((dtoa@n+6))&0ffh,w
  4805  001168  11BB               iorwf	((dtoa@n+7))&0ffh,w
  4806  00116A  11BC               	btfss	status,2
  4807  00116C  A4D8               	goto	u2221
  4808  00116E  EFBB  F008         	goto	u2220
  4809  001172  EFBD  F008         
  4810                           u2221:
  4811  001176                     	goto	l2417
  4812  001176  EF21  F008         u2220:
  4813  00117A                     	
  4814                           l2431:; BSR set to: 0
  4815  00117A                     
  4816                           	btfsc	((dtoa@p+1))&0ffh,7
  4817  00117A  BFB0               	goto	u2230
  4818  00117C  EFCA  F008         	movf	((dtoa@p+1))&0ffh,w
  4819  001180  51B0               	bnz	u2231
  4820  001182  E106               	decf	((dtoa@p))&0ffh,w
  4821  001184  05AF               	btfsc	status,0
  4822  001186  B0D8               	goto	u2231
  4823  001188  EFC8  F008         	goto	u2230
  4824  00118C  EFCA  F008         
  4825                           u2231:
  4826  001190                     	goto	l2417
  4827  001190  EF21  F008         u2230:
  4828  001194                     	
  4829                           l2433:; BSR set to: 0
  4830  001194                     
  4831                           	btfsc	((dtoa@w+1))&0ffh,7
  4832  001194  BFB2               	goto	u2241
  4833  001196  EFD5  F008         	movf	((dtoa@w+1))&0ffh,w
  4834  00119A  51B2               	bnz	u2240
  4835  00119C  E108               	decf	((dtoa@w))&0ffh,w
  4836  00119E  05B1               	btfss	status,0
  4837  0011A0  A0D8               	goto	u2241
  4838  0011A2  EFD5  F008         	goto	u2240
  4839  0011A6  EFD7  F008         
  4840                           u2241:
  4841  0011AA                     	goto	l2437
  4842  0011AA  EFE4  F008         u2240:
  4843  0011AE                     	
  4844                           l2435:; BSR set to: 0
  4845  0011AE                     
  4846                           	
  4847                           	btfsc	((_flags))&0ffh,(1)&7
  4848  0011AE  B3F2               	goto	u2251
  4849  0011B0  EFDC  F008         	goto	u2250
  4850  0011B4  EFDE  F008         u2251:
  4851  0011B8                     	goto	l2417
  4852  0011B8  EF21  F008         u2250:
  4853  0011BC                     	goto	l2437
  4854  0011BC  EFE4  F008         	
  4855                           l263:; BSR set to: 0
  4856  0011C0                     
  4857                           	goto	l2437
  4858  0011C0  EFE4  F008         	
  4859                           l261:; BSR set to: 0
  4860  0011C4                     
  4861                           	goto	l2437
  4862  0011C4  EFE4  F008         	
  4863                           l264:; BSR set to: 0
  4864  0011C8                     
  4865                           	line	308
  4866                           	
  4867                           l2437:; BSR set to: 0
  4868  0011C8                     
  4869                           ;E:\ProgramasWindowns\Microchip\xc8\v2.00\pic\sources\c99\common\doprnt.c: 308:     if (
                                 s || (flags & (1 << 2))) {
  4870                           	movf	((dtoa@s))&0ffh,w
  4871  0011C8  51B3               iorwf	((dtoa@s+1))&0ffh,w
  4872  0011CA  11B4               	btfss	status,2
  4873  0011CC  A4D8               	goto	u2261
  4874  0011CE  EFEB  F008         	goto	u2260
  4875  0011D2  EFED  F008         
  4876                           u2261:
  4877  0011D6                     	goto	l2441
  4878  0011D6  EFF6  F008         u2260:
  4879  0011DA                     	
  4880                           l2439:; BSR set to: 0
  4881  0011DA                     
  4882                           	
  4883                           	btfss	((_flags))&0ffh,(2)&7
  4884  0011DA  A5F2               	goto	u2271
  4885  0011DC  EFF2  F008         	goto	u2270
  4886  0011E0  EFF4  F008         u2271:
  4887  0011E4                     	goto	l2451
  4888  0011E4  EF18  F009         u2270:
  4889  0011E8                     	goto	l2441
  4890  0011E8  EFF6  F008         	
  4891                           l267:; BSR set to: 0
  4892  0011EC                     
  4893                           	line	309
  4894                           	
  4895                           l2441:; BSR set to: 0
  4896  0011EC                     
  4897                           ;E:\ProgramasWindowns\Microchip\xc8\v2.00\pic\sources\c99\common\doprnt.c: 309:         
                                 --i;
  4898                           	decf	((dtoa@i))&0ffh
  4899  0011EC  07BD               	btfss	status,0
  4900  0011EE  A0D8               	decf	((dtoa@i+1))&0ffh
  4901  0011F0  07BE               	line	310
  4902                           	
  4903                           l2443:; BSR set to: 0
  4904  0011F2                     
  4905                           ;E:\ProgramasWindowns\Microchip\xc8\v2.00\pic\sources\c99\common\doprnt.c: 310:         
                                 dbuf[i] = s ? '-' : '+';
  4906                           	movf	((dtoa@s))&0ffh,w
  4907  0011F2  51B3               iorwf	((dtoa@s+1))&0ffh,w
  4908  0011F4  11B4               	btfss	status,2
  4909  0011F6  A4D8               	goto	u2281
  4910  0011F8  EF00  F009         	goto	u2280
  4911  0011FC  EF02  F009         
  4912                           u2281:
  4913  001200                     	goto	l2447
  4914  001200  EF08  F009         u2280:
  4915  001204                     	
  4916                           l2445:; BSR set to: 0
  4917  001204                     
  4918                           	movlw	high(02Bh)
  4919  001204  0E00               	movwf	((_dtoa$347+1))&0ffh
  4920  001206  6FAE               	movlw	low(02Bh)
  4921  001208  0E2B               	movwf	((_dtoa$347))&0ffh
  4922  00120A  6FAD               	goto	l2449
  4923  00120C  EF0E  F009         	
  4924                           l269:; BSR set to: 0
  4925  001210                     
  4926                           	
  4927                           l2447:; BSR set to: 0
  4928  001210                     
  4929                           	movlw	high(02Dh)
  4930  001210  0E00               	movwf	((_dtoa$347+1))&0ffh
  4931  001212  6FAE               	movlw	low(02Dh)
  4932  001214  0E2D               	movwf	((_dtoa$347))&0ffh
  4933  001216  6FAD               	goto	l2449
  4934  001218  EF0E  F009         	
  4935                           l271:; BSR set to: 0
  4936  00121C                     
  4937                           	
  4938                           l2449:; BSR set to: 0
  4939  00121C                     
  4940                           	movlw	low(_dbuf)
  4941  00121C  0E00               	addwf	((dtoa@i))&0ffh,w
  4942  00121E  25BD               	movwf	c:fsr2l
  4943  001220  6ED9               	movlw	high(_dbuf)
  4944  001222  0E01               	addwfc	((dtoa@i+1))&0ffh,w
  4945  001224  21BE               	movwf	1+c:fsr2l
  4946  001226  6EDA               	movff	(_dtoa$347),indf2
  4947  001228  C0AD  FFDF         
  4948                           	goto	l2451
  4949  00122C  EF18  F009         	line	311
  4950                           ;E:\ProgramasWindowns\Microchip\xc8\v2.00\pic\sources\c99\common\doprnt.c: 311:     }
  4951                           	
  4952                           l265:; BSR set to: 0
  4953  001230                     
  4954                           	line	314
  4955                           	
  4956                           l2451:; BSR set to: 0
  4957  001230                     
  4958                           ;E:\ProgramasWindowns\Microchip\xc8\v2.00\pic\sources\c99\common\doprnt.c: 314:     retu
                                 rn pad(fp, &dbuf[i], w);
  4959                           		movff	(dtoa@fp),(pad@fp)
  4960  001230  C09B  F090         	movff	(dtoa@fp+1),(pad@fp+1)
  4961  001234  C09C  F091         
  4962                           	movlw	low(_dbuf)
  4963  001238  0E00               	addwf	((dtoa@i))&0ffh,w
  4964  00123A  25BD               	movwf	((pad@buf))&0ffh
  4965  00123C  6F92               	movlw	high(_dbuf)
  4966  00123E  0E01               	addwfc	((dtoa@i+1))&0ffh,w
  4967  001240  21BE               	movwf	1+((pad@buf))&0ffh
  4968  001242  6F93               	movff	(dtoa@w),(pad@p)
  4969  001244  C0B1  F094         	movff	(dtoa@w+1),(pad@p+1)
  4970  001248  C0B2  F095         	call	_pad	;wreg free
  4971  00124C  ECF2  F011         	movff	0+?_pad,(?_dtoa)
  4972  001250  C090  F09B         	movff	1+?_pad,(?_dtoa+1)
  4973  001254  C091  F09C         	goto	l272
  4974  001258  EF2E  F009         	
  4975                           l2453:
  4976  00125C                     	line	315
  4977                           	
  4978                           l272:
  4979  00125C                     	return	;funcret
  4980  00125C  0012               	opt stack 0
  4981                           GLOBAL	__end_of_dtoa
  4982                           	__end_of_dtoa:
  4983  00125E                     	signat	_dtoa,8314
  4984                           	global	_pad
  4985                           
  4986 ;; *************** function _pad *****************
  4987 ;; Defined at:
  4988 ;;		line 72 in file "E:\ProgramasWindowns\Microchip\xc8\v2.00\pic\sources\c99\common\doprnt.c"
  4989 ;; Parameters:    Size  Location     Type
  4990 ;;  fp              2   16[BANK0 ] PTR struct _IO_FILE
  4991 ;;		 -> sprintf@f(6), 
  4992 ;;  buf             2   18[BANK0 ] PTR unsigned char 
  4993 ;;		 -> dbuf(32), 
  4994 ;;  p               2   20[BANK0 ] int 
  4995 ;; Auto vars:     Size  Location     Type
  4996 ;;  w               2   25[BANK0 ] int 
  4997 ;;  i               2   23[BANK0 ] int 
  4998 ;; Return value:  Size  Location     Type
  4999 ;;                  2   16[BANK0 ] int 
  5000 ;; Registers used:
  5001 ;;		wreg, fsr1l, fsr1h, fsr2l, fsr2h, status,2, status,0, cstack
  5002 ;; Tracked objects:
  5003 ;;		On entry : 0/0
  5004 ;;		On exit  : 0/0
  5005 ;;		Unchanged: 0/0
  5006 ;; Data sizes:     COMRAM   BANK0   BANK1   BANK2   BANK3   BANK4   BANK5
  5007 ;;      Params:         0       6       0       0       0       0       0
  5008 ;;      Locals:         0       4       0       0       0       0       0
  5009 ;;      Temps:          0       1       0       0       0       0       0
  5010 ;;      Totals:         0      11       0       0       0       0       0
  5011 ;;Total ram usage:       11 bytes
  5012 ;; Hardware stack levels used:    1
  5013 ;; Hardware stack levels required when called:   14
  5014 ;; This function calls:
  5015 ;;		_fputc
  5016 ;;		_fputs
  5017 ;;		_strlen
  5018 ;; This function is called by:
  5019 ;;		_dtoa
  5020 ;; This function uses a non-reentrant model
  5021 ;;
  5022                           psect	text8,class=CODE,space=0,reloc=2,group=0
  5023                           	line	72
  5024                           global __ptext8
  5025                           __ptext8:
  5026  0023E4                     psect	text8
  5027                           	file	"E:\ProgramasWindowns\Microchip\xc8\v2.00\pic\sources\c99\common\doprnt.c"
  5028                           	line	72
  5029                           	global	__size_of_pad
  5030                           	__size_of_pad	equ	__end_of_pad-_pad
  5031  0000                     	
  5032                           _pad:
  5033  0023E4                     ;incstack = 0
  5034                           	opt	stack 10
  5035                           	line	77
  5036                           	
  5037                           l2181:
  5038  0023E4                     ;E:\ProgramasWindowns\Microchip\xc8\v2.00\pic\sources\c99\common\doprnt.c: 72: static in
                                 t pad(FILE *fp, char *buf, int p);E:\ProgramasWindowns\Microchip\xc8\v2.00\pic\sources\c
                                 99\common\doprnt.c: 73: {;E:\ProgramasWindowns\Microchip\xc8\v2.00\pic\sources\c99\commo
                                 n\doprnt.c: 74:     int i, w;;E:\ProgramasWindowns\Microchip\xc8\v2.00\pic\sources\c99\c
                                 ommon\doprnt.c: 77:     if (flags & (1 << 0)) {
  5039                           	movlb	0	; () banked
  5040  0023E4  0100               	
  5041                           	btfss	((_flags))&0ffh,(0)&7
  5042  0023E6  A1F2               	goto	u1781
  5043  0023E8  EFF8  F011         	goto	u1780
  5044  0023EC  EFFA  F011         u1781:
  5045  0023F0                     	goto	l2185
  5046  0023F0  EF06  F012         u1780:
  5047  0023F4                     	line	78
  5048                           	
  5049                           l2183:; BSR set to: 0
  5050  0023F4                     
  5051                           ;E:\ProgramasWindowns\Microchip\xc8\v2.00\pic\sources\c99\common\doprnt.c: 78:         f
                                 puts((const char *)buf, fp);
  5052                           		movff	(pad@buf),(fputs@s)
  5053  0023F4  C092  F089         	movff	(pad@buf+1),(fputs@s+1)
  5054  0023F8  C093  F08A         
  5055                           		movff	(pad@fp),(fputs@fp)
  5056  0023FC  C090  F08B         	movff	(pad@fp+1),(fputs@fp+1)
  5057  002400  C091  F08C         
  5058                           	call	_fputs	;wreg free
  5059  002404  EC0A  F015         	goto	l2185
  5060  002408  EF06  F012         	line	79
  5061                           ;E:\ProgramasWindowns\Microchip\xc8\v2.00\pic\sources\c99\common\doprnt.c: 79:     }
  5062                           	
  5063                           l237:
  5064  00240C                     	line	82
  5065                           	
  5066                           l2185:
  5067  00240C                     ;E:\ProgramasWindowns\Microchip\xc8\v2.00\pic\sources\c99\common\doprnt.c: 82:     w = (
                                 p < 0) ? 0 : p;
  5068                           	movlb	0	; () banked
  5069  00240C  0100               	btfsc	((pad@p+1))&0ffh,7
  5070  00240E  BF95               	goto	u1791
  5071  002410  EF0C  F012         	goto	u1790
  5072  002414  EF0E  F012         
  5073                           u1791:
  5074  002418                     	goto	l2189
  5075  002418  EF14  F012         u1790:
  5076  00241C                     	
  5077                           l2187:; BSR set to: 0
  5078  00241C                     
  5079                           	movff	(pad@p),(pad@w)
  5080  00241C  C094  F099         	movff	(pad@p+1),(pad@w+1)
  5081  002420  C095  F09A         	goto	l241
  5082  002424  EF18  F012         	
  5083                           l239:; BSR set to: 0
  5084  002428                     
  5085                           	
  5086                           l2189:; BSR set to: 0
  5087  002428                     
  5088                           	movlw	high(0)
  5089  002428  0E00               	movwf	((pad@w+1))&0ffh
  5090  00242A  6F9A               	movlw	low(0)
  5091  00242C  0E00               	movwf	((pad@w))&0ffh
  5092  00242E  6F99               	
  5093                           l241:; BSR set to: 0
  5094  002430                     
  5095                           	line	83
  5096                           ;E:\ProgramasWindowns\Microchip\xc8\v2.00\pic\sources\c99\common\doprnt.c: 83:     i = 0
                                 ;
  5097                           	movlw	high(0)
  5098  002430  0E00               	movwf	((pad@i+1))&0ffh
  5099  002432  6F98               	movlw	low(0)
  5100  002434  0E00               	movwf	((pad@i))&0ffh
  5101  002436  6F97               	line	84
  5102                           ;E:\ProgramasWindowns\Microchip\xc8\v2.00\pic\sources\c99\common\doprnt.c: 84:     while
                                  (i < w) {
  5103                           	goto	l2195
  5104  002438  EF2D  F012         	
  5105                           l243:; BSR set to: 0
  5106  00243C                     
  5107                           	line	85
  5108                           	
  5109                           l2191:; BSR set to: 0
  5110  00243C                     
  5111                           ;E:\ProgramasWindowns\Microchip\xc8\v2.00\pic\sources\c99\common\doprnt.c: 85:         f
                                 putc(' ', fp);
  5112                           	movlw	high(020h)
  5113  00243C  0E00               	movwf	((fputc@c+1))&0ffh
  5114  00243E  6F81               	movlw	low(020h)
  5115  002440  0E20               	movwf	((fputc@c))&0ffh
  5116  002442  6F80               		movff	(pad@fp),(fputc@fp)
  5117  002444  C090  F082         	movff	(pad@fp+1),(fputc@fp+1)
  5118  002448  C091  F083         
  5119                           	call	_fputc	;wreg free
  5120  00244C  EC12  F011         	line	86
  5121                           	
  5122                           l2193:
  5123  002450                     ;E:\ProgramasWindowns\Microchip\xc8\v2.00\pic\sources\c99\common\doprnt.c: 86:         +
                                 +i;
  5124                           	movlb	0	; () banked
  5125  002450  0100               	infsnz	((pad@i))&0ffh
  5126  002452  4B97               	incf	((pad@i+1))&0ffh
  5127  002454  2B98               	goto	l2195
  5128  002456  EF2D  F012         	line	87
  5129                           ;E:\ProgramasWindowns\Microchip\xc8\v2.00\pic\sources\c99\common\doprnt.c: 87:     }
  5130                           	
  5131                           l242:; BSR set to: 0
  5132  00245A                     
  5133                           	line	84
  5134                           	
  5135                           l2195:; BSR set to: 0
  5136  00245A                     
  5137                           ;E:\ProgramasWindowns\Microchip\xc8\v2.00\pic\sources\c99\common\doprnt.c: 84:     while
                                  (i < w) {
  5138                           		movf	((pad@w))&0ffh,w
  5139  00245A  5199               	subwf	((pad@i))&0ffh,w
  5140  00245C  5D97               	movf	((pad@i+1))&0ffh,w
  5141  00245E  5198               	xorlw	80h
  5142  002460  0A80               	movwf	(??_pad+0+0)&0ffh
  5143  002462  6F96               	movf	((pad@w+1))&0ffh,w
  5144  002464  519A               	xorlw	80h
  5145  002466  0A80               	subwfb	(??_pad+0+0)&0ffh,w
  5146  002468  5996               	btfss	status,0
  5147  00246A  A0D8               	goto	u1801
  5148  00246C  EF3A  F012         	goto	u1800
  5149  002470  EF3C  F012         
  5150                           u1801:
  5151  002474                     	goto	l2191
  5152  002474  EF1E  F012         u1800:
  5153  002478                     	
  5154                           l244:; BSR set to: 0
  5155  002478                     
  5156                           	line	90
  5157                           ;E:\ProgramasWindowns\Microchip\xc8\v2.00\pic\sources\c99\common\doprnt.c: 90:     if (!
                                 (flags & (1 << 0))) {
  5158                           	
  5159                           	btfsc	((_flags))&0ffh,(0)&7
  5160  002478  B1F2               	goto	u1811
  5161  00247A  EF41  F012         	goto	u1810
  5162  00247E  EF43  F012         u1811:
  5163  002482                     	goto	l2199
  5164  002482  EF4F  F012         u1810:
  5165  002486                     	line	91
  5166                           	
  5167                           l2197:; BSR set to: 0
  5168  002486                     
  5169                           ;E:\ProgramasWindowns\Microchip\xc8\v2.00\pic\sources\c99\common\doprnt.c: 91:         f
                                 puts((const char *)buf, fp);
  5170                           		movff	(pad@buf),(fputs@s)
  5171  002486  C092  F089         	movff	(pad@buf+1),(fputs@s+1)
  5172  00248A  C093  F08A         
  5173                           		movff	(pad@fp),(fputs@fp)
  5174  00248E  C090  F08B         	movff	(pad@fp+1),(fputs@fp+1)
  5175  002492  C091  F08C         
  5176                           	call	_fputs	;wreg free
  5177  002496  EC0A  F015         	goto	l2199
  5178  00249A  EF4F  F012         	line	92
  5179                           ;E:\ProgramasWindowns\Microchip\xc8\v2.00\pic\sources\c99\common\doprnt.c: 92:     }
  5180                           	
  5181                           l245:
  5182  00249E                     	line	94
  5183                           	
  5184                           l2199:
  5185  00249E                     ;E:\ProgramasWindowns\Microchip\xc8\v2.00\pic\sources\c99\common\doprnt.c: 94:     retur
                                 n strlen(buf) + w;
  5186                           		movff	(pad@buf),(strlen@s)
  5187  00249E  C092  F080         	movff	(pad@buf+1),(strlen@s+1)
  5188  0024A2  C093  F081         
  5189                           	call	_strlen	;wreg free
  5190  0024A6  ECB6  F014         	movlb	0	; () banked
  5191  0024AA  0100               	movf	((pad@w))&0ffh,w
  5192  0024AC  5199               	addwf	(0+?_strlen)&0ffh,w
  5193  0024AE  2580               	movwf	((?_pad))&0ffh
  5194  0024B0  6F90               	movf	((pad@w+1))&0ffh,w
  5195  0024B2  519A               	addwfc	(1+?_strlen)&0ffh,w
  5196  0024B4  2181               	movwf	1+((?_pad))&0ffh
  5197  0024B6  6F91               	goto	l246
  5198  0024B8  EF5E  F012         	
  5199                           l2201:; BSR set to: 0
  5200  0024BC                     
  5201                           	line	95
  5202                           	
  5203                           l246:; BSR set to: 0
  5204  0024BC                     
  5205                           	return	;funcret
  5206  0024BC  0012               	opt stack 0
  5207                           GLOBAL	__end_of_pad
  5208                           	__end_of_pad:
  5209  0024BE                     	signat	_pad,12410
  5210                           	global	_strlen
  5211                           
  5212 ;; *************** function _strlen *****************
  5213 ;; Defined at:
  5214 ;;		line 12 in file "E:\ProgramasWindowns\Microchip\xc8\v2.00\pic\sources\c99\common\strlen.c"
  5215 ;; Parameters:    Size  Location     Type
  5216 ;;  s               2    0[BANK0 ] PTR const unsigned char 
  5217 ;;		 -> dbuf(32), 
  5218 ;; Auto vars:     Size  Location     Type
  5219 ;;  a               2    4[BANK0 ] PTR const unsigned char 
  5220 ;;		 -> dbuf(32), 
  5221 ;; Return value:  Size  Location     Type
  5222 ;;                  2    0[BANK0 ] unsigned int 
  5223 ;; Registers used:
  5224 ;;		wreg, fsr2l, fsr2h, status,2, status,0
  5225 ;; Tracked objects:
  5226 ;;		On entry : 0/0
  5227 ;;		On exit  : 0/0
  5228 ;;		Unchanged: 0/0
  5229 ;; Data sizes:     COMRAM   BANK0   BANK1   BANK2   BANK3   BANK4   BANK5
  5230 ;;      Params:         0       2       0       0       0       0       0
  5231 ;;      Locals:         0       2       0       0       0       0       0
  5232 ;;      Temps:          0       2       0       0       0       0       0
  5233 ;;      Totals:         0       6       0       0       0       0       0
  5234 ;;Total ram usage:        6 bytes
  5235 ;; Hardware stack levels used:    1
  5236 ;; Hardware stack levels required when called:   11
  5237 ;; This function calls:
  5238 ;;		Nothing
  5239 ;; This function is called by:
  5240 ;;		_pad
  5241 ;; This function uses a non-reentrant model
  5242 ;;
  5243                           psect	text9,class=CODE,space=0,reloc=2,group=2
  5244                           	file	"E:\ProgramasWindowns\Microchip\xc8\v2.00\pic\sources\c99\common\strlen.c"
  5245                           	line	12
  5246                           global __ptext9
  5247                           __ptext9:
  5248  00296C                     psect	text9
  5249                           	file	"E:\ProgramasWindowns\Microchip\xc8\v2.00\pic\sources\c99\common\strlen.c"
  5250                           	line	12
  5251                           	global	__size_of_strlen
  5252                           	__size_of_strlen	equ	__end_of_strlen-_strlen
  5253  0000                     	
  5254                           _strlen:; BSR set to: 0
  5255  00296C                     
  5256                           ;incstack = 0
  5257                           	opt	stack 12
  5258                           	line	14
  5259                           	
  5260                           l2153:
  5261  00296C                     		movff	(strlen@s),(strlen@a)
  5262  00296C  C080  F084         	movff	(strlen@s+1),(strlen@a+1)
  5263  002970  C081  F085         
  5264                           	line	16
  5265                           	goto	l2157
  5266  002974  EFC1  F014         	
  5267                           l1001:
  5268  002978                     	line	17
  5269                           	
  5270                           l2155:
  5271  002978                     	movlb	0	; () banked
  5272  002978  0100               	infsnz	((strlen@s))&0ffh
  5273  00297A  4B80               	incf	((strlen@s+1))&0ffh
  5274  00297C  2B81               	goto	l2157
  5275  00297E  EFC1  F014         	line	18
  5276                           	
  5277                           l1000:; BSR set to: 0
  5278  002982                     
  5279                           	line	16
  5280                           	
  5281                           l2157:
  5282  002982                     	movff	(strlen@s),fsr2l
  5283  002982  C080  FFD9         	movff	(strlen@s+1),fsr2h
  5284  002986  C081  FFDA         	movf	indf2,w
  5285  00298A  50DF               	btfss	status,2
  5286  00298C  A4D8               	goto	u1751
  5287  00298E  EFCB  F014         	goto	u1750
  5288  002992  EFCD  F014         u1751:
  5289  002996                     	goto	l2155
  5290  002996  EFBC  F014         u1750:
  5291  00299A                     	goto	l2159
  5292  00299A  EFCF  F014         	
  5293                           l1002:
  5294  00299E                     	line	25
  5295                           	
  5296                           l2159:
  5297  00299E                     	movff	(strlen@a),??_strlen+0+0
  5298  00299E  C084  F082         	movff	(strlen@a+1),??_strlen+0+0+1
  5299  0029A2  C085  F083         	movlb	0	; () banked
  5300  0029A6  0100               	comf	(??_strlen+0+0)&0ffh
  5301  0029A8  1F82               	comf	(??_strlen+0+1)&0ffh
  5302  0029AA  1F83               	infsnz	(??_strlen+0+0)&0ffh
  5303  0029AC  4B82               	incf	(??_strlen+0+1)&0ffh
  5304  0029AE  2B83               	movf	((strlen@s))&0ffh,w
  5305  0029B0  5180               	addwf	(??_strlen+0+0)&0ffh,w
  5306  0029B2  2582               	movwf	((?_strlen))&0ffh
  5307  0029B4  6F80               	movf	((strlen@s+1))&0ffh,w
  5308  0029B6  5181               	addwfc	(??_strlen+0+1)&0ffh,w
  5309  0029B8  2183               	movwf	1+((?_strlen))&0ffh
  5310  0029BA  6F81               	goto	l1003
  5311  0029BC  EFE0  F014         	
  5312                           l2161:; BSR set to: 0
  5313  0029C0                     
  5314                           	line	26
  5315                           	
  5316                           l1003:; BSR set to: 0
  5317  0029C0                     
  5318                           	return	;funcret
  5319  0029C0  0012               	opt stack 0
  5320                           GLOBAL	__end_of_strlen
  5321                           	__end_of_strlen:
  5322  0029C2                     	signat	_strlen,4218
  5323                           	global	_fputs
  5324                           
  5325 ;; *************** function _fputs *****************
  5326 ;; Defined at:
  5327 ;;		line 8 in file "E:\ProgramasWindowns\Microchip\xc8\v2.00\pic\sources\c99\common\nf_fputs.c"
  5328 ;; Parameters:    Size  Location     Type
  5329 ;;  s               2    9[BANK0 ] PTR const unsigned char 
  5330 ;;		 -> dbuf(32), 
  5331 ;;  fp              2   11[BANK0 ] PTR struct _IO_FILE
  5332 ;;		 -> sprintf@f(6), 
  5333 ;; Auto vars:     Size  Location     Type
  5334 ;;  i               2   14[BANK0 ] int 
  5335 ;;  c               1   13[BANK0 ] unsigned char 
  5336 ;; Return value:  Size  Location     Type
  5337 ;;                  2    9[BANK0 ] int 
  5338 ;; Registers used:
  5339 ;;		wreg, fsr1l, fsr1h, fsr2l, fsr2h, status,2, status,0, cstack
  5340 ;; Tracked objects:
  5341 ;;		On entry : 0/0
  5342 ;;		On exit  : 0/0
  5343 ;;		Unchanged: 0/0
  5344 ;; Data sizes:     COMRAM   BANK0   BANK1   BANK2   BANK3   BANK4   BANK5
  5345 ;;      Params:         0       4       0       0       0       0       0
  5346 ;;      Locals:         0       3       0       0       0       0       0
  5347 ;;      Temps:          0       0       0       0       0       0       0
  5348 ;;      Totals:         0       7       0       0       0       0       0
  5349 ;;Total ram usage:        7 bytes
  5350 ;; Hardware stack levels used:    1
  5351 ;; Hardware stack levels required when called:   13
  5352 ;; This function calls:
  5353 ;;		_fputc
  5354 ;; This function is called by:
  5355 ;;		_pad
  5356 ;; This function uses a non-reentrant model
  5357 ;;
  5358                           psect	text10,class=CODE,space=0,reloc=2,group=2
  5359                           	file	"E:\ProgramasWindowns\Microchip\xc8\v2.00\pic\sources\c99\common\nf_fputs.c"
  5360                           	line	8
  5361                           global __ptext10
  5362                           __ptext10:
  5363  002A14                     psect	text10
  5364                           	file	"E:\ProgramasWindowns\Microchip\xc8\v2.00\pic\sources\c99\common\nf_fputs.c"
  5365                           	line	8
  5366                           	global	__size_of_fputs
  5367                           	__size_of_fputs	equ	__end_of_fputs-_fputs
  5368  0000                     	
  5369                           _fputs:; BSR set to: 0
  5370  002A14                     
  5371                           ;incstack = 0
  5372                           	opt	stack 10
  5373                           	line	13
  5374                           	
  5375                           l2145:
  5376  002A14                     	movlw	high(0)
  5377  002A14  0E00               	movlb	0	; () banked
  5378  002A16  0100               	movwf	((fputs@i+1))&0ffh
  5379  002A18  6F8F               	movlw	low(0)
  5380  002A1A  0E00               	movwf	((fputs@i))&0ffh
  5381  002A1C  6F8E               	line	14
  5382                           	goto	l2151
  5383  002A1E  EF1F  F015         	
  5384                           l985:; BSR set to: 0
  5385  002A22                     
  5386                           	line	15
  5387                           	
  5388                           l2147:; BSR set to: 0
  5389  002A22                     
  5390                           	movff	(fputs@c),(fputc@c)
  5391  002A22  C08D  F080         	clrf	((fputc@c+1))&0ffh
  5392  002A26  6B81               		movff	(fputs@fp),(fputc@fp)
  5393  002A28  C08B  F082         	movff	(fputs@fp+1),(fputc@fp+1)
  5394  002A2C  C08C  F083         
  5395                           	call	_fputc	;wreg free
  5396  002A30  EC12  F011         	line	16
  5397                           	
  5398                           l2149:
  5399  002A34                     	movlb	0	; () banked
  5400  002A34  0100               	infsnz	((fputs@i))&0ffh
  5401  002A36  4B8E               	incf	((fputs@i+1))&0ffh
  5402  002A38  2B8F               	goto	l2151
  5403  002A3A  EF1F  F015         	line	17
  5404                           	
  5405                           l984:; BSR set to: 0
  5406  002A3E                     
  5407                           	line	14
  5408                           	
  5409                           l2151:; BSR set to: 0
  5410  002A3E                     
  5411                           	movf	((fputs@i))&0ffh,w
  5412  002A3E  518E               	addwf	((fputs@s))&0ffh,w
  5413  002A40  2589               	movwf	c:fsr2l
  5414  002A42  6ED9               	movf	((fputs@i+1))&0ffh,w
  5415  002A44  518F               	addwfc	((fputs@s+1))&0ffh,w
  5416  002A46  218A               	movwf	1+c:fsr2l
  5417  002A48  6EDA               	movf	indf2,w
  5418  002A4A  50DF               	movwf	((fputs@c))&0ffh
  5419  002A4C  6F8D               	movf	((fputs@c))&0ffh,w
  5420  002A4E  518D               	btfss	status,2
  5421  002A50  A4D8               	goto	u1741
  5422  002A52  EF2D  F015         	goto	u1740
  5423  002A56  EF2F  F015         u1741:
  5424  002A5A                     	goto	l2147
  5425  002A5A  EF11  F015         u1740:
  5426  002A5E                     	goto	l987
  5427  002A5E  EF31  F015         	
  5428                           l986:; BSR set to: 0
  5429  002A62                     
  5430                           	line	19
  5431                           ;	Return value of _fputs is never used
  5432                           	
  5433                           l987:; BSR set to: 0
  5434  002A62                     
  5435                           	return	;funcret
  5436  002A62  0012               	opt stack 0
  5437                           GLOBAL	__end_of_fputs
  5438                           	__end_of_fputs:
  5439  002A64                     	signat	_fputs,8314
  5440                           	global	_fputc
  5441                           
  5442 ;; *************** function _fputc *****************
  5443 ;; Defined at:
  5444 ;;		line 8 in file "E:\ProgramasWindowns\Microchip\xc8\v2.00\pic\sources\c99\common\nf_fputc.c"
  5445 ;; Parameters:    Size  Location     Type
  5446 ;;  c               2    0[BANK0 ] int 
  5447 ;;  fp              2    2[BANK0 ] PTR struct _IO_FILE
  5448 ;;		 -> sprintf@f(6), 
  5449 ;; Auto vars:     Size  Location     Type
  5450 ;;		None
  5451 ;; Return value:  Size  Location     Type
  5452 ;;                  2    0[BANK0 ] int 
  5453 ;; Registers used:
  5454 ;;		wreg, fsr1l, fsr1h, fsr2l, fsr2h, status,2, status,0, cstack
  5455 ;; Tracked objects:
  5456 ;;		On entry : 0/0
  5457 ;;		On exit  : 0/0
  5458 ;;		Unchanged: 0/0
  5459 ;; Data sizes:     COMRAM   BANK0   BANK1   BANK2   BANK3   BANK4   BANK5
  5460 ;;      Params:         0       4       0       0       0       0       0
  5461 ;;      Locals:         0       0       0       0       0       0       0
  5462 ;;      Temps:          0       5       0       0       0       0       0
  5463 ;;      Totals:         0       9       0       0       0       0       0
  5464 ;;Total ram usage:        9 bytes
  5465 ;; Hardware stack levels used:    1
  5466 ;; Hardware stack levels required when called:   12
  5467 ;; This function calls:
  5468 ;;		_putch
  5469 ;; This function is called by:
  5470 ;;		_pad
  5471 ;;		_vfpfcnvrt
  5472 ;;		_fputs
  5473 ;; This function uses a non-reentrant model
  5474 ;;
  5475                           psect	text11,class=CODE,space=0,reloc=2,group=2
  5476                           	file	"E:\ProgramasWindowns\Microchip\xc8\v2.00\pic\sources\c99\common\nf_fputc.c"
  5477                           	line	8
  5478                           global __ptext11
  5479                           __ptext11:
  5480  002224                     psect	text11
  5481                           	file	"E:\ProgramasWindowns\Microchip\xc8\v2.00\pic\sources\c99\common\nf_fputc.c"
  5482                           	line	8
  5483                           	global	__size_of_fputc
  5484                           	__size_of_fputc	equ	__end_of_fputc-_fputc
  5485  0000                     	
  5486                           _fputc:; BSR set to: 0
  5487  002224                     
  5488                           ;incstack = 0
  5489                           	opt	stack 13
  5490                           	line	12
  5491                           	
  5492                           l2117:
  5493  002224                     	movlb	0	; () banked
  5494  002224  0100               	movf	((fputc@fp))&0ffh,w
  5495  002226  5182               iorwf	((fputc@fp+1))&0ffh,w
  5496  002228  1183               	btfsc	status,2
  5497  00222A  B4D8               	goto	u1661
  5498  00222C  EF1A  F011         	goto	u1660
  5499  002230  EF1C  F011         
  5500                           u1661:
  5501  002234                     	goto	l2121
  5502  002234  EF27  F011         u1660:
  5503  002238                     	
  5504                           l2119:; BSR set to: 0
  5505  002238                     
  5506                           	movf	((fputc@fp))&0ffh,w
  5507  002238  5182               iorwf	((fputc@fp+1))&0ffh,w
  5508  00223A  1183               	btfss	status,2
  5509  00223C  A4D8               	goto	u1671
  5510  00223E  EF23  F011         	goto	u1670
  5511  002242  EF25  F011         
  5512                           u1671:
  5513  002246                     	goto	l2123
  5514  002246  EF2C  F011         u1670:
  5515  00224A                     	goto	l2121
  5516  00224A  EF27  F011         	
  5517                           l974:; BSR set to: 0
  5518  00224E                     
  5519                           	line	13
  5520                           	
  5521                           l2121:; BSR set to: 0
  5522  00224E                     
  5523                           	movf	((fputc@c))&0ffh,w
  5524  00224E  5180               	
  5525                           	call	_putch
  5526  002250  EC82  F016         	line	14
  5527                           	goto	l979
  5528  002254  EF82  F011         	
  5529                           l972:
  5530  002258                     	line	15
  5531                           	
  5532                           l2123:
  5533  002258                     	movlb	0	; () banked
  5534  002258  0100               	lfsr	2,04h
  5535  00225A  EE20 F004          	movf	((fputc@fp))&0ffh,w
  5536  00225E  5182               	addwf	fsr2l
  5537  002260  26D9               	movf	((fputc@fp+1))&0ffh,w
  5538  002262  5183               	addwfc	fsr2h
  5539  002264  22DA               	movf	postinc2,w
  5540  002266  50DE               iorwf	postinc2,w
  5541  002268  10DE               	btfsc	status,2
  5542  00226A  B4D8               	goto	u1681
  5543  00226C  EF3A  F011         	goto	u1680
  5544  002270  EF3C  F011         
  5545                           u1681:
  5546  002274                     	goto	l2127
  5547  002274  EF59  F011         u1680:
  5548  002278                     	
  5549                           l2125:; BSR set to: 0
  5550  002278                     
  5551                           	lfsr	2,04h
  5552  002278  EE20 F004          	movf	((fputc@fp))&0ffh,w
  5553  00227C  5182               	addwf	fsr2l
  5554  00227E  26D9               	movf	((fputc@fp+1))&0ffh,w
  5555  002280  5183               	addwfc	fsr2h
  5556  002282  22DA               	lfsr	1,02h
  5557  002284  EE10 F002          	movf	((fputc@fp))&0ffh,w
  5558  002288  5182               	addwf	fsr1l
  5559  00228A  26E1               	movf	((fputc@fp+1))&0ffh,w
  5560  00228C  5183               	addwfc	fsr1h
  5561  00228E  22E2               		movf	postinc2,w
  5562  002290  50DE               	subwf	postinc1,w
  5563  002292  5CE6               	movf	postinc1,w
  5564  002294  50E6               	xorlw	80h
  5565  002296  0A80               	movwf	(??_fputc+4+0)&0ffh
  5566  002298  6F88               	movf	postinc2,w
  5567  00229A  50DE               	xorlw	80h
  5568  00229C  0A80               	subwfb	(??_fputc+4+0)&0ffh,w
  5569  00229E  5988               	btfsc	status,0
  5570  0022A0  B0D8               	goto	u1691
  5571  0022A2  EF55  F011         	goto	u1690
  5572  0022A6  EF57  F011         
  5573                           u1691:
  5574  0022AA                     	goto	l979
  5575  0022AA  EF82  F011         u1690:
  5576  0022AE                     	goto	l2127
  5577  0022AE  EF59  F011         	
  5578                           l978:; BSR set to: 0
  5579  0022B2                     
  5580                           	line	16
  5581                           	
  5582                           l2127:; BSR set to: 0
  5583  0022B2                     
  5584                           	lfsr	2,02h
  5585  0022B2  EE20 F002          	movf	((fputc@fp))&0ffh,w
  5586  0022B6  5182               	addwf	fsr2l
  5587  0022B8  26D9               	movf	((fputc@fp+1))&0ffh,w
  5588  0022BA  5183               	addwfc	fsr2h
  5589  0022BC  22DA               	movff	postinc2,??_fputc+0+0
  5590  0022BE  CFDE F084          	movff	postdec2,??_fputc+0+0+1
  5591  0022C2  CFDD F085          	movff	(fputc@fp),fsr2l
  5592  0022C6  C082  FFD9         	movff	(fputc@fp+1),fsr2h
  5593  0022CA  C083  FFDA         	movff	postinc2,??_fputc+2+0
  5594  0022CE  CFDE F086          	movff	postdec2,??_fputc+2+0+1
  5595  0022D2  CFDD F087          	movf	(??_fputc+0+0)&0ffh,w
  5596  0022D6  5184               	addwf	(??_fputc+2+0)&0ffh,w
  5597  0022D8  2586               	movwf	c:fsr2l
  5598  0022DA  6ED9               	movf	(??_fputc+0+1)&0ffh,w
  5599  0022DC  5185               	addwfc	(??_fputc+2+1)&0ffh,w
  5600  0022DE  2187               	movwf	1+c:fsr2l
  5601  0022E0  6EDA               	movff	(fputc@c),indf2
  5602  0022E2  C080  FFDF         
  5603                           	line	17
  5604                           	lfsr	2,02h
  5605  0022E6  EE20 F002          	movf	((fputc@fp))&0ffh,w
  5606  0022EA  5182               	addwf	fsr2l
  5607  0022EC  26D9               	movf	((fputc@fp+1))&0ffh,w
  5608  0022EE  5183               	addwfc	fsr2h
  5609  0022F0  22DA               	incf	postinc2
  5610  0022F2  2ADE               	movlw	0
  5611  0022F4  0E00               	addwfc	postdec2
  5612  0022F6  22DD               	goto	l979
  5613  0022F8  EF82  F011         	line	18
  5614                           	
  5615                           l976:; BSR set to: 0
  5616  0022FC                     
  5617                           	goto	l979
  5618  0022FC  EF82  F011         	line	19
  5619                           	
  5620                           l975:; BSR set to: 0
  5621  002300                     
  5622                           	goto	l979
  5623  002300  EF82  F011         	line	20
  5624                           	
  5625                           l2129:; BSR set to: 0
  5626  002304                     
  5627                           	line	21
  5628                           ;	Return value of _fputc is never used
  5629                           	
  5630                           l979:
  5631  002304                     	return	;funcret
  5632  002304  0012               	opt stack 0
  5633                           GLOBAL	__end_of_fputc
  5634                           	__end_of_fputc:
  5635  002306                     	signat	_fputc,8314
  5636                           	global	_putch
  5637                           
  5638 ;; *************** function _putch *****************
  5639 ;; Defined at:
  5640 ;;		line 7 in file "E:\ProgramasWindowns\Microchip\xc8\v2.00\pic\sources\c99\common\putch.c"
  5641 ;; Parameters:    Size  Location     Type
  5642 ;;  c               1    wreg     unsigned char 
  5643 ;; Auto vars:     Size  Location     Type
  5644 ;;  c               1    0[COMRAM] unsigned char 
  5645 ;; Return value:  Size  Location     Type
  5646 ;;                  1    wreg      void 
  5647 ;; Registers used:
  5648 ;;		wreg
  5649 ;; Tracked objects:
  5650 ;;		On entry : 0/0
  5651 ;;		On exit  : 0/0
  5652 ;;		Unchanged: 0/0
  5653 ;; Data sizes:     COMRAM   BANK0   BANK1   BANK2   BANK3   BANK4   BANK5
  5654 ;;      Params:         0       0       0       0       0       0       0
  5655 ;;      Locals:         0       0       0       0       0       0       0
  5656 ;;      Temps:          0       0       0       0       0       0       0
  5657 ;;      Totals:         0       0       0       0       0       0       0
  5658 ;;Total ram usage:        0 bytes
  5659 ;; Hardware stack levels used:    1
  5660 ;; Hardware stack levels required when called:   11
  5661 ;; This function calls:
  5662 ;;		Nothing
  5663 ;; This function is called by:
  5664 ;;		_fputc
  5665 ;; This function uses a non-reentrant model
  5666 ;;
  5667                           psect	text12,class=CODE,space=0,reloc=2,group=2
  5668                           	file	"E:\ProgramasWindowns\Microchip\xc8\v2.00\pic\sources\c99\common\putch.c"
  5669                           	line	7
  5670                           global __ptext12
  5671                           __ptext12:
  5672  002D04                     psect	text12
  5673                           	file	"E:\ProgramasWindowns\Microchip\xc8\v2.00\pic\sources\c99\common\putch.c"
  5674                           	line	7
  5675                           	global	__size_of_putch
  5676                           	__size_of_putch	equ	__end_of_putch-_putch
  5677  0000                     	
  5678                           _putch:
  5679  002D04                     ;incstack = 0
  5680                           	opt	stack 13
  5681                           	line	9
  5682                           	
  5683                           l997:
  5684  002D04                     	return	;funcret
  5685  002D04  0012               	opt stack 0
  5686                           GLOBAL	__end_of_putch
  5687                           	__end_of_putch:
  5688  002D06                     	signat	_putch,4217
  5689                           	global	_abs
  5690                           
  5691 ;; *************** function _abs *****************
  5692 ;; Defined at:
  5693 ;;		line 1 in file "E:\ProgramasWindowns\Microchip\xc8\v2.00\pic\sources\c99\common\abs.c"
  5694 ;; Parameters:    Size  Location     Type
  5695 ;;  a               2   18[BANK0 ] int 
  5696 ;; Auto vars:     Size  Location     Type
  5697 ;;		None
  5698 ;; Return value:  Size  Location     Type
  5699 ;;                  2   18[BANK0 ] int 
  5700 ;; Registers used:
  5701 ;;		wreg, status,2, status,0
  5702 ;; Tracked objects:
  5703 ;;		On entry : 0/0
  5704 ;;		On exit  : 0/0
  5705 ;;		Unchanged: 0/0
  5706 ;; Data sizes:     COMRAM   BANK0   BANK1   BANK2   BANK3   BANK4   BANK5
  5707 ;;      Params:         0       2       0       0       0       0       0
  5708 ;;      Locals:         0       0       0       0       0       0       0
  5709 ;;      Temps:          0       2       0       0       0       0       0
  5710 ;;      Totals:         0       4       0       0       0       0       0
  5711 ;;Total ram usage:        4 bytes
  5712 ;; Hardware stack levels used:    1
  5713 ;; Hardware stack levels required when called:   11
  5714 ;; This function calls:
  5715 ;;		Nothing
  5716 ;; This function is called by:
  5717 ;;		_dtoa
  5718 ;; This function uses a non-reentrant model
  5719 ;;
  5720                           psect	text13,class=CODE,space=0,reloc=2,group=2
  5721                           	file	"E:\ProgramasWindowns\Microchip\xc8\v2.00\pic\sources\c99\common\abs.c"
  5722                           	line	1
  5723                           global __ptext13
  5724                           __ptext13:
  5725  002AFA                     psect	text13
  5726                           	file	"E:\ProgramasWindowns\Microchip\xc8\v2.00\pic\sources\c99\common\abs.c"
  5727                           	line	1
  5728                           	global	__size_of_abs
  5729                           	__size_of_abs	equ	__end_of_abs-_abs
  5730  0000                     	
  5731                           _abs:
  5732  002AFA                     ;incstack = 0
  5733                           	opt	stack 13
  5734                           	line	3
  5735                           	
  5736                           l2203:
  5737  002AFA                     	movlb	0	; () banked
  5738  002AFA  0100               	btfsc	((abs@a+1))&0ffh,7
  5739  002AFC  BF93               	goto	u1820
  5740  002AFE  EF8B  F015         	movf	((abs@a+1))&0ffh,w
  5741  002B02  5193               	bnz	u1821
  5742  002B04  E106               	decf	((abs@a))&0ffh,w
  5743  002B06  0592               	btfsc	status,0
  5744  002B08  B0D8               	goto	u1821
  5745  002B0A  EF89  F015         	goto	u1820
  5746  002B0E  EF8B  F015         
  5747                           u1821:
  5748  002B12                     	goto	l964
  5749  002B12  EF99  F015         u1820:
  5750  002B16                     	
  5751                           l2205:; BSR set to: 0
  5752  002B16                     
  5753                           	movff	(abs@a),??_abs+0+0
  5754  002B16  C092  F094         	movff	(abs@a+1),??_abs+0+0+1
  5755  002B1A  C093  F095         	comf	(??_abs+0+0)&0ffh
  5756  002B1E  1F94               	comf	(??_abs+0+1)&0ffh
  5757  002B20  1F95               	infsnz	(??_abs+0+0)&0ffh
  5758  002B22  4B94               	incf	(??_abs+0+1)&0ffh
  5759  002B24  2B95               	movff	??_abs+0+0,(?_abs)
  5760  002B26  C094  F092         	movff	??_abs+0+1,(?_abs+1)
  5761  002B2A  C095  F093         	goto	l967
  5762  002B2E  EF9F  F015         	
  5763                           l964:; BSR set to: 0
  5764  002B32                     
  5765                           	movff	(abs@a),(?_abs)
  5766  002B32  C092  F092         	movff	(abs@a+1),(?_abs+1)
  5767  002B36  C093  F093         	goto	l967
  5768  002B3A  EF9F  F015         	
  5769                           l966:; BSR set to: 0
  5770  002B3E                     
  5771                           	line	4
  5772                           	
  5773                           l967:; BSR set to: 0
  5774  002B3E                     
  5775                           	return	;funcret
  5776  002B3E  0012               	opt stack 0
  5777                           GLOBAL	__end_of_abs
  5778                           	__end_of_abs:
  5779  002B40                     	signat	_abs,4218
  5780                           	global	___aomod
  5781                           
  5782 ;; *************** function ___aomod *****************
  5783 ;; Defined at:
  5784 ;;		line 9 in file "E:\ProgramasWindowns\Microchip\xc8\v2.00\pic\sources\c99\common\aomod.c"
  5785 ;; Parameters:    Size  Location     Type
  5786 ;;  dividend        8    0[BANK0 ] long long 
  5787 ;;  divisor         8    8[BANK0 ] long long 
  5788 ;; Auto vars:     Size  Location     Type
  5789 ;;  sign            1   17[BANK0 ] unsigned char 
  5790 ;;  counter         1   16[BANK0 ] unsigned char 
  5791 ;; Return value:  Size  Location     Type
  5792 ;;                  8    0[BANK0 ] long long 
  5793 ;; Registers used:
  5794 ;;		wreg, status,2, status,0
  5795 ;; Tracked objects:
  5796 ;;		On entry : 0/0
  5797 ;;		On exit  : 0/0
  5798 ;;		Unchanged: 0/0
  5799 ;; Data sizes:     COMRAM   BANK0   BANK1   BANK2   BANK3   BANK4   BANK5
  5800 ;;      Params:         0      16       0       0       0       0       0
  5801 ;;      Locals:         0       2       0       0       0       0       0
  5802 ;;      Temps:          0       0       0       0       0       0       0
  5803 ;;      Totals:         0      18       0       0       0       0       0
  5804 ;;Total ram usage:       18 bytes
  5805 ;; Hardware stack levels used:    1
  5806 ;; Hardware stack levels required when called:   11
  5807 ;; This function calls:
  5808 ;;		Nothing
  5809 ;; This function is called by:
  5810 ;;		_dtoa
  5811 ;; This function uses a non-reentrant model
  5812 ;;
  5813                           psect	text14,class=CODE,space=0,reloc=2,group=1
  5814                           	file	"E:\ProgramasWindowns\Microchip\xc8\v2.00\pic\sources\c99\common\aomod.c"
  5815                           	line	9
  5816                           global __ptext14
  5817                           __ptext14:
  5818  001C80                     psect	text14
  5819                           	file	"E:\ProgramasWindowns\Microchip\xc8\v2.00\pic\sources\c99\common\aomod.c"
  5820                           	line	9
  5821                           	global	__size_of___aomod
  5822                           	__size_of___aomod	equ	__end_of___aomod-___aomod
  5823  0000                     	
  5824                           ___aomod:; BSR set to: 0
  5825  001C80                     
  5826                           ;incstack = 0
  5827                           	opt	stack 13
  5828                           	line	14
  5829                           	
  5830                           l2251:
  5831  001C80                     	movlw	low(0)
  5832  001C80  0E00               	movlb	0	; () banked
  5833  001C82  0100               	movwf	((___aomod@sign))&0ffh
  5834  001C84  6F91               	line	15
  5835                           	
  5836                           l2253:; BSR set to: 0
  5837  001C86                     
  5838                           	btfsc	((___aomod@dividend+7))&0ffh,7
  5839  001C86  BF87               	goto	u1900
  5840  001C88  EF4A  F00E         	goto	u1901
  5841  001C8C  EF48  F00E         
  5842                           u1901:
  5843  001C90                     	goto	l2259
  5844  001C90  EF5E  F00E         u1900:
  5845  001C94                     	line	16
  5846                           	
  5847                           l2255:; BSR set to: 0
  5848  001C94                     
  5849                           	comf	((___aomod@dividend+7))&0ffh
  5850  001C94  1F87               	comf	((___aomod@dividend+6))&0ffh
  5851  001C96  1F86               	comf	((___aomod@dividend+5))&0ffh
  5852  001C98  1F85               	comf	((___aomod@dividend+4))&0ffh
  5853  001C9A  1F84               	comf	((___aomod@dividend+3))&0ffh
  5854  001C9C  1F83               	comf	((___aomod@dividend+2))&0ffh
  5855  001C9E  1F82               	comf	((___aomod@dividend+1))&0ffh
  5856  001CA0  1F81               	negf	((___aomod@dividend))&0ffh
  5857  001CA2  6D80               	movlw	0
  5858  001CA4  0E00               	addwfc	((___aomod@dividend+1))&0ffh
  5859  001CA6  2381               	addwfc	((___aomod@dividend+2))&0ffh
  5860  001CA8  2382               	addwfc	((___aomod@dividend+3))&0ffh
  5861  001CAA  2383               	addwfc	((___aomod@dividend+4))&0ffh
  5862  001CAC  2384               	addwfc	((___aomod@dividend+5))&0ffh
  5863  001CAE  2385               	addwfc	((___aomod@dividend+6))&0ffh
  5864  001CB0  2386               	addwfc	((___aomod@dividend+7))&0ffh
  5865  001CB2  2387               	line	17
  5866                           	
  5867                           l2257:; BSR set to: 0
  5868  001CB4                     
  5869                           	movlw	low(01h)
  5870  001CB4  0E01               	movwf	((___aomod@sign))&0ffh
  5871  001CB6  6F91               	goto	l2259
  5872  001CB8  EF5E  F00E         	line	18
  5873                           	
  5874                           l406:; BSR set to: 0
  5875  001CBC                     
  5876                           	line	19
  5877                           	
  5878                           l2259:; BSR set to: 0
  5879  001CBC                     
  5880                           	btfsc	((___aomod@divisor+7))&0ffh,7
  5881  001CBC  BF8F               	goto	u1910
  5882  001CBE  EF65  F00E         	goto	u1911
  5883  001CC2  EF63  F00E         
  5884                           u1911:
  5885  001CC6                     	goto	l2263
  5886  001CC6  EF77  F00E         u1910:
  5887  001CCA                     	line	20
  5888                           	
  5889                           l2261:; BSR set to: 0
  5890  001CCA                     
  5891                           	comf	((___aomod@divisor+7))&0ffh
  5892  001CCA  1F8F               	comf	((___aomod@divisor+6))&0ffh
  5893  001CCC  1F8E               	comf	((___aomod@divisor+5))&0ffh
  5894  001CCE  1F8D               	comf	((___aomod@divisor+4))&0ffh
  5895  001CD0  1F8C               	comf	((___aomod@divisor+3))&0ffh
  5896  001CD2  1F8B               	comf	((___aomod@divisor+2))&0ffh
  5897  001CD4  1F8A               	comf	((___aomod@divisor+1))&0ffh
  5898  001CD6  1F89               	negf	((___aomod@divisor))&0ffh
  5899  001CD8  6D88               	movlw	0
  5900  001CDA  0E00               	addwfc	((___aomod@divisor+1))&0ffh
  5901  001CDC  2389               	addwfc	((___aomod@divisor+2))&0ffh
  5902  001CDE  238A               	addwfc	((___aomod@divisor+3))&0ffh
  5903  001CE0  238B               	addwfc	((___aomod@divisor+4))&0ffh
  5904  001CE2  238C               	addwfc	((___aomod@divisor+5))&0ffh
  5905  001CE4  238D               	addwfc	((___aomod@divisor+6))&0ffh
  5906  001CE6  238E               	addwfc	((___aomod@divisor+7))&0ffh
  5907  001CE8  238F               	goto	l2263
  5908  001CEA  EF77  F00E         	
  5909                           l407:; BSR set to: 0
  5910  001CEE                     
  5911                           	line	21
  5912                           	
  5913                           l2263:; BSR set to: 0
  5914  001CEE                     
  5915                           	movf	((___aomod@divisor))&0ffh,w
  5916  001CEE  5188               iorwf	((___aomod@divisor+1))&0ffh,w
  5917  001CF0  1189               iorwf	((___aomod@divisor+2))&0ffh,w
  5918  001CF2  118A               iorwf	((___aomod@divisor+3))&0ffh,w
  5919  001CF4  118B               iorwf	((___aomod@divisor+4))&0ffh,w
  5920  001CF6  118C               iorwf	((___aomod@divisor+5))&0ffh,w
  5921  001CF8  118D               iorwf	((___aomod@divisor+6))&0ffh,w
  5922  001CFA  118E               iorwf	((___aomod@divisor+7))&0ffh,w
  5923  001CFC  118F               	btfsc	status,2
  5924  001CFE  B4D8               	goto	u1921
  5925  001D00  EF84  F00E         	goto	u1920
  5926  001D04  EF86  F00E         
  5927                           u1921:
  5928  001D08                     	goto	l2279
  5929  001D08  EFDA  F00E         u1920:
  5930  001D0C                     	line	22
  5931                           	
  5932                           l2265:; BSR set to: 0
  5933  001D0C                     
  5934                           	movlw	low(01h)
  5935  001D0C  0E01               	movwf	((___aomod@counter))&0ffh
  5936  001D0E  6F90               	line	23
  5937                           	goto	l2269
  5938  001D10  EF96  F00E         	
  5939                           l410:; BSR set to: 0
  5940  001D14                     
  5941                           	line	24
  5942                           	
  5943                           l2267:; BSR set to: 0
  5944  001D14                     
  5945                           	bcf	status,0
  5946  001D14  90D8               	rlcf	((___aomod@divisor))&0ffh
  5947  001D16  3788               	rlcf	((___aomod@divisor+1))&0ffh
  5948  001D18  3789               	rlcf	((___aomod@divisor+2))&0ffh
  5949  001D1A  378A               	rlcf	((___aomod@divisor+3))&0ffh
  5950  001D1C  378B               	rlcf	((___aomod@divisor+4))&0ffh
  5951  001D1E  378C               	rlcf	((___aomod@divisor+5))&0ffh
  5952  001D20  378D               	rlcf	((___aomod@divisor+6))&0ffh
  5953  001D22  378E               	rlcf	((___aomod@divisor+7))&0ffh
  5954  001D24  378F               	line	25
  5955                           	incf	((___aomod@counter))&0ffh
  5956  001D26  2B90               	goto	l2269
  5957  001D28  EF96  F00E         	line	26
  5958                           	
  5959                           l409:; BSR set to: 0
  5960  001D2C                     
  5961                           	line	23
  5962                           	
  5963                           l2269:; BSR set to: 0
  5964  001D2C                     
  5965                           	
  5966                           	btfss	((___aomod@divisor+7))&0ffh,(63)&7
  5967  001D2C  AF8F               	goto	u1931
  5968  001D2E  EF9B  F00E         	goto	u1930
  5969  001D32  EF9D  F00E         u1931:
  5970  001D36                     	goto	l2267
  5971  001D36  EF8A  F00E         u1930:
  5972  001D3A                     	goto	l2271
  5973  001D3A  EFA1  F00E         	
  5974                           l411:; BSR set to: 0
  5975  001D3E                     
  5976                           	goto	l2271
  5977  001D3E  EFA1  F00E         	line	27
  5978                           	
  5979                           l412:; BSR set to: 0
  5980  001D42                     
  5981                           	line	28
  5982                           	
  5983                           l2271:; BSR set to: 0
  5984  001D42                     
  5985                           		movf	((___aomod@divisor))&0ffh,w
  5986  001D42  5188               	subwf	((___aomod@dividend))&0ffh,w
  5987  001D44  5D80               	movf	((___aomod@divisor+1))&0ffh,w
  5988  001D46  5189               	subwfb	((___aomod@dividend+1))&0ffh,w
  5989  001D48  5981               	movf	((___aomod@divisor+2))&0ffh,w
  5990  001D4A  518A               	subwfb	((___aomod@dividend+2))&0ffh,w
  5991  001D4C  5982               	movf	((___aomod@divisor+3))&0ffh,w
  5992  001D4E  518B               	subwfb	((___aomod@dividend+3))&0ffh,w
  5993  001D50  5983               	movf	((___aomod@divisor+4))&0ffh,w
  5994  001D52  518C               	subwfb	((___aomod@dividend+4))&0ffh,w
  5995  001D54  5984               	movf	((___aomod@divisor+5))&0ffh,w
  5996  001D56  518D               	subwfb	((___aomod@dividend+5))&0ffh,w
  5997  001D58  5985               	movf	((___aomod@divisor+6))&0ffh,w
  5998  001D5A  518E               	subwfb	((___aomod@dividend+6))&0ffh,w
  5999  001D5C  5986               	movf	((___aomod@divisor+7))&0ffh,w
  6000  001D5E  518F               	subwfb	((___aomod@dividend+7))&0ffh,w
  6001  001D60  5987               	btfss	status,0
  6002  001D62  A0D8               	goto	u1941
  6003  001D64  EFB6  F00E         	goto	u1940
  6004  001D68  EFB8  F00E         
  6005                           u1941:
  6006  001D6C                     	goto	l2275
  6007  001D6C  EFCA  F00E         u1940:
  6008  001D70                     	line	29
  6009                           	
  6010                           l2273:; BSR set to: 0
  6011  001D70                     
  6012                           	movf	((___aomod@divisor))&0ffh,w
  6013  001D70  5188               	subwf	((___aomod@dividend))&0ffh
  6014  001D72  5F80               	movf	((___aomod@divisor+1))&0ffh,w
  6015  001D74  5189               	subwfb	((___aomod@dividend+1))&0ffh
  6016  001D76  5B81               	movf	((___aomod@divisor+2))&0ffh,w
  6017  001D78  518A               	subwfb	((___aomod@dividend+2))&0ffh
  6018  001D7A  5B82               	movf	((___aomod@divisor+3))&0ffh,w
  6019  001D7C  518B               	subwfb	((___aomod@dividend+3))&0ffh
  6020  001D7E  5B83               	movf	((___aomod@divisor+4))&0ffh,w
  6021  001D80  518C               	subwfb	((___aomod@dividend+4))&0ffh
  6022  001D82  5B84               	movf	((___aomod@divisor+5))&0ffh,w
  6023  001D84  518D               	subwfb	((___aomod@dividend+5))&0ffh
  6024  001D86  5B85               	movf	((___aomod@divisor+6))&0ffh,w
  6025  001D88  518E               	subwfb	((___aomod@dividend+6))&0ffh
  6026  001D8A  5B86               	movf	((___aomod@divisor+7))&0ffh,w
  6027  001D8C  518F               	subwfb	((___aomod@dividend+7))&0ffh
  6028  001D8E  5B87               	goto	l2275
  6029  001D90  EFCA  F00E         	
  6030                           l413:; BSR set to: 0
  6031  001D94                     
  6032                           	line	30
  6033                           	
  6034                           l2275:; BSR set to: 0
  6035  001D94                     
  6036                           	bcf	status,0
  6037  001D94  90D8               	rrcf	((___aomod@divisor+7))&0ffh
  6038  001D96  338F               	rrcf	((___aomod@divisor+6))&0ffh
  6039  001D98  338E               	rrcf	((___aomod@divisor+5))&0ffh
  6040  001D9A  338D               	rrcf	((___aomod@divisor+4))&0ffh
  6041  001D9C  338C               	rrcf	((___aomod@divisor+3))&0ffh
  6042  001D9E  338B               	rrcf	((___aomod@divisor+2))&0ffh
  6043  001DA0  338A               	rrcf	((___aomod@divisor+1))&0ffh
  6044  001DA2  3389               	rrcf	((___aomod@divisor))&0ffh
  6045  001DA4  3388               	line	31
  6046                           	
  6047                           l2277:; BSR set to: 0
  6048  001DA6                     
  6049                           	decfsz	((___aomod@counter))&0ffh
  6050  001DA6  2F90               	
  6051                           	goto	l2271
  6052  001DA8  EFA1  F00E         	goto	l2279
  6053  001DAC  EFDA  F00E         	
  6054                           l414:; BSR set to: 0
  6055  001DB0                     
  6056                           	goto	l2279
  6057  001DB0  EFDA  F00E         	line	32
  6058                           	
  6059                           l408:; BSR set to: 0
  6060  001DB4                     
  6061                           	line	33
  6062                           	
  6063                           l2279:; BSR set to: 0
  6064  001DB4                     
  6065                           	movf	((___aomod@sign))&0ffh,w
  6066  001DB4  5191               	btfsc	status,2
  6067  001DB6  B4D8               	goto	u1951
  6068  001DB8  EFE0  F00E         	goto	u1950
  6069  001DBC  EFE2  F00E         u1951:
  6070  001DC0                     	goto	l2283
  6071  001DC0  EFF4  F00E         u1950:
  6072  001DC4                     	line	34
  6073                           	
  6074                           l2281:; BSR set to: 0
  6075  001DC4                     
  6076                           	comf	((___aomod@dividend+7))&0ffh
  6077  001DC4  1F87               	comf	((___aomod@dividend+6))&0ffh
  6078  001DC6  1F86               	comf	((___aomod@dividend+5))&0ffh
  6079  001DC8  1F85               	comf	((___aomod@dividend+4))&0ffh
  6080  001DCA  1F84               	comf	((___aomod@dividend+3))&0ffh
  6081  001DCC  1F83               	comf	((___aomod@dividend+2))&0ffh
  6082  001DCE  1F82               	comf	((___aomod@dividend+1))&0ffh
  6083  001DD0  1F81               	negf	((___aomod@dividend))&0ffh
  6084  001DD2  6D80               	movlw	0
  6085  001DD4  0E00               	addwfc	((___aomod@dividend+1))&0ffh
  6086  001DD6  2381               	addwfc	((___aomod@dividend+2))&0ffh
  6087  001DD8  2382               	addwfc	((___aomod@dividend+3))&0ffh
  6088  001DDA  2383               	addwfc	((___aomod@dividend+4))&0ffh
  6089  001DDC  2384               	addwfc	((___aomod@dividend+5))&0ffh
  6090  001DDE  2385               	addwfc	((___aomod@dividend+6))&0ffh
  6091  001DE0  2386               	addwfc	((___aomod@dividend+7))&0ffh
  6092  001DE2  2387               	goto	l2283
  6093  001DE4  EFF4  F00E         	
  6094                           l415:; BSR set to: 0
  6095  001DE8                     
  6096                           	line	35
  6097                           	
  6098                           l2283:; BSR set to: 0
  6099  001DE8                     
  6100                           	movff	(___aomod@dividend),(?___aomod)
  6101  001DE8  C080  F080         	movff	(___aomod@dividend+1),(?___aomod+1)
  6102  001DEC  C081  F081         	movff	(___aomod@dividend+2),(?___aomod+2)
  6103  001DF0  C082  F082         	movff	(___aomod@dividend+3),(?___aomod+3)
  6104  001DF4  C083  F083         	movff	(___aomod@dividend+4),(?___aomod+4)
  6105  001DF8  C084  F084         	movff	(___aomod@dividend+5),(?___aomod+5)
  6106  001DFC  C085  F085         	movff	(___aomod@dividend+6),(?___aomod+6)
  6107  001E00  C086  F086         	movff	(___aomod@dividend+7),(?___aomod+7)
  6108  001E04  C087  F087         	goto	l416
  6109  001E08  EF06  F00F         	
  6110                           l2285:; BSR set to: 0
  6111  001E0C                     
  6112                           	line	36
  6113                           	
  6114                           l416:; BSR set to: 0
  6115  001E0C                     
  6116                           	return	;funcret
  6117  001E0C  0012               	opt stack 0
  6118                           GLOBAL	__end_of___aomod
  6119                           	__end_of___aomod:
  6120  001E0E                     	signat	___aomod,8319
  6121                           	global	___aodiv
  6122                           
  6123 ;; *************** function ___aodiv *****************
  6124 ;; Defined at:
  6125 ;;		line 9 in file "E:\ProgramasWindowns\Microchip\xc8\v2.00\pic\sources\c99\common\aodiv.c"
  6126 ;; Parameters:    Size  Location     Type
  6127 ;;  dividend        8    0[BANK0 ] long long 
  6128 ;;  divisor         8    8[BANK0 ] long long 
  6129 ;; Auto vars:     Size  Location     Type
  6130 ;;  quotient        8   18[BANK0 ] long long 
  6131 ;;  sign            1   17[BANK0 ] unsigned char 
  6132 ;;  counter         1   16[BANK0 ] unsigned char 
  6133 ;; Return value:  Size  Location     Type
  6134 ;;                  8    0[BANK0 ] long long 
  6135 ;; Registers used:
  6136 ;;		wreg, fsr2l, fsr2h, status,2, status,0
  6137 ;; Tracked objects:
  6138 ;;		On entry : 0/0
  6139 ;;		On exit  : 0/0
  6140 ;;		Unchanged: 0/0
  6141 ;; Data sizes:     COMRAM   BANK0   BANK1   BANK2   BANK3   BANK4   BANK5
  6142 ;;      Params:         0      16       0       0       0       0       0
  6143 ;;      Locals:         0      10       0       0       0       0       0
  6144 ;;      Temps:          0       0       0       0       0       0       0
  6145 ;;      Totals:         0      26       0       0       0       0       0
  6146 ;;Total ram usage:       26 bytes
  6147 ;; Hardware stack levels used:    1
  6148 ;; Hardware stack levels required when called:   11
  6149 ;; This function calls:
  6150 ;;		Nothing
  6151 ;; This function is called by:
  6152 ;;		_dtoa
  6153 ;; This function uses a non-reentrant model
  6154 ;;
  6155                           psect	text15,class=CODE,space=0,reloc=2,group=1
  6156                           	file	"E:\ProgramasWindowns\Microchip\xc8\v2.00\pic\sources\c99\common\aodiv.c"
  6157                           	line	9
  6158                           global __ptext15
  6159                           __ptext15:
  6160  00191E                     psect	text15
  6161                           	file	"E:\ProgramasWindowns\Microchip\xc8\v2.00\pic\sources\c99\common\aodiv.c"
  6162                           	line	9
  6163                           	global	__size_of___aodiv
  6164                           	__size_of___aodiv	equ	__end_of___aodiv-___aodiv
  6165  0000                     	
  6166                           ___aodiv:; BSR set to: 0
  6167  00191E                     
  6168                           ;incstack = 0
  6169                           	opt	stack 13
  6170                           	line	15
  6171                           	
  6172                           l2207:
  6173  00191E                     	movlw	low(0)
  6174  00191E  0E00               	movlb	0	; () banked
  6175  001920  0100               	movwf	((___aodiv@sign))&0ffh
  6176  001922  6F91               	line	16
  6177                           	
  6178                           l2209:; BSR set to: 0
  6179  001924                     
  6180                           	btfsc	((___aodiv@divisor+7))&0ffh,7
  6181  001924  BF8F               	goto	u1830
  6182  001926  EF99  F00C         	goto	u1831
  6183  00192A  EF97  F00C         
  6184                           u1831:
  6185  00192E                     	goto	l2215
  6186  00192E  EFAD  F00C         u1830:
  6187  001932                     	line	17
  6188                           	
  6189                           l2211:; BSR set to: 0
  6190  001932                     
  6191                           	comf	((___aodiv@divisor+7))&0ffh
  6192  001932  1F8F               	comf	((___aodiv@divisor+6))&0ffh
  6193  001934  1F8E               	comf	((___aodiv@divisor+5))&0ffh
  6194  001936  1F8D               	comf	((___aodiv@divisor+4))&0ffh
  6195  001938  1F8C               	comf	((___aodiv@divisor+3))&0ffh
  6196  00193A  1F8B               	comf	((___aodiv@divisor+2))&0ffh
  6197  00193C  1F8A               	comf	((___aodiv@divisor+1))&0ffh
  6198  00193E  1F89               	negf	((___aodiv@divisor))&0ffh
  6199  001940  6D88               	movlw	0
  6200  001942  0E00               	addwfc	((___aodiv@divisor+1))&0ffh
  6201  001944  2389               	addwfc	((___aodiv@divisor+2))&0ffh
  6202  001946  238A               	addwfc	((___aodiv@divisor+3))&0ffh
  6203  001948  238B               	addwfc	((___aodiv@divisor+4))&0ffh
  6204  00194A  238C               	addwfc	((___aodiv@divisor+5))&0ffh
  6205  00194C  238D               	addwfc	((___aodiv@divisor+6))&0ffh
  6206  00194E  238E               	addwfc	((___aodiv@divisor+7))&0ffh
  6207  001950  238F               	line	18
  6208                           	
  6209                           l2213:; BSR set to: 0
  6210  001952                     
  6211                           	movlw	low(01h)
  6212  001952  0E01               	movwf	((___aodiv@sign))&0ffh
  6213  001954  6F91               	goto	l2215
  6214  001956  EFAD  F00C         	line	19
  6215                           	
  6216                           l393:; BSR set to: 0
  6217  00195A                     
  6218                           	line	20
  6219                           	
  6220                           l2215:; BSR set to: 0
  6221  00195A                     
  6222                           	btfsc	((___aodiv@dividend+7))&0ffh,7
  6223  00195A  BF87               	goto	u1840
  6224  00195C  EFB4  F00C         	goto	u1841
  6225  001960  EFB2  F00C         
  6226                           u1841:
  6227  001964                     	goto	l2221
  6228  001964  EFC8  F00C         u1840:
  6229  001968                     	line	21
  6230                           	
  6231                           l2217:; BSR set to: 0
  6232  001968                     
  6233                           	comf	((___aodiv@dividend+7))&0ffh
  6234  001968  1F87               	comf	((___aodiv@dividend+6))&0ffh
  6235  00196A  1F86               	comf	((___aodiv@dividend+5))&0ffh
  6236  00196C  1F85               	comf	((___aodiv@dividend+4))&0ffh
  6237  00196E  1F84               	comf	((___aodiv@dividend+3))&0ffh
  6238  001970  1F83               	comf	((___aodiv@dividend+2))&0ffh
  6239  001972  1F82               	comf	((___aodiv@dividend+1))&0ffh
  6240  001974  1F81               	negf	((___aodiv@dividend))&0ffh
  6241  001976  6D80               	movlw	0
  6242  001978  0E00               	addwfc	((___aodiv@dividend+1))&0ffh
  6243  00197A  2381               	addwfc	((___aodiv@dividend+2))&0ffh
  6244  00197C  2382               	addwfc	((___aodiv@dividend+3))&0ffh
  6245  00197E  2383               	addwfc	((___aodiv@dividend+4))&0ffh
  6246  001980  2384               	addwfc	((___aodiv@dividend+5))&0ffh
  6247  001982  2385               	addwfc	((___aodiv@dividend+6))&0ffh
  6248  001984  2386               	addwfc	((___aodiv@dividend+7))&0ffh
  6249  001986  2387               	line	22
  6250                           	
  6251                           l2219:; BSR set to: 0
  6252  001988                     
  6253                           	movlw	(01h)&0ffh
  6254  001988  0E01               	xorwf	((___aodiv@sign))&0ffh
  6255  00198A  1B91               	goto	l2221
  6256  00198C  EFC8  F00C         	line	23
  6257                           	
  6258                           l394:; BSR set to: 0
  6259  001990                     
  6260                           	line	24
  6261                           	
  6262                           l2221:; BSR set to: 0
  6263  001990                     
  6264                           	lfsr	2,(___aodiv@quotient)
  6265  001990  EE20  F092         	movlw	8-1
  6266  001994  0E07               u1851:
  6267  001996                     	clrf	postinc2
  6268  001996  6ADE               	decf	wreg
  6269  001998  06E8               	bc	u1851
  6270  00199A  E2FD               	line	25
  6271                           	
  6272                           l2223:; BSR set to: 0
  6273  00199C                     
  6274                           	movf	((___aodiv@divisor))&0ffh,w
  6275  00199C  5188               iorwf	((___aodiv@divisor+1))&0ffh,w
  6276  00199E  1189               iorwf	((___aodiv@divisor+2))&0ffh,w
  6277  0019A0  118A               iorwf	((___aodiv@divisor+3))&0ffh,w
  6278  0019A2  118B               iorwf	((___aodiv@divisor+4))&0ffh,w
  6279  0019A4  118C               iorwf	((___aodiv@divisor+5))&0ffh,w
  6280  0019A6  118D               iorwf	((___aodiv@divisor+6))&0ffh,w
  6281  0019A8  118E               iorwf	((___aodiv@divisor+7))&0ffh,w
  6282  0019AA  118F               	btfsc	status,2
  6283  0019AC  B4D8               	goto	u1861
  6284  0019AE  EFDB  F00C         	goto	u1860
  6285  0019B2  EFDD  F00C         
  6286                           u1861:
  6287  0019B6                     	goto	l2243
  6288  0019B6  EF3B  F00D         u1860:
  6289  0019BA                     	line	26
  6290                           	
  6291                           l2225:; BSR set to: 0
  6292  0019BA                     
  6293                           	movlw	low(01h)
  6294  0019BA  0E01               	movwf	((___aodiv@counter))&0ffh
  6295  0019BC  6F90               	line	27
  6296                           	goto	l2229
  6297  0019BE  EFED  F00C         	
  6298                           l397:; BSR set to: 0
  6299  0019C2                     
  6300                           	line	28
  6301                           	
  6302                           l2227:; BSR set to: 0
  6303  0019C2                     
  6304                           	bcf	status,0
  6305  0019C2  90D8               	rlcf	((___aodiv@divisor))&0ffh
  6306  0019C4  3788               	rlcf	((___aodiv@divisor+1))&0ffh
  6307  0019C6  3789               	rlcf	((___aodiv@divisor+2))&0ffh
  6308  0019C8  378A               	rlcf	((___aodiv@divisor+3))&0ffh
  6309  0019CA  378B               	rlcf	((___aodiv@divisor+4))&0ffh
  6310  0019CC  378C               	rlcf	((___aodiv@divisor+5))&0ffh
  6311  0019CE  378D               	rlcf	((___aodiv@divisor+6))&0ffh
  6312  0019D0  378E               	rlcf	((___aodiv@divisor+7))&0ffh
  6313  0019D2  378F               	line	29
  6314                           	incf	((___aodiv@counter))&0ffh
  6315  0019D4  2B90               	goto	l2229
  6316  0019D6  EFED  F00C         	line	30
  6317                           	
  6318                           l396:; BSR set to: 0
  6319  0019DA                     
  6320                           	line	27
  6321                           	
  6322                           l2229:; BSR set to: 0
  6323  0019DA                     
  6324                           	
  6325                           	btfss	((___aodiv@divisor+7))&0ffh,(63)&7
  6326  0019DA  AF8F               	goto	u1871
  6327  0019DC  EFF2  F00C         	goto	u1870
  6328  0019E0  EFF4  F00C         u1871:
  6329  0019E4                     	goto	l2227
  6330  0019E4  EFE1  F00C         u1870:
  6331  0019E8                     	goto	l2231
  6332  0019E8  EFF8  F00C         	
  6333                           l398:; BSR set to: 0
  6334  0019EC                     
  6335                           	goto	l2231
  6336  0019EC  EFF8  F00C         	line	31
  6337                           	
  6338                           l399:; BSR set to: 0
  6339  0019F0                     
  6340                           	line	32
  6341                           	
  6342                           l2231:; BSR set to: 0
  6343  0019F0                     
  6344                           	bcf	status,0
  6345  0019F0  90D8               	rlcf	((___aodiv@quotient))&0ffh
  6346  0019F2  3792               	rlcf	((___aodiv@quotient+1))&0ffh
  6347  0019F4  3793               	rlcf	((___aodiv@quotient+2))&0ffh
  6348  0019F6  3794               	rlcf	((___aodiv@quotient+3))&0ffh
  6349  0019F8  3795               	rlcf	((___aodiv@quotient+4))&0ffh
  6350  0019FA  3796               	rlcf	((___aodiv@quotient+5))&0ffh
  6351  0019FC  3797               	rlcf	((___aodiv@quotient+6))&0ffh
  6352  0019FE  3798               	rlcf	((___aodiv@quotient+7))&0ffh
  6353  001A00  3799               	line	33
  6354                           	
  6355                           l2233:; BSR set to: 0
  6356  001A02                     
  6357                           		movf	((___aodiv@divisor))&0ffh,w
  6358  001A02  5188               	subwf	((___aodiv@dividend))&0ffh,w
  6359  001A04  5D80               	movf	((___aodiv@divisor+1))&0ffh,w
  6360  001A06  5189               	subwfb	((___aodiv@dividend+1))&0ffh,w
  6361  001A08  5981               	movf	((___aodiv@divisor+2))&0ffh,w
  6362  001A0A  518A               	subwfb	((___aodiv@dividend+2))&0ffh,w
  6363  001A0C  5982               	movf	((___aodiv@divisor+3))&0ffh,w
  6364  001A0E  518B               	subwfb	((___aodiv@dividend+3))&0ffh,w
  6365  001A10  5983               	movf	((___aodiv@divisor+4))&0ffh,w
  6366  001A12  518C               	subwfb	((___aodiv@dividend+4))&0ffh,w
  6367  001A14  5984               	movf	((___aodiv@divisor+5))&0ffh,w
  6368  001A16  518D               	subwfb	((___aodiv@dividend+5))&0ffh,w
  6369  001A18  5985               	movf	((___aodiv@divisor+6))&0ffh,w
  6370  001A1A  518E               	subwfb	((___aodiv@dividend+6))&0ffh,w
  6371  001A1C  5986               	movf	((___aodiv@divisor+7))&0ffh,w
  6372  001A1E  518F               	subwfb	((___aodiv@dividend+7))&0ffh,w
  6373  001A20  5987               	btfss	status,0
  6374  001A22  A0D8               	goto	u1881
  6375  001A24  EF16  F00D         	goto	u1880
  6376  001A28  EF18  F00D         
  6377                           u1881:
  6378  001A2C                     	goto	l2239
  6379  001A2C  EF2B  F00D         u1880:
  6380  001A30                     	line	34
  6381                           	
  6382                           l2235:; BSR set to: 0
  6383  001A30                     
  6384                           	movf	((___aodiv@divisor))&0ffh,w
  6385  001A30  5188               	subwf	((___aodiv@dividend))&0ffh
  6386  001A32  5F80               	movf	((___aodiv@divisor+1))&0ffh,w
  6387  001A34  5189               	subwfb	((___aodiv@dividend+1))&0ffh
  6388  001A36  5B81               	movf	((___aodiv@divisor+2))&0ffh,w
  6389  001A38  518A               	subwfb	((___aodiv@dividend+2))&0ffh
  6390  001A3A  5B82               	movf	((___aodiv@divisor+3))&0ffh,w
  6391  001A3C  518B               	subwfb	((___aodiv@dividend+3))&0ffh
  6392  001A3E  5B83               	movf	((___aodiv@divisor+4))&0ffh,w
  6393  001A40  518C               	subwfb	((___aodiv@dividend+4))&0ffh
  6394  001A42  5B84               	movf	((___aodiv@divisor+5))&0ffh,w
  6395  001A44  518D               	subwfb	((___aodiv@dividend+5))&0ffh
  6396  001A46  5B85               	movf	((___aodiv@divisor+6))&0ffh,w
  6397  001A48  518E               	subwfb	((___aodiv@dividend+6))&0ffh
  6398  001A4A  5B86               	movf	((___aodiv@divisor+7))&0ffh,w
  6399  001A4C  518F               	subwfb	((___aodiv@dividend+7))&0ffh
  6400  001A4E  5B87               	line	35
  6401                           	
  6402                           l2237:; BSR set to: 0
  6403  001A50                     
  6404                           	bsf	(0+(0/8)+(___aodiv@quotient))&0ffh,(0)&7
  6405  001A50  8192               	goto	l2239
  6406  001A52  EF2B  F00D         	line	36
  6407                           	
  6408                           l400:; BSR set to: 0
  6409  001A56                     
  6410                           	line	37
  6411                           	
  6412                           l2239:; BSR set to: 0
  6413  001A56                     
  6414                           	bcf	status,0
  6415  001A56  90D8               	rrcf	((___aodiv@divisor+7))&0ffh
  6416  001A58  338F               	rrcf	((___aodiv@divisor+6))&0ffh
  6417  001A5A  338E               	rrcf	((___aodiv@divisor+5))&0ffh
  6418  001A5C  338D               	rrcf	((___aodiv@divisor+4))&0ffh
  6419  001A5E  338C               	rrcf	((___aodiv@divisor+3))&0ffh
  6420  001A60  338B               	rrcf	((___aodiv@divisor+2))&0ffh
  6421  001A62  338A               	rrcf	((___aodiv@divisor+1))&0ffh
  6422  001A64  3389               	rrcf	((___aodiv@divisor))&0ffh
  6423  001A66  3388               	line	38
  6424                           	
  6425                           l2241:; BSR set to: 0
  6426  001A68                     
  6427                           	decfsz	((___aodiv@counter))&0ffh
  6428  001A68  2F90               	
  6429                           	goto	l2231
  6430  001A6A  EFF8  F00C         	goto	l2243
  6431  001A6E  EF3B  F00D         	
  6432                           l401:; BSR set to: 0
  6433  001A72                     
  6434                           	goto	l2243
  6435  001A72  EF3B  F00D         	line	39
  6436                           	
  6437                           l395:; BSR set to: 0
  6438  001A76                     
  6439                           	line	40
  6440                           	
  6441                           l2243:; BSR set to: 0
  6442  001A76                     
  6443                           	movf	((___aodiv@sign))&0ffh,w
  6444  001A76  5191               	btfsc	status,2
  6445  001A78  B4D8               	goto	u1891
  6446  001A7A  EF41  F00D         	goto	u1890
  6447  001A7E  EF43  F00D         u1891:
  6448  001A82                     	goto	l2247
  6449  001A82  EF55  F00D         u1890:
  6450  001A86                     	line	41
  6451                           	
  6452                           l2245:; BSR set to: 0
  6453  001A86                     
  6454                           	comf	((___aodiv@quotient+7))&0ffh
  6455  001A86  1F99               	comf	((___aodiv@quotient+6))&0ffh
  6456  001A88  1F98               	comf	((___aodiv@quotient+5))&0ffh
  6457  001A8A  1F97               	comf	((___aodiv@quotient+4))&0ffh
  6458  001A8C  1F96               	comf	((___aodiv@quotient+3))&0ffh
  6459  001A8E  1F95               	comf	((___aodiv@quotient+2))&0ffh
  6460  001A90  1F94               	comf	((___aodiv@quotient+1))&0ffh
  6461  001A92  1F93               	negf	((___aodiv@quotient))&0ffh
  6462  001A94  6D92               	movlw	0
  6463  001A96  0E00               	addwfc	((___aodiv@quotient+1))&0ffh
  6464  001A98  2393               	addwfc	((___aodiv@quotient+2))&0ffh
  6465  001A9A  2394               	addwfc	((___aodiv@quotient+3))&0ffh
  6466  001A9C  2395               	addwfc	((___aodiv@quotient+4))&0ffh
  6467  001A9E  2396               	addwfc	((___aodiv@quotient+5))&0ffh
  6468  001AA0  2397               	addwfc	((___aodiv@quotient+6))&0ffh
  6469  001AA2  2398               	addwfc	((___aodiv@quotient+7))&0ffh
  6470  001AA4  2399               	goto	l2247
  6471  001AA6  EF55  F00D         	
  6472                           l402:; BSR set to: 0
  6473  001AAA                     
  6474                           	line	42
  6475                           	
  6476                           l2247:; BSR set to: 0
  6477  001AAA                     
  6478                           	movff	(___aodiv@quotient),(?___aodiv)
  6479  001AAA  C092  F080         	movff	(___aodiv@quotient+1),(?___aodiv+1)
  6480  001AAE  C093  F081         	movff	(___aodiv@quotient+2),(?___aodiv+2)
  6481  001AB2  C094  F082         	movff	(___aodiv@quotient+3),(?___aodiv+3)
  6482  001AB6  C095  F083         	movff	(___aodiv@quotient+4),(?___aodiv+4)
  6483  001ABA  C096  F084         	movff	(___aodiv@quotient+5),(?___aodiv+5)
  6484  001ABE  C097  F085         	movff	(___aodiv@quotient+6),(?___aodiv+6)
  6485  001AC2  C098  F086         	movff	(___aodiv@quotient+7),(?___aodiv+7)
  6486  001AC6  C099  F087         	goto	l403
  6487  001ACA  EF67  F00D         	
  6488                           l2249:; BSR set to: 0
  6489  001ACE                     
  6490                           	line	43
  6491                           	
  6492                           l403:; BSR set to: 0
  6493  001ACE                     
  6494                           	return	;funcret
  6495  001ACE  0012               	opt stack 0
  6496                           GLOBAL	__end_of___aodiv
  6497                           	__end_of___aodiv:
  6498  001AD0                     	signat	___aodiv,8319
  6499                           	global	_escreve2
  6500                           
  6501 ;; *************** function _escreve2 *****************
  6502 ;; Defined at:
  6503 ;;		line 251 in file "comunica.c"
  6504 ;; Parameters:    Size  Location     Type
  6505 ;;		None
  6506 ;; Auto vars:     Size  Location     Type
  6507 ;;		None
  6508 ;; Return value:  Size  Location     Type
  6509 ;;                  1    wreg      void 
  6510 ;; Registers used:
  6511 ;;		wreg, fsr1l, fsr1h, status,2, status,0, tblptrl, tblptrh, tblptru, cstack
  6512 ;; Tracked objects:
  6513 ;;		On entry : 0/0
  6514 ;;		On exit  : 0/0
  6515 ;;		Unchanged: 0/0
  6516 ;; Data sizes:     COMRAM   BANK0   BANK1   BANK2   BANK3   BANK4   BANK5
  6517 ;;      Params:         0       0       0       0       0       0       0
  6518 ;;      Locals:         0       0       0       0       0       0       0
  6519 ;;      Temps:          0       0       0       0       0       0       0
  6520 ;;      Totals:         0       0       0       0       0       0       0
  6521 ;;Total ram usage:        0 bytes
  6522 ;; Hardware stack levels used:    1
  6523 ;; Hardware stack levels required when called:   13
  6524 ;; This function calls:
  6525 ;;		_lcd_clear
  6526 ;;		_lcd_goto
  6527 ;;		_lcd_puts
  6528 ;; This function is called by:
  6529 ;;		_tempo1
  6530 ;; This function uses a non-reentrant model
  6531 ;;
  6532                           psect	text16,class=CODE,space=0,reloc=2,group=0
  6533                           	file	"comunica.c"
  6534                           	line	251
  6535                           global __ptext16
  6536                           __ptext16:
  6537  002AB0                     psect	text16
  6538                           	file	"comunica.c"
  6539                           	line	251
  6540                           	global	__size_of_escreve2
  6541                           	__size_of_escreve2	equ	__end_of_escreve2-_escreve2
  6542  0000                     	
  6543                           _escreve2:; BSR set to: 0
  6544  002AB0                     
  6545                           ;incstack = 0
  6546                           	opt	stack 15
  6547                           	line	254
  6548                           	
  6549                           l2681:
  6550  002AB0                     ;comunica.c: 254:     lcd_clear();
  6551                           	call	_lcd_clear	;wreg free
  6552  002AB0  EC43  F016         	line	255
  6553                           	
  6554                           l2683:
  6555  002AB4                     ;comunica.c: 255:     lcd_goto (0);
  6556                           	movlw	(0)&0ffh
  6557  002AB4  0E00               	
  6558                           	call	_lcd_goto
  6559  002AB6  EC72  F016         	line	256
  6560                           	
  6561                           l2685:
  6562  002ABA                     ;comunica.c: 256:     lcd_puts ( "Estado:");
  6563                           		movlw	low(STR_13)
  6564  002ABA  0E1D               	movlb	0	; () banked
  6565  002ABC  0100               	movwf	((lcd_puts@s))&0ffh
  6566  002ABE  6F81               	movlw	high(STR_13)
  6567  002AC0  0E06               	movwf	((lcd_puts@s+1))&0ffh
  6568  002AC2  6F82               
  6569                           	call	_lcd_puts	;wreg free
  6570  002AC4  EC8B  F013         	line	257
  6571                           	
  6572                           l2687:
  6573  002AC8                     ;comunica.c: 257:     lcd_puts (estadoMes);
  6574                           		movlw	low(_estadoMes)
  6575  002AC8  0E20               	movlb	0	; () banked
  6576  002ACA  0100               	movwf	((lcd_puts@s))&0ffh
  6577  002ACC  6F81               	movlw	high(_estadoMes)
  6578  002ACE  0E01               	movwf	((lcd_puts@s+1))&0ffh
  6579  002AD0  6F82               
  6580                           	call	_lcd_puts	;wreg free
  6581  002AD2  EC8B  F013         	line	258
  6582                           	
  6583                           l2689:
  6584  002AD6                     ;comunica.c: 258:     lcd_goto (40);
  6585                           	movlw	(028h)&0ffh
  6586  002AD6  0E28               	
  6587                           	call	_lcd_goto
  6588  002AD8  EC72  F016         	line	259
  6589                           	
  6590                           l2691:
  6591  002ADC                     ;comunica.c: 259:     lcd_puts ("Tempo:");
  6592                           		movlw	low(STR_14)
  6593  002ADC  0E25               	movlb	0	; () banked
  6594  002ADE  0100               	movwf	((lcd_puts@s))&0ffh
  6595  002AE0  6F81               	movlw	high(STR_14)
  6596  002AE2  0E06               	movwf	((lcd_puts@s+1))&0ffh
  6597  002AE4  6F82               
  6598                           	call	_lcd_puts	;wreg free
  6599  002AE6  EC8B  F013         	line	260
  6600                           	
  6601                           l2693:
  6602  002AEA                     ;comunica.c: 260:     lcd_puts (tempoDis);
  6603                           		movlw	low(_tempoDis)
  6604  002AEA  0EF8               	movlb	0	; () banked
  6605  002AEC  0100               	movwf	((lcd_puts@s))&0ffh
  6606  002AEE  6F81               	movlw	high(_tempoDis)
  6607  002AF0  0E00               	movwf	((lcd_puts@s+1))&0ffh
  6608  002AF2  6F82               
  6609                           	call	_lcd_puts	;wreg free
  6610  002AF4  EC8B  F013         	line	262
  6611                           	
  6612                           l214:
  6613  002AF8                     	return	;funcret
  6614  002AF8  0012               	opt stack 0
  6615                           GLOBAL	__end_of_escreve2
  6616                           	__end_of_escreve2:
  6617  002AFA                     	signat	_escreve2,89
  6618                           	global	_escreve
  6619                           
  6620 ;; *************** function _escreve *****************
  6621 ;; Defined at:
  6622 ;;		line 242 in file "comunica.c"
  6623 ;; Parameters:    Size  Location     Type
  6624 ;;		None
  6625 ;; Auto vars:     Size  Location     Type
  6626 ;;		None
  6627 ;; Return value:  Size  Location     Type
  6628 ;;                  1    wreg      void 
  6629 ;; Registers used:
  6630 ;;		wreg, fsr1l, fsr1h, status,2, status,0, tblptrl, tblptrh, tblptru, cstack
  6631 ;; Tracked objects:
  6632 ;;		On entry : 0/0
  6633 ;;		On exit  : 0/0
  6634 ;;		Unchanged: 0/0
  6635 ;; Data sizes:     COMRAM   BANK0   BANK1   BANK2   BANK3   BANK4   BANK5
  6636 ;;      Params:         0       0       0       0       0       0       0
  6637 ;;      Locals:         0       0       0       0       0       0       0
  6638 ;;      Temps:          0       0       0       0       0       0       0
  6639 ;;      Totals:         0       0       0       0       0       0       0
  6640 ;;Total ram usage:        0 bytes
  6641 ;; Hardware stack levels used:    1
  6642 ;; Hardware stack levels required when called:   13
  6643 ;; This function calls:
  6644 ;;		_lcd_clear
  6645 ;;		_lcd_goto
  6646 ;;		_lcd_puts
  6647 ;; This function is called by:
  6648 ;;		_estadosMaquina
  6649 ;; This function uses a non-reentrant model
  6650 ;;
  6651                           psect	text17,class=CODE,space=0,reloc=2,group=0
  6652                           	line	242
  6653                           global __ptext17
  6654                           __ptext17:
  6655  002C3A                     psect	text17
  6656                           	file	"comunica.c"
  6657                           	line	242
  6658                           	global	__size_of_escreve
  6659                           	__size_of_escreve	equ	__end_of_escreve-_escreve
  6660  0000                     	
  6661                           _escreve:
  6662  002C3A                     ;incstack = 0
  6663                           	opt	stack 16
  6664                           	line	245
  6665                           	
  6666                           l2739:
  6667  002C3A                     ;comunica.c: 245:     lcd_clear();
  6668                           	call	_lcd_clear	;wreg free
  6669  002C3A  EC43  F016         	line	246
  6670                           	
  6671                           l2741:
  6672  002C3E                     ;comunica.c: 246:     lcd_goto (0);
  6673                           	movlw	(0)&0ffh
  6674  002C3E  0E00               	
  6675                           	call	_lcd_goto
  6676  002C40  EC72  F016         	line	247
  6677                           	
  6678                           l2743:
  6679  002C44                     ;comunica.c: 247:     lcd_puts ( "Estado:");
  6680                           		movlw	low(STR_12)
  6681  002C44  0E1D               	movlb	0	; () banked
  6682  002C46  0100               	movwf	((lcd_puts@s))&0ffh
  6683  002C48  6F81               	movlw	high(STR_12)
  6684  002C4A  0E06               	movwf	((lcd_puts@s+1))&0ffh
  6685  002C4C  6F82               
  6686                           	call	_lcd_puts	;wreg free
  6687  002C4E  EC8B  F013         	line	248
  6688                           	
  6689                           l2745:
  6690  002C52                     ;comunica.c: 248:     lcd_puts (estadoMes);
  6691                           		movlw	low(_estadoMes)
  6692  002C52  0E20               	movlb	0	; () banked
  6693  002C54  0100               	movwf	((lcd_puts@s))&0ffh
  6694  002C56  6F81               	movlw	high(_estadoMes)
  6695  002C58  0E01               	movwf	((lcd_puts@s+1))&0ffh
  6696  002C5A  6F82               
  6697                           	call	_lcd_puts	;wreg free
  6698  002C5C  EC8B  F013         	line	250
  6699                           	
  6700                           l211:
  6701  002C60                     	return	;funcret
  6702  002C60  0012               	opt stack 0
  6703                           GLOBAL	__end_of_escreve
  6704                           	__end_of_escreve:
  6705  002C62                     	signat	_escreve,89
  6706                           	global	_lcd_puts
  6707                           
  6708 ;; *************** function _lcd_puts *****************
  6709 ;; Defined at:
  6710 ;;		line 62 in file "lcd.c"
  6711 ;; Parameters:    Size  Location     Type
  6712 ;;  s               2    1[BANK0 ] PTR const unsigned char 
  6713 ;;		 -> STR_14(7), STR_13(8), STR_12(8), estadoMes(15), 
  6714 ;;		 -> tempoDis(5), 
  6715 ;; Auto vars:     Size  Location     Type
  6716 ;;		None
  6717 ;; Return value:  Size  Location     Type
  6718 ;;                  1    wreg      void 
  6719 ;; Registers used:
  6720 ;;		wreg, fsr1l, fsr1h, status,2, status,0, tblptrl, tblptrh, tblptru, cstack
  6721 ;; Tracked objects:
  6722 ;;		On entry : 0/0
  6723 ;;		On exit  : 0/0
  6724 ;;		Unchanged: 0/0
  6725 ;; Data sizes:     COMRAM   BANK0   BANK1   BANK2   BANK3   BANK4   BANK5
  6726 ;;      Params:         0       2       0       0       0       0       0
  6727 ;;      Locals:         0       0       0       0       0       0       0
  6728 ;;      Temps:          0       0       0       0       0       0       0
  6729 ;;      Totals:         0       2       0       0       0       0       0
  6730 ;;Total ram usage:        2 bytes
  6731 ;; Hardware stack levels used:    1
  6732 ;; Hardware stack levels required when called:   12
  6733 ;; This function calls:
  6734 ;;		_lcd_write
  6735 ;; This function is called by:
  6736 ;;		_escreve
  6737 ;;		_escreve2
  6738 ;; This function uses a non-reentrant model
  6739 ;;
  6740                           psect	text18,class=CODE,space=0,reloc=2,group=0
  6741                           	file	"lcd.c"
  6742                           	line	62
  6743                           global __ptext18
  6744                           __ptext18:
  6745  002716                     psect	text18
  6746                           	file	"lcd.c"
  6747                           	line	62
  6748                           	global	__size_of_lcd_puts
  6749                           	__size_of_lcd_puts	equ	__end_of_lcd_puts-_lcd_puts
  6750  0000                     	
  6751                           _lcd_puts:
  6752  002716                     ;incstack = 0
  6753                           	opt	stack 15
  6754                           	line	64
  6755                           	
  6756                           l2623:
  6757  002716                     ;lcd.c: 62: lcd_puts(const char * s);lcd.c: 63: {;lcd.c: 64:  LE0 = 1;
  6758                           	bsf	c:(31848/8),(31848)&7	;volatile
  6759  002716  808D               	line	65
  6760                           ;lcd.c: 65:  while(*s)
  6761                           	goto	l2629
  6762  002718  EFA5  F013         	
  6763                           l18:
  6764  00271C                     	line	66
  6765                           	
  6766                           l2625:
  6767  00271C                     ;lcd.c: 66:   lcd_write(*s++);
  6768                           	movff	(lcd_puts@s),tblptrl
  6769  00271C  C081  FFF6         	movff	(lcd_puts@s+1),tblptrh
  6770  002720  C082  FFF7         	clrf	tblptru
  6771  002724  6AF8               	
  6772                           	movlw	high __ramtop-1
  6773  002726  0E05               	cpfsgt	tblptrh
  6774  002728  64F7               	bra	u2527
  6775  00272A  D003               	tblrd	*
  6776  00272C  0008               	
  6777                           	movf	tablat,w
  6778  00272E  50F5               	bra	u2520
  6779  002730  D005               u2527:
  6780  002732                     	movff	tblptrl,fsr1l
  6781  002732  CFF6 FFE1          	movff	tblptrh,fsr1h
  6782  002736  CFF7 FFE2          	movf	indf1,w
  6783  00273A  50E7               u2520:
  6784  00273C                     	
  6785                           	call	_lcd_write
  6786  00273C  EC5D  F016         	
  6787                           l2627:
  6788  002740                     	movlb	0	; () banked
  6789  002740  0100               	infsnz	((lcd_puts@s))&0ffh
  6790  002742  4B81               	incf	((lcd_puts@s+1))&0ffh
  6791  002744  2B82               	goto	l2629
  6792  002746  EFA5  F013         	
  6793                           l17:; BSR set to: 0
  6794  00274A                     
  6795                           	line	65
  6796                           	
  6797                           l2629:
  6798  00274A                     ;lcd.c: 65:  while(*s)
  6799                           	movff	(lcd_puts@s),tblptrl
  6800  00274A  C081  FFF6         	movff	(lcd_puts@s+1),tblptrh
  6801  00274E  C082  FFF7         	clrf	tblptru
  6802  002752  6AF8               	
  6803                           	movlw	high __ramtop-1
  6804  002754  0E05               	cpfsgt	tblptrh
  6805  002756  64F7               	bra	u2537
  6806  002758  D003               	tblrd	*
  6807  00275A  0008               	
  6808                           	movf	tablat,w
  6809  00275C  50F5               	bra	u2530
  6810  00275E  D005               u2537:
  6811  002760                     	movff	tblptrl,fsr1l
  6812  002760  CFF6 FFE1          	movff	tblptrh,fsr1h
  6813  002764  CFF7 FFE2          	movf	indf1,w
  6814  002768  50E7               u2530:
  6815  00276A                     	iorlw	0
  6816  00276A  0900               	btfss	status,2
  6817  00276C  A4D8               	goto	u2541
  6818  00276E  EFBB  F013         	goto	u2540
  6819  002772  EFBD  F013         u2541:
  6820  002776                     	goto	l2625
  6821  002776  EF8E  F013         u2540:
  6822  00277A                     	goto	l20
  6823  00277A  EFBF  F013         	
  6824                           l19:
  6825  00277E                     	line	67
  6826                           	
  6827                           l20:
  6828  00277E                     	return	;funcret
  6829  00277E  0012               	opt stack 0
  6830                           GLOBAL	__end_of_lcd_puts
  6831                           	__end_of_lcd_puts:
  6832  002780                     	signat	_lcd_puts,4217
  6833                           	global	_lcd_goto
  6834                           
  6835 ;; *************** function _lcd_goto *****************
  6836 ;; Defined at:
  6837 ;;		line 84 in file "lcd.c"
  6838 ;; Parameters:    Size  Location     Type
  6839 ;;  pos             1    wreg     unsigned char 
  6840 ;; Auto vars:     Size  Location     Type
  6841 ;;  pos             1    1[BANK0 ] unsigned char 
  6842 ;; Return value:  Size  Location     Type
  6843 ;;                  1    wreg      void 
  6844 ;; Registers used:
  6845 ;;		wreg, status,2, status,0, cstack
  6846 ;; Tracked objects:
  6847 ;;		On entry : 0/0
  6848 ;;		On exit  : 0/0
  6849 ;;		Unchanged: 0/0
  6850 ;; Data sizes:     COMRAM   BANK0   BANK1   BANK2   BANK3   BANK4   BANK5
  6851 ;;      Params:         0       0       0       0       0       0       0
  6852 ;;      Locals:         0       1       0       0       0       0       0
  6853 ;;      Temps:          0       0       0       0       0       0       0
  6854 ;;      Totals:         0       1       0       0       0       0       0
  6855 ;;Total ram usage:        1 bytes
  6856 ;; Hardware stack levels used:    1
  6857 ;; Hardware stack levels required when called:   12
  6858 ;; This function calls:
  6859 ;;		_lcd_write
  6860 ;; This function is called by:
  6861 ;;		_escreve
  6862 ;;		_escreve2
  6863 ;; This function uses a non-reentrant model
  6864 ;;
  6865                           psect	text19,class=CODE,space=0,reloc=2,group=0
  6866                           	line	84
  6867                           global __ptext19
  6868                           __ptext19:
  6869  002CE4                     psect	text19
  6870                           	file	"lcd.c"
  6871                           	line	84
  6872                           	global	__size_of_lcd_goto
  6873                           	__size_of_lcd_goto	equ	__end_of_lcd_goto-_lcd_goto
  6874  0000                     	
  6875                           _lcd_goto:
  6876  002CE4                     ;incstack = 0
  6877                           	opt	stack 15
  6878                           ;lcd_goto@pos stored from wreg
  6879                           	movlb	0	; () banked
  6880  002CE4  0100               	movwf	((lcd_goto@pos))&0ffh
  6881  002CE6  6F81               	line	86
  6882                           	
  6883                           l2631:
  6884  002CE8                     ;lcd.c: 84: lcd_goto(unsigned char pos);lcd.c: 85: {;lcd.c: 86:  LE0 = 0;
  6885                           	bcf	c:(31848/8),(31848)&7	;volatile
  6886  002CE8  908D               	line	87
  6887                           	
  6888                           l2633:
  6889  002CEA                     ;lcd.c: 87:  lcd_write(0x80+pos);
  6890                           	movlb	0	; () banked
  6891  002CEA  0100               	movf	((lcd_goto@pos))&0ffh,w
  6892  002CEC  5181               	addlw	low(080h)
  6893  002CEE  0F80               	
  6894                           	call	_lcd_write
  6895  002CF0  EC5D  F016         	line	88
  6896                           	
  6897                           l26:
  6898  002CF4                     	return	;funcret
  6899  002CF4  0012               	opt stack 0
  6900                           GLOBAL	__end_of_lcd_goto
  6901                           	__end_of_lcd_goto:
  6902  002CF6                     	signat	_lcd_goto,4217
  6903                           	global	_lcd_clear
  6904                           
  6905 ;; *************** function _lcd_clear *****************
  6906 ;; Defined at:
  6907 ;;		line 52 in file "lcd.c"
  6908 ;; Parameters:    Size  Location     Type
  6909 ;;		None
  6910 ;; Auto vars:     Size  Location     Type
  6911 ;;		None
  6912 ;; Return value:  Size  Location     Type
  6913 ;;                  1    wreg      void 
  6914 ;; Registers used:
  6915 ;;		wreg, status,2, cstack
  6916 ;; Tracked objects:
  6917 ;;		On entry : 0/0
  6918 ;;		On exit  : 0/0
  6919 ;;		Unchanged: 0/0
  6920 ;; Data sizes:     COMRAM   BANK0   BANK1   BANK2   BANK3   BANK4   BANK5
  6921 ;;      Params:         0       0       0       0       0       0       0
  6922 ;;      Locals:         0       0       0       0       0       0       0
  6923 ;;      Temps:          0       1       0       0       0       0       0
  6924 ;;      Totals:         0       1       0       0       0       0       0
  6925 ;;Total ram usage:        1 bytes
  6926 ;; Hardware stack levels used:    1
  6927 ;; Hardware stack levels required when called:   12
  6928 ;; This function calls:
  6929 ;;		_lcd_write
  6930 ;; This function is called by:
  6931 ;;		_lcd_init
  6932 ;;		_escreve
  6933 ;;		_escreve2
  6934 ;; This function uses a non-reentrant model
  6935 ;;
  6936                           psect	text20,class=CODE,space=0,reloc=2,group=0
  6937                           	line	52
  6938                           global __ptext20
  6939                           __ptext20:
  6940  002C86                     psect	text20
  6941                           	file	"lcd.c"
  6942                           	line	52
  6943                           	global	__size_of_lcd_clear
  6944                           	__size_of_lcd_clear	equ	__end_of_lcd_clear-_lcd_clear
  6945  0000                     	
  6946                           _lcd_clear:
  6947  002C86                     ;incstack = 0
  6948                           	opt	stack 17
  6949                           	line	54
  6950                           	
  6951                           l2617:
  6952  002C86                     ;lcd.c: 54:  LE0 = 0;
  6953                           	bcf	c:(31848/8),(31848)&7	;volatile
  6954  002C86  908D               	line	55
  6955                           	
  6956                           l2619:
  6957  002C88                     ;lcd.c: 55:  lcd_write(0x01);
  6958                           	movlw	(01h)&0ffh
  6959  002C88  0E01               	
  6960                           	call	_lcd_write
  6961  002C8A  EC5D  F016         	line	56
  6962                           	
  6963                           l2621:
  6964  002C8E                     ;lcd.c: 56:  _delay((unsigned long)((2)*(4000000/4000.0)));
  6965                           	opt asmopt_push
  6966                           opt asmopt_off
  6967                           movlw	3
  6968  002C8E  0E03               	movlb	0	; () banked
  6969  002C90  0100               movwf	(??_lcd_clear+0+0)&0ffh,f
  6970  002C92  6F81               	movlw	151
  6971  002C94  0E97               u3437:
  6972  002C96                     decfsz	wreg,f
  6973  002C96  2EE8               	bra	u3437
  6974  002C98  D7FE               	decfsz	(??_lcd_clear+0+0)&0ffh,f
  6975  002C9A  2F81               	bra	u3437
  6976  002C9C  D7FC               	nop2
  6977  002C9E  D000               opt asmopt_pop
  6978                           
  6979                           	line	57
  6980                           	
  6981                           l14:
  6982  002CA0                     	return	;funcret
  6983  002CA0  0012               	opt stack 0
  6984                           GLOBAL	__end_of_lcd_clear
  6985                           	__end_of_lcd_clear:
  6986  002CA2                     	signat	_lcd_clear,89
  6987                           	global	_lcd_write
  6988                           
  6989 ;; *************** function _lcd_write *****************
  6990 ;; Defined at:
  6991 ;;		line 38 in file "lcd.c"
  6992 ;; Parameters:    Size  Location     Type
  6993 ;;  c               1    wreg     unsigned char 
  6994 ;; Auto vars:     Size  Location     Type
  6995 ;;  c               1    0[BANK0 ] unsigned char 
  6996 ;; Return value:  Size  Location     Type
  6997 ;;                  1    wreg      void 
  6998 ;; Registers used:
  6999 ;;		wreg, status,2, cstack
  7000 ;; Tracked objects:
  7001 ;;		On entry : 0/0
  7002 ;;		On exit  : 0/0
  7003 ;;		Unchanged: 0/0
  7004 ;; Data sizes:     COMRAM   BANK0   BANK1   BANK2   BANK3   BANK4   BANK5
  7005 ;;      Params:         0       0       0       0       0       0       0
  7006 ;;      Locals:         0       1       0       0       0       0       0
  7007 ;;      Temps:          0       0       0       0       0       0       0
  7008 ;;      Totals:         0       1       0       0       0       0       0
  7009 ;;Total ram usage:        1 bytes
  7010 ;; Hardware stack levels used:    1
  7011 ;; Hardware stack levels required when called:   11
  7012 ;; This function calls:
  7013 ;;		Nothing
  7014 ;; This function is called by:
  7015 ;;		_lcd_clear
  7016 ;;		_lcd_puts
  7017 ;;		_lcd_goto
  7018 ;;		_lcd_init
  7019 ;;		_lcd_putch
  7020 ;; This function uses a non-reentrant model
  7021 ;;
  7022                           psect	text21,class=CODE,space=0,reloc=2,group=0
  7023                           	line	38
  7024                           global __ptext21
  7025                           __ptext21:
  7026  002CBA                     psect	text21
  7027                           	file	"lcd.c"
  7028                           	line	38
  7029                           	global	__size_of_lcd_write
  7030                           	__size_of_lcd_write	equ	__end_of_lcd_write-_lcd_write
  7031  0000                     	
  7032                           _lcd_write:
  7033  002CBA                     ;incstack = 0
  7034                           	opt	stack 18
  7035                           ;lcd_write@c stored from wreg
  7036                           	movlb	0	; () banked
  7037  002CBA  0100               	movwf	((lcd_write@c))&0ffh
  7038  002CBC  6F80               	line	40
  7039                           	
  7040                           l2517:
  7041  002CBE                     ;lcd.c: 38: lcd_write(unsigned char c);lcd.c: 39: {;lcd.c: 40:  _delay((unsigned long)((
                                 1)*(4000000/4000.0)));
  7042                           	opt asmopt_push
  7043                           opt asmopt_off
  7044                           	movlw	200
  7045  002CBE  0EC8               u3447:
  7046  002CC0                     	nop2
  7047  002CC0  D000               decfsz	wreg,f
  7048  002CC2  2EE8               	bra	u3447
  7049  002CC4  D7FD               opt asmopt_pop
  7050                           
  7051                           	line	41
  7052                           	
  7053                           l2519:
  7054  002CC6                     ;lcd.c: 41:     PORTD = ( c );
  7055                           	movff	(lcd_write@c),(c:3971)	;volatile
  7056  002CC6  C080  FF83         	line	42
  7057                           	
  7058                           l2521:
  7059  002CCA                     ;lcd.c: 42:  ((LE1 = 1),(LE1=0));
  7060                           	bsf	c:(31849/8),(31849)&7	;volatile
  7061  002CCA  828D               	
  7062                           l2523:
  7063  002CCC                     	bcf	c:(31849/8),(31849)&7	;volatile
  7064  002CCC  928D               	line	45
  7065                           	
  7066                           l11:
  7067  002CCE                     	return	;funcret
  7068  002CCE  0012               	opt stack 0
  7069                           GLOBAL	__end_of_lcd_write
  7070                           	__end_of_lcd_write:
  7071  002CD0                     	signat	_lcd_write,4217
  7072                           	global	_config
  7073                           
  7074 ;; *************** function _config *****************
  7075 ;; Defined at:
  7076 ;;		line 72 in file "./configura.h"
  7077 ;; Parameters:    Size  Location     Type
  7078 ;;		None
  7079 ;; Auto vars:     Size  Location     Type
  7080 ;;		None
  7081 ;; Return value:  Size  Location     Type
  7082 ;;                  1    wreg      void 
  7083 ;; Registers used:
  7084 ;;		wreg, status,2
  7085 ;; Tracked objects:
  7086 ;;		On entry : 0/0
  7087 ;;		On exit  : 0/0
  7088 ;;		Unchanged: 0/0
  7089 ;; Data sizes:     COMRAM   BANK0   BANK1   BANK2   BANK3   BANK4   BANK5
  7090 ;;      Params:         0       0       0       0       0       0       0
  7091 ;;      Locals:         0       0       0       0       0       0       0
  7092 ;;      Temps:          0       0       0       0       0       0       0
  7093 ;;      Totals:         0       0       0       0       0       0       0
  7094 ;;Total ram usage:        0 bytes
  7095 ;; Hardware stack levels used:    1
  7096 ;; Hardware stack levels required when called:   11
  7097 ;; This function calls:
  7098 ;;		Nothing
  7099 ;; This function is called by:
  7100 ;;		_main
  7101 ;; This function uses a non-reentrant model
  7102 ;;
  7103                           psect	text22,class=CODE,space=0,reloc=2,group=0
  7104                           	file	"./configura.h"
  7105                           	line	72
  7106                           global __ptext22
  7107                           __ptext22:
  7108  002B84                     psect	text22
  7109                           	file	"./configura.h"
  7110                           	line	72
  7111                           	global	__size_of_config
  7112                           	__size_of_config	equ	__end_of_config-_config
  7113  0000                     	
  7114                           _config:
  7115  002B84                     ;incstack = 0
  7116                           	opt	stack 19
  7117                           	line	74
  7118                           	
  7119                           l2813:
  7120  002B84                     ;./configura.h: 74:     TRISA = 0B11011111;
  7121                           	movlw	low(0DFh)
  7122  002B84  0EDF               	movwf	((c:3986)),c	;volatile
  7123  002B86  6E92               	line	75
  7124                           ;./configura.h: 75:     TRISB = 0B00000000;
  7125                           	movlw	low(0)
  7126  002B88  0E00               	movwf	((c:3987)),c	;volatile
  7127  002B8A  6E93               	line	76
  7128                           	
  7129                           l2815:
  7130  002B8C                     ;./configura.h: 76:     TRISC = 0B11111111;
  7131                           	setf	((c:3988)),c	;volatile
  7132  002B8C  6894               	line	77
  7133                           ;./configura.h: 77:     TRISD = 0B00000000;
  7134                           	movlw	low(0)
  7135  002B8E  0E00               	movwf	((c:3989)),c	;volatile
  7136  002B90  6E95               	line	78
  7137                           ;./configura.h: 78:     TRISE = 0B00001100;
  7138                           	movlw	low(0Ch)
  7139  002B92  0E0C               	movwf	((c:3990)),c	;volatile
  7140  002B94  6E96               	line	79
  7141                           ;./configura.h: 79:     OSCCON = 0B01100011;
  7142                           	movlw	low(063h)
  7143  002B96  0E63               	movwf	((c:4051)),c	;volatile
  7144  002B98  6ED3               	line	80
  7145                           	
  7146                           l2817:
  7147  002B9A                     ;./configura.h: 80:     IPEN=1;
  7148                           	bsf	c:(32391/8),(32391)&7	;volatile
  7149  002B9A  8ED0               	line	81
  7150                           ;./configura.h: 81:     INTCON = 0B11000000;
  7151                           	movlw	low(0C0h)
  7152  002B9C  0EC0               	movwf	((c:4082)),c	;volatile
  7153  002B9E  6EF2               	line	82
  7154                           ;./configura.h: 82:     T0CON = 0B11000011;
  7155                           	movlw	low(0C3h)
  7156  002BA0  0EC3               	movwf	((c:4053)),c	;volatile
  7157  002BA2  6ED5               	line	83
  7158                           ;./configura.h: 83:     ADCON0 = 0B00000001;
  7159                           	movlw	low(01h)
  7160  002BA4  0E01               	movwf	((c:4034)),c	;volatile
  7161  002BA6  6EC2               	line	84
  7162                           ;./configura.h: 84:     ADCON1 = 0B00001110;
  7163                           	movlw	low(0Eh)
  7164  002BA8  0E0E               	movwf	((c:4033)),c	;volatile
  7165  002BAA  6EC1               	line	85
  7166                           ;./configura.h: 85:     ADCON2 = 0B10010100;
  7167                           	movlw	low(094h)
  7168  002BAC  0E94               	movwf	((c:4032)),c	;volatile
  7169  002BAE  6EC0               	line	86
  7170                           ;./configura.h: 86:     TXSTA = 0B00100100;
  7171                           	movlw	low(024h)
  7172  002BB0  0E24               	movwf	((c:4012)),c	;volatile
  7173  002BB2  6EAC               	line	87
  7174                           ;./configura.h: 87:     RCSTA = 0B10010000;
  7175                           	movlw	low(090h)
  7176  002BB4  0E90               	movwf	((c:4011)),c	;volatile
  7177  002BB6  6EAB               	line	88
  7178                           ;./configura.h: 88:     BAUDCON =0;
  7179                           	movlw	low(0)
  7180  002BB8  0E00               	movwf	((c:4024)),c	;volatile
  7181  002BBA  6EB8               	line	89
  7182                           ;./configura.h: 89:     SPBRG = 25;
  7183                           	movlw	low(019h)
  7184  002BBC  0E19               	movwf	((c:4015)),c	;volatile
  7185  002BBE  6EAF               	line	90
  7186                           	
  7187                           l2819:
  7188  002BC0                     ;./configura.h: 90:     RCIE = 1;
  7189                           	bsf	c:(31981/8),(31981)&7	;volatile
  7190  002BC0  8A9D               	line	91
  7191                           	
  7192                           l2821:
  7193  002BC2                     ;./configura.h: 91:     RCIP = 1;
  7194                           	bsf	c:(31997/8),(31997)&7	;volatile
  7195  002BC2  8A9F               	line	92
  7196                           	
  7197                           l104:
  7198  002BC4                     	return	;funcret
  7199  002BC4  0012               	opt stack 0
  7200                           GLOBAL	__end_of_config
  7201                           	__end_of_config:
  7202  002BC6                     	signat	_config,89
  7203                           	global	_tmr
  7204                           
  7205 ;; *************** function _tmr *****************
  7206 ;; Defined at:
  7207 ;;		line 84 in file "comunica.c"
  7208 ;; Parameters:    Size  Location     Type
  7209 ;;		None
  7210 ;; Auto vars:     Size  Location     Type
  7211 ;;		None
  7212 ;; Return value:  Size  Location     Type
  7213 ;;                  1    wreg      void 
  7214 ;; Registers used:
  7215 ;;		wreg, fsr1l, fsr1h, fsr2l, fsr2h, status,2, status,0, tblptrl, tblptrh, tblptru, cstack
  7216 ;; Tracked objects:
  7217 ;;		On entry : 0/0
  7218 ;;		On exit  : 0/0
  7219 ;;		Unchanged: 0/0
  7220 ;; Data sizes:     COMRAM   BANK0   BANK1   BANK2   BANK3   BANK4   BANK5
  7221 ;;      Params:         0       0       0       0       0       0       0
  7222 ;;      Locals:         0       0       0       0       0       0       0
  7223 ;;      Temps:          8       0       0       0       0       0       0
  7224 ;;      Totals:         8       0       0       0       0       0       0
  7225 ;;Total ram usage:        8 bytes
  7226 ;; Hardware stack levels used:    1
  7227 ;; Hardware stack levels required when called:   10
  7228 ;; This function calls:
  7229 ;;		i2_estadosMaquina
  7230 ;; This function is called by:
  7231 ;;		Interrupt level 2
  7232 ;; This function uses a non-reentrant model
  7233 ;;
  7234                           psect	intcode,class=CODE,space=0,reloc=2
  7235                           global __pintcode
  7236                           __pintcode:
  7237  000008                     psect	intcode
  7238                           	file	"comunica.c"
  7239                           	line	84
  7240                           	global	__size_of_tmr
  7241                           	__size_of_tmr	equ	__end_of_tmr-_tmr
  7242  0000                     	
  7243                           _tmr:
  7244  000008                     ;incstack = 0
  7245                           	opt	stack 10
  7246                           	bsf int$flags,1,c ;set compiler interrupt flag (level 2)
  7247  000008  827C               	global	int_func
  7248                           	call	int_func,f	;refresh shadow registers
  7249  00000A  EDCD  F00F         psect	intcode_body,class=CODE,space=0,reloc=2
  7250                           global __pintcode_body
  7251                           __pintcode_body:
  7252  001F9A                     int_func:
  7253  001F9A                     
  7254                           	pop	; remove dummy address from shadow register refresh
  7255  001F9A  0006               	movff	fsr1l+0,??_tmr+0
  7256  001F9C  CFE1 F06C          	movff	fsr1h+0,??_tmr+1
  7257  001FA0  CFE2 F06D          	movff	fsr2l+0,??_tmr+2
  7258  001FA4  CFD9 F06E          	movff	fsr2h+0,??_tmr+3
  7259  001FA8  CFDA F06F          	movff	tblptrl+0,??_tmr+4
  7260  001FAC  CFF6 F070          	movff	tblptrh+0,??_tmr+5
  7261  001FB0  CFF7 F071          	movff	tblptru+0,??_tmr+6
  7262  001FB4  CFF8 F072          	movff	tablat+0,??_tmr+7
  7263  001FB8  CFF5 F073          	line	91
  7264                           	
  7265                           i2l3193:
  7266  001FBC                     ;comunica.c: 91:     if(RCIF)
  7267                           	btfss	c:(31989/8),(31989)&7	;volatile
  7268  001FBC  AA9E               	goto	i2u323_41
  7269  001FBE  EFE3  F00F         	goto	i2u323_40
  7270  001FC2  EFE5  F00F         i2u323_41:
  7271  001FC6                     	goto	i2l160
  7272  001FC6  EF60  F010         i2u323_40:
  7273  001FCA                     	line	93
  7274                           	
  7275                           i2l3195:
  7276  001FCA                     ;comunica.c: 92:     {;comunica.c: 93:         RCIF=0;
  7277                           	bcf	c:(31989/8),(31989)&7	;volatile
  7278  001FCA  9A9E               	line	94
  7279                           	
  7280                           i2l3197:
  7281  001FCC                     ;comunica.c: 94:             if (RCREG=='T')
  7282                           		movlw	84
  7283  001FCC  0E54               	xorwf	((c:4014)),c,w	;volatile
  7284  001FCE  18AE               	btfss	status,2
  7285  001FD0  A4D8               	goto	i2u324_41
  7286  001FD2  EFED  F00F         	goto	i2u324_40
  7287  001FD6  EFEF  F00F         
  7288                           i2u324_41:
  7289  001FDA                     	goto	i2l3203
  7290  001FDA  EF02  F010         i2u324_40:
  7291  001FDE                     	goto	i2l3201
  7292  001FDE  EFF5  F00F         	line	96
  7293                           	
  7294                           i2l3199:
  7295  001FE2                     ;comunica.c: 95:             {;comunica.c: 96:                 while (RCREG=='T'){
  7296                           	goto	i2l3201
  7297  001FE2  EFF5  F00F         	
  7298                           i2l148:
  7299  001FE6                     	goto	i2l3201
  7300  001FE6  EFF5  F00F         	line	98
  7301                           ;comunica.c: 98:                 }
  7302                           	
  7303                           i2l147:
  7304  001FEA                     	line	96
  7305                           	
  7306                           i2l3201:
  7307  001FEA                     ;comunica.c: 96:                 while (RCREG=='T'){
  7308                           		movlw	84
  7309  001FEA  0E54               	xorwf	((c:4014)),c,w	;volatile
  7310  001FEC  18AE               	btfsc	status,2
  7311  001FEE  B4D8               	goto	i2u325_41
  7312  001FF0  EFFC  F00F         	goto	i2u325_40
  7313  001FF4  EFFE  F00F         
  7314                           i2u325_41:
  7315  001FF8                     	goto	i2l3201
  7316  001FF8  EFF5  F00F         i2u325_40:
  7317  001FFC                     	goto	i2l160
  7318  001FFC  EF60  F010         	
  7319                           i2l149:
  7320  002000                     	line	100
  7321                           ;comunica.c: 100:             }else if(RCREG=='Q'){
  7322                           	goto	i2l160
  7323  002000  EF60  F010         	
  7324                           i2l146:
  7325  002004                     	
  7326                           i2l3203:
  7327  002004                     		movlw	81
  7328  002004  0E51               	xorwf	((c:4014)),c,w	;volatile
  7329  002006  18AE               	btfss	status,2
  7330  002008  A4D8               	goto	i2u326_41
  7331  00200A  EF09  F010         	goto	i2u326_40
  7332  00200E  EF0B  F010         
  7333                           i2u326_41:
  7334  002012                     	goto	i2l3207
  7335  002012  EF0F  F010         i2u326_40:
  7336  002016                     	line	101
  7337                           	
  7338                           i2l3205:
  7339  002016                     ;comunica.c: 101:                 estadosMaquina();
  7340                           	call	i2_estadosMaquina	;wreg free
  7341  002016  EC6B  F005         	line	102
  7342                           ;comunica.c: 102:             }
  7343                           	goto	i2l160
  7344  00201A  EF60  F010         	line	103
  7345                           ;comunica.c: 103:             else if(RCREG=='C'){
  7346                           	
  7347                           i2l151:
  7348  00201E                     	
  7349                           i2l3207:
  7350  00201E                     		movlw	67
  7351  00201E  0E43               	xorwf	((c:4014)),c,w	;volatile
  7352  002020  18AE               	btfss	status,2
  7353  002022  A4D8               	goto	i2u327_41
  7354  002024  EF16  F010         	goto	i2u327_40
  7355  002028  EF18  F010         
  7356                           i2u327_41:
  7357  00202C                     	goto	i2l3211
  7358  00202C  EF1C  F010         i2u327_40:
  7359  002030                     	line	104
  7360                           	
  7361                           i2l3209:
  7362  002030                     ;comunica.c: 104:                 estadosMaquina();
  7363                           	call	i2_estadosMaquina	;wreg free
  7364  002030  EC6B  F005         	line	105
  7365                           ;comunica.c: 105:             }else if(RCREG=='L'){
  7366                           	goto	i2l160
  7367  002034  EF60  F010         	
  7368                           i2l153:
  7369  002038                     	
  7370                           i2l3211:
  7371  002038                     		movlw	76
  7372  002038  0E4C               	xorwf	((c:4014)),c,w	;volatile
  7373  00203A  18AE               	btfss	status,2
  7374  00203C  A4D8               	goto	i2u328_41
  7375  00203E  EF23  F010         	goto	i2u328_40
  7376  002042  EF25  F010         
  7377                           i2u328_41:
  7378  002046                     	goto	i2l3217
  7379  002046  EF2E  F010         i2u328_40:
  7380  00204A                     	line	106
  7381                           	
  7382                           i2l3213:
  7383  00204A                     ;comunica.c: 106:                 estado = 1;
  7384                           	movlw	high(01h)
  7385  00204A  0E00               	movlb	0	; () banked
  7386  00204C  0100               	movwf	((_estado+1))&0ffh
  7387  00204E  6FF5               	movlw	low(01h)
  7388  002050  0E01               	movwf	((_estado))&0ffh
  7389  002052  6FF4               	line	107
  7390                           	
  7391                           i2l3215:; BSR set to: 0
  7392  002054                     
  7393                           ;comunica.c: 107:                 estadosMaquina();
  7394                           	call	i2_estadosMaquina	;wreg free
  7395  002054  EC6B  F005         	line	108
  7396                           ;comunica.c: 108:             }else if(RCREG=='D'){
  7397                           	goto	i2l160
  7398  002058  EF60  F010         	
  7399                           i2l155:
  7400  00205C                     	
  7401                           i2l3217:
  7402  00205C                     		movlw	68
  7403  00205C  0E44               	xorwf	((c:4014)),c,w	;volatile
  7404  00205E  18AE               	btfss	status,2
  7405  002060  A4D8               	goto	i2u329_41
  7406  002062  EF35  F010         	goto	i2u329_40
  7407  002066  EF37  F010         
  7408                           i2u329_41:
  7409  00206A                     	goto	i2l3223
  7410  00206A  EF40  F010         i2u329_40:
  7411  00206E                     	line	109
  7412                           	
  7413                           i2l3219:
  7414  00206E                     ;comunica.c: 109:                 estado = 9;
  7415                           	movlw	high(09h)
  7416  00206E  0E00               	movlb	0	; () banked
  7417  002070  0100               	movwf	((_estado+1))&0ffh
  7418  002072  6FF5               	movlw	low(09h)
  7419  002074  0E09               	movwf	((_estado))&0ffh
  7420  002076  6FF4               	line	110
  7421                           	
  7422                           i2l3221:; BSR set to: 0
  7423  002078                     
  7424                           ;comunica.c: 110:                 estadosMaquina();
  7425                           	call	i2_estadosMaquina	;wreg free
  7426  002078  EC6B  F005         	line	111
  7427                           ;comunica.c: 111:             }else if(RCREG=='A'){
  7428                           	goto	i2l160
  7429  00207C  EF60  F010         	
  7430                           i2l157:
  7431  002080                     	
  7432                           i2l3223:
  7433  002080                     		movlw	65
  7434  002080  0E41               	xorwf	((c:4014)),c,w	;volatile
  7435  002082  18AE               	btfss	status,2
  7436  002084  A4D8               	goto	i2u330_41
  7437  002086  EF47  F010         	goto	i2u330_40
  7438  00208A  EF49  F010         
  7439                           i2u330_41:
  7440  00208E                     	goto	i2l160
  7441  00208E  EF60  F010         i2u330_40:
  7442  002092                     	line	112
  7443                           	
  7444                           i2l3225:
  7445  002092                     ;comunica.c: 112:                 estado = estado + 1;
  7446                           	movlw	low(01h)
  7447  002092  0E01               	movlb	0	; () banked
  7448  002094  0100               	addwf	((_estado))&0ffh,w
  7449  002096  25F4               	movwf	((_estado))&0ffh
  7450  002098  6FF4               	movlw	high(01h)
  7451  00209A  0E00               	addwfc	((_estado+1))&0ffh,w
  7452  00209C  21F5               	movwf	1+((_estado))&0ffh
  7453  00209E  6FF5               	line	113
  7454                           	
  7455                           i2l3227:; BSR set to: 0
  7456  0020A0                     
  7457                           ;comunica.c: 113:                 estadosMaquina();
  7458                           	call	i2_estadosMaquina	;wreg free
  7459  0020A0  EC6B  F005         	goto	i2l160
  7460  0020A4  EF60  F010         	line	114
  7461                           ;comunica.c: 114:             }
  7462                           	
  7463                           i2l159:
  7464  0020A8                     	goto	i2l160
  7465  0020A8  EF60  F010         	
  7466                           i2l158:
  7467  0020AC                     	goto	i2l160
  7468  0020AC  EF60  F010         	
  7469                           i2l156:
  7470  0020B0                     	goto	i2l160
  7471  0020B0  EF60  F010         	
  7472                           i2l154:
  7473  0020B4                     	goto	i2l160
  7474  0020B4  EF60  F010         	
  7475                           i2l152:
  7476  0020B8                     	goto	i2l160
  7477  0020B8  EF60  F010         	
  7478                           i2l150:
  7479  0020BC                     	goto	i2l160
  7480  0020BC  EF60  F010         	line	117
  7481                           ;comunica.c: 117:     }
  7482                           	
  7483                           i2l145:
  7484  0020C0                     	line	118
  7485                           	
  7486                           i2l160:
  7487  0020C0                     	movff	??_tmr+7,tablat+0
  7488  0020C0  C073  FFF5         	movff	??_tmr+6,tblptru+0
  7489  0020C4  C072  FFF8         	movff	??_tmr+5,tblptrh+0
  7490  0020C8  C071  FFF7         	movff	??_tmr+4,tblptrl+0
  7491  0020CC  C070  FFF6         	movff	??_tmr+3,fsr2h+0
  7492  0020D0  C06F  FFDA         	movff	??_tmr+2,fsr2l+0
  7493  0020D4  C06E  FFD9         	movff	??_tmr+1,fsr1h+0
  7494  0020D8  C06D  FFE2         	movff	??_tmr+0,fsr1l+0
  7495  0020DC  C06C  FFE1         	bcf int$flags,1,c ;clear compiler interrupt flag (level 2)
  7496  0020E0  927C               	retfie f
  7497  0020E2  0011               	opt stack 0
  7498                           GLOBAL	__end_of_tmr
  7499                           	__end_of_tmr:
  7500  0020E4                     	signat	_tmr,89
  7501                           	global	i2_estadosMaquina
  7502                           
  7503 ;; *************** function i2_estadosMaquina *****************
  7504 ;; Defined at:
  7505 ;;		line 130 in file "comunica.c"
  7506 ;; Parameters:    Size  Location     Type
  7507 ;;		None
  7508 ;; Auto vars:     Size  Location     Type
  7509 ;;		None
  7510 ;; Return value:  Size  Location     Type
  7511 ;;                  1    wreg      void 
  7512 ;; Registers used:
  7513 ;;		wreg, fsr1l, fsr1h, fsr2l, fsr2h, status,2, status,0, tblptrl, tblptrh, tblptru, cstack
  7514 ;; Tracked objects:
  7515 ;;		On entry : 0/0
  7516 ;;		On exit  : 0/0
  7517 ;;		Unchanged: 0/0
  7518 ;; Data sizes:     COMRAM   BANK0   BANK1   BANK2   BANK3   BANK4   BANK5
  7519 ;;      Params:         0       0       0       0       0       0       0
  7520 ;;      Locals:         0       0       0       0       0       0       0
  7521 ;;      Temps:          2       0       0       0       0       0       0
  7522 ;;      Totals:         2       0       0       0       0       0       0
  7523 ;;Total ram usage:        2 bytes
  7524 ;; Hardware stack levels used:    1
  7525 ;; Hardware stack levels required when called:    9
  7526 ;; This function calls:
  7527 ;;		i2_escreve
  7528 ;;		i2_sprintf
  7529 ;;		i2_tempo1
  7530 ;; This function is called by:
  7531 ;;		_tmr
  7532 ;; This function uses a non-reentrant model
  7533 ;;
  7534                           psect	text24,class=CODE,space=0,reloc=2,group=0
  7535                           	line	130
  7536                           global __ptext24
  7537                           __ptext24:
  7538  000AD6                     psect	text24
  7539                           	file	"comunica.c"
  7540                           	line	130
  7541                           	global	__size_ofi2_estadosMaquina
  7542                           	__size_ofi2_estadosMaquina	equ	__end_ofi2_estadosMaquina-i2_estadosMaquina
  7543  0000                     	
  7544                           i2_estadosMaquina:
  7545  000AD6                     ;incstack = 0
  7546                           	opt	stack 10
  7547                           	line	133
  7548                           	
  7549                           i2l2983:
  7550  000AD6                     ;comunica.c: 133:         if((RCREG == '0') || (estado == 0) ){
  7551                           		movlw	48
  7552  000AD6  0E30               	xorwf	((c:4014)),c,w	;volatile
  7553  000AD8  18AE               	btfsc	status,2
  7554  000ADA  B4D8               	goto	i2u290_41
  7555  000ADC  EF72  F005         	goto	i2u290_40
  7556  000AE0  EF74  F005         
  7557                           i2u290_41:
  7558  000AE4                     	goto	i2l171
  7559  000AE4  EF7E  F005         i2u290_40:
  7560  000AE8                     	
  7561                           i2l2985:
  7562  000AE8                     	movlb	0	; () banked
  7563  000AE8  0100               	movf	((_estado))&0ffh,w
  7564  000AEA  51F4               iorwf	((_estado+1))&0ffh,w
  7565  000AEC  11F5               	btfss	status,2
  7566  000AEE  A4D8               	goto	i2u291_41
  7567  000AF0  EF7C  F005         	goto	i2u291_40
  7568  000AF4  EF7E  F005         
  7569                           i2u291_41:
  7570  000AF8                     	goto	i2l2993
  7571  000AF8  EF92  F005         i2u291_40:
  7572  000AFC                     	
  7573                           i2l171:
  7574  000AFC                     	line	134
  7575                           ;comunica.c: 134:             PORTBbits.RB7 =0;
  7576                           	bcf	((c:3969)),c,7	;volatile
  7577  000AFC  9E81               	line	135
  7578                           ;comunica.c: 135:             PORTBbits.RB5 =0;
  7579                           	bcf	((c:3969)),c,5	;volatile
  7580  000AFE  9A81               	line	136
  7581                           ;comunica.c: 136:             PORTBbits.RB6 =0;
  7582                           	bcf	((c:3969)),c,6	;volatile
  7583  000B00  9C81               	line	137
  7584                           ;comunica.c: 137:             PORTBbits.RB0 = 0;
  7585                           	bcf	((c:3969)),c,0	;volatile
  7586  000B02  9081               	line	138
  7587                           	
  7588                           i2l2987:
  7589  000B04                     ;comunica.c: 138:             TXREG = 0;
  7590                           	movlw	low(0)
  7591  000B04  0E00               	movwf	((c:4013)),c	;volatile
  7592  000B06  6EAD               	line	139
  7593                           	
  7594                           i2l2989:
  7595  000B08                     ;comunica.c: 139:             sprintf(estadoMes, "Desligado");
  7596                           		movlw	low(_estadoMes)
  7597  000B08  0E20               	movwf	((c:i2sprintf@s)),c
  7598  000B0A  6E58               	movlw	high(_estadoMes)
  7599  000B0C  0E01               	movwf	((c:i2sprintf@s+1)),c
  7600  000B0E  6E59               
  7601                           		movlw	low(STR_2)
  7602  000B10  0E01               	movwf	((c:i2sprintf@fmt)),c
  7603  000B12  6E5A               	movlw	high(STR_2)
  7604  000B14  0E06               	movwf	((c:i2sprintf@fmt+1)),c
  7605  000B16  6E5B               
  7606                           	call	i2_sprintf	;wreg free
  7607  000B18  EC89  F014         	line	140
  7608                           	
  7609                           i2l2991:
  7610  000B1C                     ;comunica.c: 140:             escreve();
  7611                           	call	i2_escreve	;wreg free
  7612  000B1C  EC31  F016         	line	141
  7613                           ;comunica.c: 141:         }
  7614                           	goto	i2l208
  7615  000B20  EF9F  F007         	line	142
  7616                           ;comunica.c: 142:         else if((RCREG == '1') || (estado == 1)) {
  7617                           	
  7618                           i2l169:
  7619  000B24                     	
  7620                           i2l2993:
  7621  000B24                     		movlw	49
  7622  000B24  0E31               	xorwf	((c:4014)),c,w	;volatile
  7623  000B26  18AE               	btfsc	status,2
  7624  000B28  B4D8               	goto	i2u292_41
  7625  000B2A  EF99  F005         	goto	i2u292_40
  7626  000B2E  EF9B  F005         
  7627                           i2u292_41:
  7628  000B32                     	goto	i2l2997
  7629  000B32  EFA7  F005         i2u292_40:
  7630  000B36                     	
  7631                           i2l2995:
  7632  000B36                     	movlb	0	; () banked
  7633  000B36  0100               		decf	((_estado))&0ffh,w
  7634  000B38  05F4               iorwf	((_estado+1))&0ffh,w
  7635  000B3A  11F5               	btfss	status,2
  7636  000B3C  A4D8               	goto	i2u293_41
  7637  000B3E  EFA3  F005         	goto	i2u293_40
  7638  000B42  EFA5  F005         
  7639                           i2u293_41:
  7640  000B46                     	goto	i2l3011
  7641  000B46  EFC1  F005         i2u293_40:
  7642  000B4A                     	goto	i2l2997
  7643  000B4A  EFA7  F005         	
  7644                           i2l175:; BSR set to: 0
  7645  000B4E                     
  7646                           	line	143
  7647                           	
  7648                           i2l2997:
  7649  000B4E                     ;comunica.c: 143:             sprintf(estadoMes, "Encher");
  7650                           		movlw	low(_estadoMes)
  7651  000B4E  0E20               	movwf	((c:i2sprintf@s)),c
  7652  000B50  6E58               	movlw	high(_estadoMes)
  7653  000B52  0E01               	movwf	((c:i2sprintf@s+1)),c
  7654  000B54  6E59               
  7655                           		movlw	low(STR_3)
  7656  000B56  0E3A               	movwf	((c:i2sprintf@fmt)),c
  7657  000B58  6E5A               	movlw	high(STR_3)
  7658  000B5A  0E06               	movwf	((c:i2sprintf@fmt+1)),c
  7659  000B5C  6E5B               
  7660                           	call	i2_sprintf	;wreg free
  7661  000B5E  EC89  F014         	line	144
  7662                           	
  7663                           i2l2999:
  7664  000B62                     ;comunica.c: 144:             PORTBbits.RB0 = 1;
  7665                           	bsf	((c:3969)),c,0	;volatile
  7666  000B62  8081               	line	145
  7667                           	
  7668                           i2l3001:
  7669  000B64                     ;comunica.c: 145:             PORTBbits.RB7 =1;
  7670                           	bsf	((c:3969)),c,7	;volatile
  7671  000B64  8E81               	line	146
  7672                           	
  7673                           i2l3003:
  7674  000B66                     ;comunica.c: 146:             PORTBbits.RB6 =1;
  7675                           	bsf	((c:3969)),c,6	;volatile
  7676  000B66  8C81               	line	147
  7677                           	
  7678                           i2l3005:
  7679  000B68                     ;comunica.c: 147:             TXREG = 1;
  7680                           	movlw	low(01h)
  7681  000B68  0E01               	movwf	((c:4013)),c	;volatile
  7682  000B6A  6EAD               	line	148
  7683                           	
  7684                           i2l3007:
  7685  000B6C                     ;comunica.c: 148:             estado = estado + 1;
  7686                           	movlw	low(01h)
  7687  000B6C  0E01               	movlb	0	; () banked
  7688  000B6E  0100               	addwf	((_estado))&0ffh,w
  7689  000B70  25F4               	movwf	((_estado))&0ffh
  7690  000B72  6FF4               	movlw	high(01h)
  7691  000B74  0E00               	addwfc	((_estado+1))&0ffh,w
  7692  000B76  21F5               	movwf	1+((_estado))&0ffh
  7693  000B78  6FF5               	line	149
  7694                           	
  7695                           i2l3009:; BSR set to: 0
  7696  000B7A                     
  7697                           ;comunica.c: 149:             escreve();
  7698                           	call	i2_escreve	;wreg free
  7699  000B7A  EC31  F016         	line	150
  7700                           ;comunica.c: 150:         }
  7701                           	goto	i2l208
  7702  000B7E  EF9F  F007         	line	151
  7703                           ;comunica.c: 151:         else if(((RCREG == '2') || (estado == 2)) && (PORTCbits.RC3 ==
                                  0)){
  7704                           	
  7705                           i2l173:
  7706  000B82                     	
  7707                           i2l3011:
  7708  000B82                     		movlw	50
  7709  000B82  0E32               	xorwf	((c:4014)),c,w	;volatile
  7710  000B84  18AE               	btfsc	status,2
  7711  000B86  B4D8               	goto	i2u294_41
  7712  000B88  EFC8  F005         	goto	i2u294_40
  7713  000B8C  EFCA  F005         
  7714                           i2u294_41:
  7715  000B90                     	goto	i2l179
  7716  000B90  EFD5  F005         i2u294_40:
  7717  000B94                     	
  7718                           i2l3013:
  7719  000B94                     		movlw	2
  7720  000B94  0E02               	movlb	0	; () banked
  7721  000B96  0100               	xorwf	((_estado))&0ffh,w
  7722  000B98  19F4               iorwf	((_estado+1))&0ffh,w
  7723  000B9A  11F5               	btfss	status,2
  7724  000B9C  A4D8               	goto	i2u295_41
  7725  000B9E  EFD3  F005         	goto	i2u295_40
  7726  000BA2  EFD5  F005         
  7727                           i2u295_41:
  7728  000BA6                     	goto	i2l3031
  7729  000BA6  EF04  F006         i2u295_40:
  7730  000BAA                     	
  7731                           i2l179:
  7732  000BAA                     	btfsc	((c:3970)),c,3	;volatile
  7733  000BAA  B682               	goto	i2u296_41
  7734  000BAC  EFDA  F005         	goto	i2u296_40
  7735  000BB0  EFDC  F005         i2u296_41:
  7736  000BB4                     	goto	i2l3031
  7737  000BB4  EF04  F006         i2u296_40:
  7738  000BB8                     	line	152
  7739                           	
  7740                           i2l3015:
  7741  000BB8                     ;comunica.c: 152:             PORTBbits.RB5 =1;
  7742                           	bsf	((c:3969)),c,5	;volatile
  7743  000BB8  8A81               	line	153
  7744                           ;comunica.c: 153:             PORTBbits.RB7 =0;
  7745                           	bcf	((c:3969)),c,7	;volatile
  7746  000BBA  9E81               	line	154
  7747                           ;comunica.c: 154:             PORTBbits.RB6 =0;
  7748                           	bcf	((c:3969)),c,6	;volatile
  7749  000BBC  9C81               	line	155
  7750                           	
  7751                           i2l3017:
  7752  000BBE                     ;comunica.c: 155:             _delay((unsigned long)((500)*(4000000/4000.0)));
  7753                           	opt asmopt_push
  7754                           opt asmopt_off
  7755                           movlw  3
  7756  000BBE  0E03               movwf	(??i2_estadosMaquina+0+0+1)&0ffh,c,f
  7757  000BC0  6E6B               movlw	138
  7758  000BC2  0E8A               movwf	(??i2_estadosMaquina+0+0)&0ffh,c,f
  7759  000BC4  6E6A               	movlw	86
  7760  000BC6  0E56               i2u345_47:
  7761  000BC8                     decfsz	wreg,f
  7762  000BC8  2EE8               	bra	i2u345_47
  7763  000BCA  D7FE               	decfsz	(??i2_estadosMaquina+0+0)&0ffh,c,f
  7764  000BCC  2E6A               	bra	i2u345_47
  7765  000BCE  D7FC               	decfsz	(??i2_estadosMaquina+0+0+1)&0ffh,c,f
  7766  000BD0  2E6B               	bra	i2u345_47
  7767  000BD2  D7FA               opt asmopt_pop
  7768                           
  7769                           	line	156
  7770                           	
  7771                           i2l3019:
  7772  000BD4                     ;comunica.c: 156:             PORTBbits.RB7 = 1;
  7773                           	bsf	((c:3969)),c,7	;volatile
  7774  000BD4  8E81               	line	157
  7775                           	
  7776                           i2l3021:
  7777  000BD6                     ;comunica.c: 157:             sprintf(estadoMes, "Agitar");
  7778                           		movlw	low(_estadoMes)
  7779  000BD6  0E20               	movwf	((c:i2sprintf@s)),c
  7780  000BD8  6E58               	movlw	high(_estadoMes)
  7781  000BDA  0E01               	movwf	((c:i2sprintf@s+1)),c
  7782  000BDC  6E59               
  7783                           		movlw	low(STR_4)
  7784  000BDE  0E33               	movwf	((c:i2sprintf@fmt)),c
  7785  000BE0  6E5A               	movlw	high(STR_4)
  7786  000BE2  0E06               	movwf	((c:i2sprintf@fmt+1)),c
  7787  000BE4  6E5B               
  7788                           	call	i2_sprintf	;wreg free
  7789  000BE6  EC89  F014         	line	158
  7790                           	
  7791                           i2l3023:
  7792  000BEA                     ;comunica.c: 158:             tempo1();
  7793                           	call	i2_tempo1	;wreg free
  7794  000BEA  EC11  F013         	line	159
  7795                           	
  7796                           i2l3025:
  7797  000BEE                     ;comunica.c: 159:             TXREG = 2;
  7798                           	movlw	low(02h)
  7799  000BEE  0E02               	movwf	((c:4013)),c	;volatile
  7800  000BF0  6EAD               	line	160
  7801                           	
  7802                           i2l3027:
  7803  000BF2                     ;comunica.c: 160:             estado = estado + 1;
  7804                           	movlw	low(01h)
  7805  000BF2  0E01               	movlb	0	; () banked
  7806  000BF4  0100               	addwf	((_estado))&0ffh,w
  7807  000BF6  25F4               	movwf	((_estado))&0ffh
  7808  000BF8  6FF4               	movlw	high(01h)
  7809  000BFA  0E00               	addwfc	((_estado+1))&0ffh,w
  7810  000BFC  21F5               	movwf	1+((_estado))&0ffh
  7811  000BFE  6FF5               	line	161
  7812                           	
  7813                           i2l3029:; BSR set to: 0
  7814  000C00                     
  7815                           ;comunica.c: 161:             escreve();
  7816                           	call	i2_escreve	;wreg free
  7817  000C00  EC31  F016         	line	162
  7818                           ;comunica.c: 162:         }
  7819                           	goto	i2l208
  7820  000C04  EF9F  F007         	line	163
  7821                           ;comunica.c: 163:         else if((RCREG == '3') || (estado == 3)){
  7822                           	
  7823                           i2l177:
  7824  000C08                     	
  7825                           i2l3031:
  7826  000C08                     		movlw	51
  7827  000C08  0E33               	xorwf	((c:4014)),c,w	;volatile
  7828  000C0A  18AE               	btfsc	status,2
  7829  000C0C  B4D8               	goto	i2u297_41
  7830  000C0E  EF0B  F006         	goto	i2u297_40
  7831  000C12  EF0D  F006         
  7832                           i2u297_41:
  7833  000C16                     	goto	i2l183
  7834  000C16  EF18  F006         i2u297_40:
  7835  000C1A                     	
  7836                           i2l3033:
  7837  000C1A                     		movlw	3
  7838  000C1A  0E03               	movlb	0	; () banked
  7839  000C1C  0100               	xorwf	((_estado))&0ffh,w
  7840  000C1E  19F4               iorwf	((_estado+1))&0ffh,w
  7841  000C20  11F5               	btfss	status,2
  7842  000C22  A4D8               	goto	i2u298_41
  7843  000C24  EF16  F006         	goto	i2u298_40
  7844  000C28  EF18  F006         
  7845                           i2u298_41:
  7846  000C2C                     	goto	i2l3047
  7847  000C2C  EF3D  F006         i2u298_40:
  7848  000C30                     	
  7849                           i2l183:
  7850  000C30                     	line	164
  7851                           ;comunica.c: 164:             PORTBbits.RB5 =0;
  7852                           	bcf	((c:3969)),c,5	;volatile
  7853  000C30  9A81               	line	165
  7854                           ;comunica.c: 165:             PORTBbits.RB7 =0;
  7855                           	bcf	((c:3969)),c,7	;volatile
  7856  000C32  9E81               	line	166
  7857                           	
  7858                           i2l3035:
  7859  000C34                     ;comunica.c: 166:             _delay((unsigned long)((500)*(4000000/4000.0)));
  7860                           	opt asmopt_push
  7861                           opt asmopt_off
  7862                           movlw  3
  7863  000C34  0E03               movwf	(??i2_estadosMaquina+0+0+1)&0ffh,c,f
  7864  000C36  6E6B               movlw	138
  7865  000C38  0E8A               movwf	(??i2_estadosMaquina+0+0)&0ffh,c,f
  7866  000C3A  6E6A               	movlw	86
  7867  000C3C  0E56               i2u346_47:
  7868  000C3E                     decfsz	wreg,f
  7869  000C3E  2EE8               	bra	i2u346_47
  7870  000C40  D7FE               	decfsz	(??i2_estadosMaquina+0+0)&0ffh,c,f
  7871  000C42  2E6A               	bra	i2u346_47
  7872  000C44  D7FC               	decfsz	(??i2_estadosMaquina+0+0+1)&0ffh,c,f
  7873  000C46  2E6B               	bra	i2u346_47
  7874  000C48  D7FA               opt asmopt_pop
  7875                           
  7876                           	line	167
  7877                           	
  7878                           i2l3037:
  7879  000C4A                     ;comunica.c: 167:             PORTBbits.RB6 =1;
  7880                           	bsf	((c:3969)),c,6	;volatile
  7881  000C4A  8C81               	line	168
  7882                           	
  7883                           i2l3039:
  7884  000C4C                     ;comunica.c: 168:             sprintf(estadoMes, "Drenar");
  7885                           		movlw	low(_estadoMes)
  7886  000C4C  0E20               	movwf	((c:i2sprintf@s)),c
  7887  000C4E  6E58               	movlw	high(_estadoMes)
  7888  000C50  0E01               	movwf	((c:i2sprintf@s+1)),c
  7889  000C52  6E59               
  7890                           		movlw	low(STR_5)
  7891  000C54  0E2C               	movwf	((c:i2sprintf@fmt)),c
  7892  000C56  6E5A               	movlw	high(STR_5)
  7893  000C58  0E06               	movwf	((c:i2sprintf@fmt+1)),c
  7894  000C5A  6E5B               
  7895                           	call	i2_sprintf	;wreg free
  7896  000C5C  EC89  F014         	line	169
  7897                           	
  7898                           i2l3041:
  7899  000C60                     ;comunica.c: 169:             TXREG = 3;
  7900                           	movlw	low(03h)
  7901  000C60  0E03               	movwf	((c:4013)),c	;volatile
  7902  000C62  6EAD               	line	170
  7903                           	
  7904                           i2l3043:
  7905  000C64                     ;comunica.c: 170:             estado = estado + 1;
  7906                           	movlw	low(01h)
  7907  000C64  0E01               	movlb	0	; () banked
  7908  000C66  0100               	addwf	((_estado))&0ffh,w
  7909  000C68  25F4               	movwf	((_estado))&0ffh
  7910  000C6A  6FF4               	movlw	high(01h)
  7911  000C6C  0E00               	addwfc	((_estado+1))&0ffh,w
  7912  000C6E  21F5               	movwf	1+((_estado))&0ffh
  7913  000C70  6FF5               	line	171
  7914                           	
  7915                           i2l3045:; BSR set to: 0
  7916  000C72                     
  7917                           ;comunica.c: 171:             escreve();
  7918                           	call	i2_escreve	;wreg free
  7919  000C72  EC31  F016         	line	172
  7920                           ;comunica.c: 172:         }
  7921                           	goto	i2l208
  7922  000C76  EF9F  F007         	line	173
  7923                           ;comunica.c: 173:         else if(((RCREG == '4') || (estado == 4)) && (PORTCbits.RC0 ==
                                  0 )){
  7924                           	
  7925                           i2l181:
  7926  000C7A                     	
  7927                           i2l3047:
  7928  000C7A                     		movlw	52
  7929  000C7A  0E34               	xorwf	((c:4014)),c,w	;volatile
  7930  000C7C  18AE               	btfsc	status,2
  7931  000C7E  B4D8               	goto	i2u299_41
  7932  000C80  EF44  F006         	goto	i2u299_40
  7933  000C84  EF46  F006         
  7934                           i2u299_41:
  7935  000C88                     	goto	i2l187
  7936  000C88  EF51  F006         i2u299_40:
  7937  000C8C                     	
  7938                           i2l3049:
  7939  000C8C                     		movlw	4
  7940  000C8C  0E04               	movlb	0	; () banked
  7941  000C8E  0100               	xorwf	((_estado))&0ffh,w
  7942  000C90  19F4               iorwf	((_estado+1))&0ffh,w
  7943  000C92  11F5               	btfss	status,2
  7944  000C94  A4D8               	goto	i2u300_41
  7945  000C96  EF4F  F006         	goto	i2u300_40
  7946  000C9A  EF51  F006         
  7947                           i2u300_41:
  7948  000C9E                     	goto	i2l3061
  7949  000C9E  EF73  F006         i2u300_40:
  7950  000CA2                     	
  7951                           i2l187:
  7952  000CA2                     	btfsc	((c:3970)),c,0	;volatile
  7953  000CA2  B082               	goto	i2u301_41
  7954  000CA4  EF56  F006         	goto	i2u301_40
  7955  000CA8  EF58  F006         i2u301_41:
  7956  000CAC                     	goto	i2l3061
  7957  000CAC  EF73  F006         i2u301_40:
  7958  000CB0                     	line	174
  7959                           	
  7960                           i2l3051:
  7961  000CB0                     ;comunica.c: 174:              PORTBbits.RB5 =1;
  7962                           	bsf	((c:3969)),c,5	;volatile
  7963  000CB0  8A81               	line	175
  7964                           ;comunica.c: 175:              PORTBbits.RB7 =1;
  7965                           	bsf	((c:3969)),c,7	;volatile
  7966  000CB2  8E81               	line	176
  7967                           	
  7968                           i2l3053:
  7969  000CB4                     ;comunica.c: 176:              sprintf(estadoMes, "Centrif.");
  7970                           		movlw	low(_estadoMes)
  7971  000CB4  0E20               	movwf	((c:i2sprintf@s)),c
  7972  000CB6  6E58               	movlw	high(_estadoMes)
  7973  000CB8  0E01               	movwf	((c:i2sprintf@s+1)),c
  7974  000CBA  6E59               
  7975                           		movlw	low(STR_6)
  7976  000CBC  0E0B               	movwf	((c:i2sprintf@fmt)),c
  7977  000CBE  6E5A               	movlw	high(STR_6)
  7978  000CC0  0E06               	movwf	((c:i2sprintf@fmt+1)),c
  7979  000CC2  6E5B               
  7980                           	call	i2_sprintf	;wreg free
  7981  000CC4  EC89  F014         	line	177
  7982                           ;comunica.c: 177:              tempo1();
  7983                           	call	i2_tempo1	;wreg free
  7984  000CC8  EC11  F013         	line	178
  7985                           	
  7986                           i2l3055:
  7987  000CCC                     ;comunica.c: 178:              TXREG = 4;
  7988                           	movlw	low(04h)
  7989  000CCC  0E04               	movwf	((c:4013)),c	;volatile
  7990  000CCE  6EAD               	line	179
  7991                           	
  7992                           i2l3057:
  7993  000CD0                     ;comunica.c: 179:              estado = estado + 1;
  7994                           	movlw	low(01h)
  7995  000CD0  0E01               	movlb	0	; () banked
  7996  000CD2  0100               	addwf	((_estado))&0ffh,w
  7997  000CD4  25F4               	movwf	((_estado))&0ffh
  7998  000CD6  6FF4               	movlw	high(01h)
  7999  000CD8  0E00               	addwfc	((_estado+1))&0ffh,w
  8000  000CDA  21F5               	movwf	1+((_estado))&0ffh
  8001  000CDC  6FF5               	line	180
  8002                           	
  8003                           i2l3059:; BSR set to: 0
  8004  000CDE                     
  8005                           ;comunica.c: 180:              escreve();
  8006                           	call	i2_escreve	;wreg free
  8007  000CDE  EC31  F016         	line	181
  8008                           ;comunica.c: 181:         }
  8009                           	goto	i2l208
  8010  000CE2  EF9F  F007         	line	182
  8011                           ;comunica.c: 182:         else if((RCREG == '5') || (estado == 5)){
  8012                           	
  8013                           i2l185:
  8014  000CE6                     	
  8015                           i2l3061:
  8016  000CE6                     		movlw	53
  8017  000CE6  0E35               	xorwf	((c:4014)),c,w	;volatile
  8018  000CE8  18AE               	btfsc	status,2
  8019  000CEA  B4D8               	goto	i2u302_41
  8020  000CEC  EF7A  F006         	goto	i2u302_40
  8021  000CF0  EF7C  F006         
  8022                           i2u302_41:
  8023  000CF4                     	goto	i2l191
  8024  000CF4  EF87  F006         i2u302_40:
  8025  000CF8                     	
  8026                           i2l3063:
  8027  000CF8                     		movlw	5
  8028  000CF8  0E05               	movlb	0	; () banked
  8029  000CFA  0100               	xorwf	((_estado))&0ffh,w
  8030  000CFC  19F4               iorwf	((_estado+1))&0ffh,w
  8031  000CFE  11F5               	btfss	status,2
  8032  000D00  A4D8               	goto	i2u303_41
  8033  000D02  EF85  F006         	goto	i2u303_40
  8034  000D06  EF87  F006         
  8035                           i2u303_41:
  8036  000D0A                     	goto	i2l3079
  8037  000D0A  EFAE  F006         i2u303_40:
  8038  000D0E                     	
  8039                           i2l191:
  8040  000D0E                     	line	183
  8041                           ;comunica.c: 183:             PORTBbits.RB7 =0;
  8042                           	bcf	((c:3969)),c,7	;volatile
  8043  000D0E  9E81               	line	184
  8044                           ;comunica.c: 184:             PORTBbits.RB6 =0;
  8045                           	bcf	((c:3969)),c,6	;volatile
  8046  000D10  9C81               	line	185
  8047                           ;comunica.c: 185:              PORTBbits.RB5 =0;
  8048                           	bcf	((c:3969)),c,5	;volatile
  8049  000D12  9A81               	line	186
  8050                           	
  8051                           i2l3065:
  8052  000D14                     ;comunica.c: 186:             _delay((unsigned long)((500)*(4000000/4000.0)));
  8053                           	opt asmopt_push
  8054                           opt asmopt_off
  8055                           movlw  3
  8056  000D14  0E03               movwf	(??i2_estadosMaquina+0+0+1)&0ffh,c,f
  8057  000D16  6E6B               movlw	138
  8058  000D18  0E8A               movwf	(??i2_estadosMaquina+0+0)&0ffh,c,f
  8059  000D1A  6E6A               	movlw	86
  8060  000D1C  0E56               i2u347_47:
  8061  000D1E                     decfsz	wreg,f
  8062  000D1E  2EE8               	bra	i2u347_47
  8063  000D20  D7FE               	decfsz	(??i2_estadosMaquina+0+0)&0ffh,c,f
  8064  000D22  2E6A               	bra	i2u347_47
  8065  000D24  D7FC               	decfsz	(??i2_estadosMaquina+0+0+1)&0ffh,c,f
  8066  000D26  2E6B               	bra	i2u347_47
  8067  000D28  D7FA               opt asmopt_pop
  8068                           
  8069                           	line	187
  8070                           	
  8071                           i2l3067:
  8072  000D2A                     ;comunica.c: 187:              PORTBbits.RB7 =1;
  8073                           	bsf	((c:3969)),c,7	;volatile
  8074  000D2A  8E81               	line	188
  8075                           	
  8076                           i2l3069:
  8077  000D2C                     ;comunica.c: 188:              PORTBbits.RB6 =1;
  8078                           	bsf	((c:3969)),c,6	;volatile
  8079  000D2C  8C81               	line	189
  8080                           	
  8081                           i2l3071:
  8082  000D2E                     ;comunica.c: 189:             sprintf(estadoMes, "Enxaguar");
  8083                           		movlw	low(_estadoMes)
  8084  000D2E  0E20               	movwf	((c:i2sprintf@s)),c
  8085  000D30  6E58               	movlw	high(_estadoMes)
  8086  000D32  0E01               	movwf	((c:i2sprintf@s+1)),c
  8087  000D34  6E59               
  8088                           		movlw	low(STR_7)
  8089  000D36  0E14               	movwf	((c:i2sprintf@fmt)),c
  8090  000D38  6E5A               	movlw	high(STR_7)
  8091  000D3A  0E06               	movwf	((c:i2sprintf@fmt+1)),c
  8092  000D3C  6E5B               
  8093                           	call	i2_sprintf	;wreg free
  8094  000D3E  EC89  F014         	line	190
  8095                           	
  8096                           i2l3073:
  8097  000D42                     ;comunica.c: 190:             TXREG = 5;
  8098                           	movlw	low(05h)
  8099  000D42  0E05               	movwf	((c:4013)),c	;volatile
  8100  000D44  6EAD               	line	191
  8101                           	
  8102                           i2l3075:
  8103  000D46                     ;comunica.c: 191:             estado = estado + 1;
  8104                           	movlw	low(01h)
  8105  000D46  0E01               	movlb	0	; () banked
  8106  000D48  0100               	addwf	((_estado))&0ffh,w
  8107  000D4A  25F4               	movwf	((_estado))&0ffh
  8108  000D4C  6FF4               	movlw	high(01h)
  8109  000D4E  0E00               	addwfc	((_estado+1))&0ffh,w
  8110  000D50  21F5               	movwf	1+((_estado))&0ffh
  8111  000D52  6FF5               	line	192
  8112                           	
  8113                           i2l3077:; BSR set to: 0
  8114  000D54                     
  8115                           ;comunica.c: 192:             escreve();
  8116                           	call	i2_escreve	;wreg free
  8117  000D54  EC31  F016         	line	193
  8118                           ;comunica.c: 193:         }
  8119                           	goto	i2l208
  8120  000D58  EF9F  F007         	line	194
  8121                           ;comunica.c: 194:         else if((RCREG == '6') || (estado == 6) && (PORTCbits.RC3 == 0
                                 )){
  8122                           	
  8123                           i2l189:
  8124  000D5C                     	
  8125                           i2l3079:
  8126  000D5C                     		movlw	54
  8127  000D5C  0E36               	xorwf	((c:4014)),c,w	;volatile
  8128  000D5E  18AE               	btfsc	status,2
  8129  000D60  B4D8               	goto	i2u304_41
  8130  000D62  EFB5  F006         	goto	i2u304_40
  8131  000D66  EFB7  F006         
  8132                           i2u304_41:
  8133  000D6A                     	goto	i2l195
  8134  000D6A  EFC9  F006         i2u304_40:
  8135  000D6E                     	
  8136                           i2l3081:
  8137  000D6E                     		movlw	6
  8138  000D6E  0E06               	movlb	0	; () banked
  8139  000D70  0100               	xorwf	((_estado))&0ffh,w
  8140  000D72  19F4               iorwf	((_estado+1))&0ffh,w
  8141  000D74  11F5               	btfss	status,2
  8142  000D76  A4D8               	goto	i2u305_41
  8143  000D78  EFC0  F006         	goto	i2u305_40
  8144  000D7C  EFC2  F006         
  8145                           i2u305_41:
  8146  000D80                     	goto	i2l3101
  8147  000D80  EFF1  F006         i2u305_40:
  8148  000D84                     	
  8149                           i2l3083:; BSR set to: 0
  8150  000D84                     
  8151                           	btfsc	((c:3970)),c,3	;volatile
  8152  000D84  B682               	goto	i2u306_41
  8153  000D86  EFC7  F006         	goto	i2u306_40
  8154  000D8A  EFC9  F006         i2u306_41:
  8155  000D8E                     	goto	i2l3101
  8156  000D8E  EFF1  F006         i2u306_40:
  8157  000D92                     	
  8158                           i2l195:
  8159  000D92                     	line	195
  8160                           ;comunica.c: 195:             PORTBbits.RB7 =0;
  8161                           	bcf	((c:3969)),c,7	;volatile
  8162  000D92  9E81               	line	196
  8163                           ;comunica.c: 196:             PORTBbits.RB6 =0;
  8164                           	bcf	((c:3969)),c,6	;volatile
  8165  000D94  9C81               	line	197
  8166                           	
  8167                           i2l3085:
  8168  000D96                     ;comunica.c: 197:             _delay((unsigned long)((500)*(4000000/4000.0)));
  8169                           	opt asmopt_push
  8170                           opt asmopt_off
  8171                           movlw  3
  8172  000D96  0E03               movwf	(??i2_estadosMaquina+0+0+1)&0ffh,c,f
  8173  000D98  6E6B               movlw	138
  8174  000D9A  0E8A               movwf	(??i2_estadosMaquina+0+0)&0ffh,c,f
  8175  000D9C  6E6A               	movlw	86
  8176  000D9E  0E56               i2u348_47:
  8177  000DA0                     decfsz	wreg,f
  8178  000DA0  2EE8               	bra	i2u348_47
  8179  000DA2  D7FE               	decfsz	(??i2_estadosMaquina+0+0)&0ffh,c,f
  8180  000DA4  2E6A               	bra	i2u348_47
  8181  000DA6  D7FC               	decfsz	(??i2_estadosMaquina+0+0+1)&0ffh,c,f
  8182  000DA8  2E6B               	bra	i2u348_47
  8183  000DAA  D7FA               opt asmopt_pop
  8184                           
  8185                           	line	198
  8186                           	
  8187                           i2l3087:
  8188  000DAC                     ;comunica.c: 198:             PORTBbits.RB7 =1;
  8189                           	bsf	((c:3969)),c,7	;volatile
  8190  000DAC  8E81               	line	199
  8191                           	
  8192                           i2l3089:
  8193  000DAE                     ;comunica.c: 199:             PORTBbits.RB5 =1;
  8194                           	bsf	((c:3969)),c,5	;volatile
  8195  000DAE  8A81               	line	200
  8196                           	
  8197                           i2l3091:
  8198  000DB0                     ;comunica.c: 200:             sprintf(estadoMes, "Agitar");
  8199                           		movlw	low(_estadoMes)
  8200  000DB0  0E20               	movwf	((c:i2sprintf@s)),c
  8201  000DB2  6E58               	movlw	high(_estadoMes)
  8202  000DB4  0E01               	movwf	((c:i2sprintf@s+1)),c
  8203  000DB6  6E59               
  8204                           		movlw	low(STR_8)
  8205  000DB8  0E33               	movwf	((c:i2sprintf@fmt)),c
  8206  000DBA  6E5A               	movlw	high(STR_8)
  8207  000DBC  0E06               	movwf	((c:i2sprintf@fmt+1)),c
  8208  000DBE  6E5B               
  8209                           	call	i2_sprintf	;wreg free
  8210  000DC0  EC89  F014         	line	201
  8211                           	
  8212                           i2l3093:
  8213  000DC4                     ;comunica.c: 201:             tempo1();
  8214                           	call	i2_tempo1	;wreg free
  8215  000DC4  EC11  F013         	line	202
  8216                           	
  8217                           i2l3095:
  8218  000DC8                     ;comunica.c: 202:             TXREG = 6;
  8219                           	movlw	low(06h)
  8220  000DC8  0E06               	movwf	((c:4013)),c	;volatile
  8221  000DCA  6EAD               	line	203
  8222                           	
  8223                           i2l3097:
  8224  000DCC                     ;comunica.c: 203:             estado = estado + 1;
  8225                           	movlw	low(01h)
  8226  000DCC  0E01               	movlb	0	; () banked
  8227  000DCE  0100               	addwf	((_estado))&0ffh,w
  8228  000DD0  25F4               	movwf	((_estado))&0ffh
  8229  000DD2  6FF4               	movlw	high(01h)
  8230  000DD4  0E00               	addwfc	((_estado+1))&0ffh,w
  8231  000DD6  21F5               	movwf	1+((_estado))&0ffh
  8232  000DD8  6FF5               	line	204
  8233                           	
  8234                           i2l3099:; BSR set to: 0
  8235  000DDA                     
  8236                           ;comunica.c: 204:             escreve();
  8237                           	call	i2_escreve	;wreg free
  8238  000DDA  EC31  F016         	line	205
  8239                           ;comunica.c: 205:         }
  8240                           	goto	i2l208
  8241  000DDE  EF9F  F007         	line	206
  8242                           ;comunica.c: 206:         else if((RCREG == '7') || (estado == 7)){
  8243                           	
  8244                           i2l193:
  8245  000DE2                     	
  8246                           i2l3101:
  8247  000DE2                     		movlw	55
  8248  000DE2  0E37               	xorwf	((c:4014)),c,w	;volatile
  8249  000DE4  18AE               	btfsc	status,2
  8250  000DE6  B4D8               	goto	i2u307_41
  8251  000DE8  EFF8  F006         	goto	i2u307_40
  8252  000DEC  EFFA  F006         
  8253                           i2u307_41:
  8254  000DF0                     	goto	i2l199
  8255  000DF0  EF05  F007         i2u307_40:
  8256  000DF4                     	
  8257                           i2l3103:
  8258  000DF4                     		movlw	7
  8259  000DF4  0E07               	movlb	0	; () banked
  8260  000DF6  0100               	xorwf	((_estado))&0ffh,w
  8261  000DF8  19F4               iorwf	((_estado+1))&0ffh,w
  8262  000DFA  11F5               	btfss	status,2
  8263  000DFC  A4D8               	goto	i2u308_41
  8264  000DFE  EF03  F007         	goto	i2u308_40
  8265  000E02  EF05  F007         
  8266                           i2u308_41:
  8267  000E06                     	goto	i2l3117
  8268  000E06  EF2A  F007         i2u308_40:
  8269  000E0A                     	
  8270                           i2l199:
  8271  000E0A                     	line	207
  8272                           ;comunica.c: 207:             PORTBbits.RB7 =0;
  8273                           	bcf	((c:3969)),c,7	;volatile
  8274  000E0A  9E81               	line	208
  8275                           ;comunica.c: 208:             PORTBbits.RB5 =0;
  8276                           	bcf	((c:3969)),c,5	;volatile
  8277  000E0C  9A81               	line	209
  8278                           	
  8279                           i2l3105:
  8280  000E0E                     ;comunica.c: 209:             _delay((unsigned long)((500)*(4000000/4000.0)));
  8281                           	opt asmopt_push
  8282                           opt asmopt_off
  8283                           movlw  3
  8284  000E0E  0E03               movwf	(??i2_estadosMaquina+0+0+1)&0ffh,c,f
  8285  000E10  6E6B               movlw	138
  8286  000E12  0E8A               movwf	(??i2_estadosMaquina+0+0)&0ffh,c,f
  8287  000E14  6E6A               	movlw	86
  8288  000E16  0E56               i2u349_47:
  8289  000E18                     decfsz	wreg,f
  8290  000E18  2EE8               	bra	i2u349_47
  8291  000E1A  D7FE               	decfsz	(??i2_estadosMaquina+0+0)&0ffh,c,f
  8292  000E1C  2E6A               	bra	i2u349_47
  8293  000E1E  D7FC               	decfsz	(??i2_estadosMaquina+0+0+1)&0ffh,c,f
  8294  000E20  2E6B               	bra	i2u349_47
  8295  000E22  D7FA               opt asmopt_pop
  8296                           
  8297                           	line	210
  8298                           	
  8299                           i2l3107:
  8300  000E24                     ;comunica.c: 210:             PORTBbits.RB6 =1;
  8301                           	bsf	((c:3969)),c,6	;volatile
  8302  000E24  8C81               	line	211
  8303                           	
  8304                           i2l3109:
  8305  000E26                     ;comunica.c: 211:             sprintf(estadoMes, "Drenar");
  8306                           		movlw	low(_estadoMes)
  8307  000E26  0E20               	movwf	((c:i2sprintf@s)),c
  8308  000E28  6E58               	movlw	high(_estadoMes)
  8309  000E2A  0E01               	movwf	((c:i2sprintf@s+1)),c
  8310  000E2C  6E59               
  8311                           		movlw	low(STR_9)
  8312  000E2E  0E2C               	movwf	((c:i2sprintf@fmt)),c
  8313  000E30  6E5A               	movlw	high(STR_9)
  8314  000E32  0E06               	movwf	((c:i2sprintf@fmt+1)),c
  8315  000E34  6E5B               
  8316                           	call	i2_sprintf	;wreg free
  8317  000E36  EC89  F014         	line	212
  8318                           	
  8319                           i2l3111:
  8320  000E3A                     ;comunica.c: 212:             TXREG = 7;
  8321                           	movlw	low(07h)
  8322  000E3A  0E07               	movwf	((c:4013)),c	;volatile
  8323  000E3C  6EAD               	line	213
  8324                           	
  8325                           i2l3113:
  8326  000E3E                     ;comunica.c: 213:             estado = estado + 1;
  8327                           	movlw	low(01h)
  8328  000E3E  0E01               	movlb	0	; () banked
  8329  000E40  0100               	addwf	((_estado))&0ffh,w
  8330  000E42  25F4               	movwf	((_estado))&0ffh
  8331  000E44  6FF4               	movlw	high(01h)
  8332  000E46  0E00               	addwfc	((_estado+1))&0ffh,w
  8333  000E48  21F5               	movwf	1+((_estado))&0ffh
  8334  000E4A  6FF5               	line	214
  8335                           	
  8336                           i2l3115:; BSR set to: 0
  8337  000E4C                     
  8338                           ;comunica.c: 214:             escreve();
  8339                           	call	i2_escreve	;wreg free
  8340  000E4C  EC31  F016         	line	215
  8341                           ;comunica.c: 215:         }
  8342                           	goto	i2l208
  8343  000E50  EF9F  F007         	line	216
  8344                           ;comunica.c: 216:         else if((RCREG == '8') || (estado == 8) && (PORTCbits.RC0 == 0
                                  )){
  8345                           	
  8346                           i2l197:
  8347  000E54                     	
  8348                           i2l3117:
  8349  000E54                     		movlw	56
  8350  000E54  0E38               	xorwf	((c:4014)),c,w	;volatile
  8351  000E56  18AE               	btfsc	status,2
  8352  000E58  B4D8               	goto	i2u309_41
  8353  000E5A  EF31  F007         	goto	i2u309_40
  8354  000E5E  EF33  F007         
  8355                           i2u309_41:
  8356  000E62                     	goto	i2l203
  8357  000E62  EF45  F007         i2u309_40:
  8358  000E66                     	
  8359                           i2l3119:
  8360  000E66                     		movlw	8
  8361  000E66  0E08               	movlb	0	; () banked
  8362  000E68  0100               	xorwf	((_estado))&0ffh,w
  8363  000E6A  19F4               iorwf	((_estado+1))&0ffh,w
  8364  000E6C  11F5               	btfss	status,2
  8365  000E6E  A4D8               	goto	i2u310_41
  8366  000E70  EF3C  F007         	goto	i2u310_40
  8367  000E74  EF3E  F007         
  8368                           i2u310_41:
  8369  000E78                     	goto	i2l3131
  8370  000E78  EF60  F007         i2u310_40:
  8371  000E7C                     	
  8372                           i2l3121:; BSR set to: 0
  8373  000E7C                     
  8374                           	btfsc	((c:3970)),c,0	;volatile
  8375  000E7C  B082               	goto	i2u311_41
  8376  000E7E  EF43  F007         	goto	i2u311_40
  8377  000E82  EF45  F007         i2u311_41:
  8378  000E86                     	goto	i2l3131
  8379  000E86  EF60  F007         i2u311_40:
  8380  000E8A                     	
  8381                           i2l203:
  8382  000E8A                     	line	217
  8383                           ;comunica.c: 217:             PORTBbits.RB7 =1;
  8384                           	bsf	((c:3969)),c,7	;volatile
  8385  000E8A  8E81               	line	218
  8386                           ;comunica.c: 218:             PORTBbits.RB5 =1;
  8387                           	bsf	((c:3969)),c,5	;volatile
  8388  000E8C  8A81               	line	219
  8389                           	
  8390                           i2l3123:
  8391  000E8E                     ;comunica.c: 219:             sprintf(estadoMes, "Centrif.");
  8392                           		movlw	low(_estadoMes)
  8393  000E8E  0E20               	movwf	((c:i2sprintf@s)),c
  8394  000E90  6E58               	movlw	high(_estadoMes)
  8395  000E92  0E01               	movwf	((c:i2sprintf@s+1)),c
  8396  000E94  6E59               
  8397                           		movlw	low(STR_10)
  8398  000E96  0E0B               	movwf	((c:i2sprintf@fmt)),c
  8399  000E98  6E5A               	movlw	high(STR_10)
  8400  000E9A  0E06               	movwf	((c:i2sprintf@fmt+1)),c
  8401  000E9C  6E5B               
  8402                           	call	i2_sprintf	;wreg free
  8403  000E9E  EC89  F014         	line	220
  8404                           ;comunica.c: 220:             tempo1();
  8405                           	call	i2_tempo1	;wreg free
  8406  000EA2  EC11  F013         	line	221
  8407                           	
  8408                           i2l3125:
  8409  000EA6                     ;comunica.c: 221:             TXREG = 8;
  8410                           	movlw	low(08h)
  8411  000EA6  0E08               	movwf	((c:4013)),c	;volatile
  8412  000EA8  6EAD               	line	222
  8413                           	
  8414                           i2l3127:
  8415  000EAA                     ;comunica.c: 222:             estado = estado + 1;
  8416                           	movlw	low(01h)
  8417  000EAA  0E01               	movlb	0	; () banked
  8418  000EAC  0100               	addwf	((_estado))&0ffh,w
  8419  000EAE  25F4               	movwf	((_estado))&0ffh
  8420  000EB0  6FF4               	movlw	high(01h)
  8421  000EB2  0E00               	addwfc	((_estado+1))&0ffh,w
  8422  000EB4  21F5               	movwf	1+((_estado))&0ffh
  8423  000EB6  6FF5               	line	223
  8424                           	
  8425                           i2l3129:; BSR set to: 0
  8426  000EB8                     
  8427                           ;comunica.c: 223:             escreve();
  8428                           	call	i2_escreve	;wreg free
  8429  000EB8  EC31  F016         	line	224
  8430                           ;comunica.c: 224:         }else if((RCREG == '9') || (estado == 9)){
  8431                           	goto	i2l208
  8432  000EBC  EF9F  F007         	
  8433                           i2l201:
  8434  000EC0                     	
  8435                           i2l3131:
  8436  000EC0                     		movlw	57
  8437  000EC0  0E39               	xorwf	((c:4014)),c,w	;volatile
  8438  000EC2  18AE               	btfsc	status,2
  8439  000EC4  B4D8               	goto	i2u312_41
  8440  000EC6  EF67  F007         	goto	i2u312_40
  8441  000ECA  EF69  F007         
  8442                           i2u312_41:
  8443  000ECE                     	goto	i2l207
  8444  000ECE  EF74  F007         i2u312_40:
  8445  000ED2                     	
  8446                           i2l3133:
  8447  000ED2                     		movlw	9
  8448  000ED2  0E09               	movlb	0	; () banked
  8449  000ED4  0100               	xorwf	((_estado))&0ffh,w
  8450  000ED6  19F4               iorwf	((_estado+1))&0ffh,w
  8451  000ED8  11F5               	btfss	status,2
  8452  000EDA  A4D8               	goto	i2u313_41
  8453  000EDC  EF72  F007         	goto	i2u313_40
  8454  000EE0  EF74  F007         
  8455                           i2u313_41:
  8456  000EE4                     	goto	i2l208
  8457  000EE4  EF9F  F007         i2u313_40:
  8458  000EE8                     	
  8459                           i2l207:
  8460  000EE8                     	line	225
  8461                           ;comunica.c: 225:             PORTBbits.RB7 =0;
  8462                           	bcf	((c:3969)),c,7	;volatile
  8463  000EE8  9E81               	line	226
  8464                           ;comunica.c: 226:             PORTBbits.RB5 =0;
  8465                           	bcf	((c:3969)),c,5	;volatile
  8466  000EEA  9A81               	line	227
  8467                           ;comunica.c: 227:             PORTBbits.RB6 =0;
  8468                           	bcf	((c:3969)),c,6	;volatile
  8469  000EEC  9C81               	line	228
  8470                           	
  8471                           i2l3135:
  8472  000EEE                     ;comunica.c: 228:             estado = 0;
  8473                           	movlw	high(0)
  8474  000EEE  0E00               	movlb	0	; () banked
  8475  000EF0  0100               	movwf	((_estado+1))&0ffh
  8476  000EF2  6FF5               	movlw	low(0)
  8477  000EF4  0E00               	movwf	((_estado))&0ffh
  8478  000EF6  6FF4               	line	229
  8479                           ;comunica.c: 229:             TXREG = 0;
  8480                           	movlw	low(0)
  8481  000EF8  0E00               	movwf	((c:4013)),c	;volatile
  8482  000EFA  6EAD               	line	230
  8483                           	
  8484                           i2l3137:; BSR set to: 0
  8485  000EFC                     
  8486                           ;comunica.c: 230:             sprintf(estadoMes, "Desligado");
  8487                           		movlw	low(_estadoMes)
  8488  000EFC  0E20               	movwf	((c:i2sprintf@s)),c
  8489  000EFE  6E58               	movlw	high(_estadoMes)
  8490  000F00  0E01               	movwf	((c:i2sprintf@s+1)),c
  8491  000F02  6E59               
  8492                           		movlw	low(STR_11)
  8493  000F04  0E01               	movwf	((c:i2sprintf@fmt)),c
  8494  000F06  6E5A               	movlw	high(STR_11)
  8495  000F08  0E06               	movwf	((c:i2sprintf@fmt+1)),c
  8496  000F0A  6E5B               
  8497                           	call	i2_sprintf	;wreg free
  8498  000F0C  EC89  F014         	line	231
  8499                           	
  8500                           i2l3139:
  8501  000F10                     ;comunica.c: 231:             PORTBbits.RB0 = 0;
  8502                           	bcf	((c:3969)),c,0	;volatile
  8503  000F10  9081               	line	232
  8504                           	
  8505                           i2l3141:
  8506  000F12                     ;comunica.c: 232:             escreve();
  8507                           	call	i2_escreve	;wreg free
  8508  000F12  EC31  F016         	goto	i2l208
  8509  000F16  EF9F  F007         	line	233
  8510                           ;comunica.c: 233:         }
  8511                           	
  8512                           i2l205:
  8513  000F1A                     	goto	i2l208
  8514  000F1A  EF9F  F007         	
  8515                           i2l204:
  8516  000F1E                     	goto	i2l208
  8517  000F1E  EF9F  F007         	
  8518                           i2l200:
  8519  000F22                     	goto	i2l208
  8520  000F22  EF9F  F007         	
  8521                           i2l196:
  8522  000F26                     	goto	i2l208
  8523  000F26  EF9F  F007         	
  8524                           i2l192:
  8525  000F2A                     	goto	i2l208
  8526  000F2A  EF9F  F007         	
  8527                           i2l188:
  8528  000F2E                     	goto	i2l208
  8529  000F2E  EF9F  F007         	
  8530                           i2l184:
  8531  000F32                     	goto	i2l208
  8532  000F32  EF9F  F007         	
  8533                           i2l180:
  8534  000F36                     	goto	i2l208
  8535  000F36  EF9F  F007         	
  8536                           i2l176:
  8537  000F3A                     	goto	i2l208
  8538  000F3A  EF9F  F007         	
  8539                           i2l172:
  8540  000F3E                     	line	237
  8541                           	
  8542                           i2l208:
  8543  000F3E                     	return	;funcret
  8544  000F3E  0012               	opt stack 0
  8545                           GLOBAL	__end_ofi2_estadosMaquina
  8546                           	__end_ofi2_estadosMaquina:
  8547  000F40                     	signat	i2_estadosMaquina,89
  8548                           	global	i2_tempo1
  8549                           
  8550 ;; *************** function i2_tempo1 *****************
  8551 ;; Defined at:
  8552 ;;		line 120 in file "comunica.c"
  8553 ;; Parameters:    Size  Location     Type
  8554 ;;		None
  8555 ;; Auto vars:     Size  Location     Type
  8556 ;;		None
  8557 ;; Return value:  Size  Location     Type
  8558 ;;                  1    wreg      void 
  8559 ;; Registers used:
  8560 ;;		wreg, fsr1l, fsr1h, fsr2l, fsr2h, status,2, status,0, tblptrl, tblptrh, tblptru, cstack
  8561 ;; Tracked objects:
  8562 ;;		On entry : 0/0
  8563 ;;		On exit  : 0/0
  8564 ;;		Unchanged: 0/0
  8565 ;; Data sizes:     COMRAM   BANK0   BANK1   BANK2   BANK3   BANK4   BANK5
  8566 ;;      Params:         0       0       0       0       0       0       0
  8567 ;;      Locals:         0       0       0       0       0       0       0
  8568 ;;      Temps:          2       0       0       0       0       0       0
  8569 ;;      Totals:         2       0       0       0       0       0       0
  8570 ;;Total ram usage:        2 bytes
  8571 ;; Hardware stack levels used:    1
  8572 ;; Hardware stack levels required when called:    8
  8573 ;; This function calls:
  8574 ;;		i2_escreve2
  8575 ;;		i2_sprintf
  8576 ;; This function is called by:
  8577 ;;		i2_estadosMaquina
  8578 ;; This function uses a non-reentrant model
  8579 ;;
  8580                           psect	text25,class=CODE,space=0,reloc=2,group=0
  8581                           	line	120
  8582                           global __ptext25
  8583                           __ptext25:
  8584  002622                     psect	text25
  8585                           	file	"comunica.c"
  8586                           	line	120
  8587                           	global	__size_ofi2_tempo1
  8588                           	__size_ofi2_tempo1	equ	__end_ofi2_tempo1-i2_tempo1
  8589  0000                     	
  8590                           i2_tempo1:
  8591  002622                     ;incstack = 0
  8592                           	opt	stack 10
  8593                           	line	122
  8594                           	
  8595                           i2l2747:
  8596  002622                     ;comunica.c: 122:     for(tempo=5;tempo>-1;tempo--)
  8597                           	movlw	high(05h)
  8598  002622  0E00               	movlb	0	; () banked
  8599  002624  0100               	movwf	((_tempo+1))&0ffh
  8600  002626  6FF7               	movlw	low(05h)
  8601  002628  0E05               	movwf	((_tempo))&0ffh
  8602  00262A  6FF6               	
  8603                           i2l2749:; BSR set to: 0
  8604  00262C                     
  8605                           	btfsc	((_tempo+1))&0ffh,7
  8606  00262C  BFF7               	goto	i2u263_40
  8607  00262E  EF1D  F013         	goto	i2u263_41
  8608  002632  EF1B  F013         
  8609                           i2u263_41:
  8610  002636                     	goto	i2l2753
  8611  002636  EF21  F013         i2u263_40:
  8612  00263A                     	goto	i2l166
  8613  00263A  EF54  F013         	
  8614                           i2l2751:; BSR set to: 0
  8615  00263E                     
  8616                           	goto	i2l166
  8617  00263E  EF54  F013         	
  8618                           i2l163:; BSR set to: 0
  8619  002642                     
  8620                           	line	123
  8621                           	
  8622                           i2l2753:; BSR set to: 0
  8623  002642                     
  8624                           ;comunica.c: 123:     { if(estado!=0){
  8625                           	movf	((_estado))&0ffh,w
  8626  002642  51F4               iorwf	((_estado+1))&0ffh,w
  8627  002644  11F5               	btfsc	status,2
  8628  002646  B4D8               	goto	i2u264_41
  8629  002648  EF28  F013         	goto	i2u264_40
  8630  00264C  EF2A  F013         
  8631                           i2u264_41:
  8632  002650                     	goto	i2l2761
  8633  002650  EF47  F013         i2u264_40:
  8634  002654                     	line	124
  8635                           	
  8636                           i2l2755:; BSR set to: 0
  8637  002654                     
  8638                           ;comunica.c: 124:             _delay((unsigned long)((1000)*(4000000/4000.0)));
  8639                           	opt asmopt_push
  8640                           opt asmopt_off
  8641                           movlw  6
  8642  002654  0E06               movwf	(??i2_tempo1+0+0+1)&0ffh,c,f
  8643  002656  6E69               movlw	19
  8644  002658  0E13               movwf	(??i2_tempo1+0+0)&0ffh,c,f
  8645  00265A  6E68               	movlw	174
  8646  00265C  0EAE               i2u350_47:
  8647  00265E                     decfsz	wreg,f
  8648  00265E  2EE8               	bra	i2u350_47
  8649  002660  D7FE               	decfsz	(??i2_tempo1+0+0)&0ffh,c,f
  8650  002662  2E68               	bra	i2u350_47
  8651  002664  D7FC               	decfsz	(??i2_tempo1+0+0+1)&0ffh,c,f
  8652  002666  2E69               	bra	i2u350_47
  8653  002668  D7FA               opt asmopt_pop
  8654                           
  8655                           	line	125
  8656                           	
  8657                           i2l2757:
  8658  00266A                     ;comunica.c: 125:             sprintf(tempoDis, "%i", tempo);
  8659                           		movlw	low(_tempoDis)
  8660  00266A  0EF8               	movwf	((c:i2sprintf@s)),c
  8661  00266C  6E58               	movlw	high(_tempoDis)
  8662  00266E  0E00               	movwf	((c:i2sprintf@s+1)),c
  8663  002670  6E59               
  8664                           		movlw	low(STR_1)
  8665  002672  0E41               	movwf	((c:i2sprintf@fmt)),c
  8666  002674  6E5A               	movlw	high(STR_1)
  8667  002676  0E06               	movwf	((c:i2sprintf@fmt+1)),c
  8668  002678  6E5B               
  8669                           	movff	(_tempo),0+((c:?i2_sprintf)+04h)
  8670  00267A  C0F6  F05C         	movff	(_tempo+1),1+((c:?i2_sprintf)+04h)
  8671  00267E  C0F7  F05D         	call	i2_sprintf	;wreg free
  8672  002682  EC89  F014         	line	126
  8673                           	
  8674                           i2l2759:
  8675  002686                     ;comunica.c: 126:             escreve2();}
  8676                           	call	i2_escreve2	;wreg free
  8677  002686  ECE3  F015         	goto	i2l2761
  8678  00268A  EF47  F013         	
  8679                           i2l165:
  8680  00268E                     	line	127
  8681                           	
  8682                           i2l2761:
  8683  00268E                     ;comunica.c: 127:         }
  8684                           	movlb	0	; () banked
  8685  00268E  0100               	decf	((_tempo))&0ffh
  8686  002690  07F6               	btfss	status,0
  8687  002692  A0D8               	decf	((_tempo+1))&0ffh
  8688  002694  07F7               	
  8689                           i2l2763:; BSR set to: 0
  8690  002696                     
  8691                           	btfsc	((_tempo+1))&0ffh,7
  8692  002696  BFF7               	goto	i2u265_40
  8693  002698  EF52  F013         	goto	i2u265_41
  8694  00269C  EF50  F013         
  8695                           i2u265_41:
  8696  0026A0                     	goto	i2l2753
  8697  0026A0  EF21  F013         i2u265_40:
  8698  0026A4                     	goto	i2l166
  8699  0026A4  EF54  F013         	
  8700                           i2l164:; BSR set to: 0
  8701  0026A8                     
  8702                           	line	128
  8703                           	
  8704                           i2l166:; BSR set to: 0
  8705  0026A8                     
  8706                           	return	;funcret
  8707  0026A8  0012               	opt stack 0
  8708                           GLOBAL	__end_ofi2_tempo1
  8709                           	__end_ofi2_tempo1:
  8710  0026AA                     	signat	i2_tempo1,89
  8711                           	global	i2_sprintf
  8712                           
  8713 ;; *************** function i2_sprintf *****************
  8714 ;; Defined at:
  8715 ;;		line 9 in file "E:\ProgramasWindowns\Microchip\xc8\v2.00\pic\sources\c99\common\nf_sprintf.c"
  8716 ;; Parameters:    Size  Location     Type
  8717 ;;  s               2   87[COMRAM] PTR unsigned char 
  8718 ;;		 -> estadoMes(15), tempoDis(5), 
  8719 ;;  fmt             2   89[COMRAM] PTR const unsigned char 
  8720 ;;		 -> STR_11(10), STR_10(9), STR_9(7), STR_8(7), 
  8721 ;;		 -> STR_7(9), STR_6(9), STR_5(7), STR_4(7), 
  8722 ;;		 -> STR_3(7), STR_2(10), STR_1(3), 
  8723 ;; Auto vars:     Size  Location     Type
  8724 ;;  sprintf         6   97[COMRAM] struct _IO_FILE
  8725 ;;  sprintf         2   95[COMRAM] PTR void [1]
  8726 ;;		 -> ?i2_sprintf(2), ?_sprintf(2), 
  8727 ;;  sprintf         2   93[COMRAM] int 
  8728 ;; Return value:  Size  Location     Type
  8729 ;;                  2   87[COMRAM] int 
  8730 ;; Registers used:
  8731 ;;		wreg, fsr1l, fsr1h, fsr2l, fsr2h, status,2, status,0, tblptrl, tblptrh, tblptru, cstack
  8732 ;; Tracked objects:
  8733 ;;		On entry : 0/0
  8734 ;;		On exit  : 0/0
  8735 ;;		Unchanged: 0/0
  8736 ;; Data sizes:     COMRAM   BANK0   BANK1   BANK2   BANK3   BANK4   BANK5
  8737 ;;      Params:         6       0       0       0       0       0       0
  8738 ;;      Locals:        10       0       0       0       0       0       0
  8739 ;;      Temps:          0       0       0       0       0       0       0
  8740 ;;      Totals:        16       0       0       0       0       0       0
  8741 ;;Total ram usage:       16 bytes
  8742 ;; Hardware stack levels used:    1
  8743 ;; Hardware stack levels required when called:    7
  8744 ;; This function calls:
  8745 ;;		i2_vfprintf
  8746 ;; This function is called by:
  8747 ;;		i2_tempo1
  8748 ;;		i2_estadosMaquina
  8749 ;; This function uses a non-reentrant model
  8750 ;;
  8751                           psect	text26,class=CODE,space=0,reloc=2,group=0
  8752                           	file	"E:\ProgramasWindowns\Microchip\xc8\v2.00\pic\sources\c99\common\nf_sprintf.c"
  8753                           	line	9
  8754                           global __ptext26
  8755                           __ptext26:
  8756  002912                     psect	text26
  8757                           	file	"E:\ProgramasWindowns\Microchip\xc8\v2.00\pic\sources\c99\common\nf_sprintf.c"
  8758                           	line	9
  8759                           	global	__size_ofi2_sprintf
  8760                           	__size_ofi2_sprintf	equ	__end_ofi2_sprintf-i2_sprintf
  8761  0000                     	
  8762                           i2_sprintf:; BSR set to: 0
  8763  002912                     
  8764                           ;incstack = 0
  8765                           	opt	stack 10
  8766                           	line	15
  8767                           	
  8768                           i2l2709:
  8769  002912                     		movlw	low(?i2_sprintf+04h)
  8770  002912  0E5C               	movwf	((c:i2sprintf@ap)),c
  8771  002914  6E60               	movlw	high(?i2_sprintf+04h)
  8772  002916  0E00               	movwf	((c:i2sprintf@ap+1)),c
  8773  002918  6E61               
  8774                           	line	16
  8775                           		movff	(c:i2sprintf@s),(c:i2sprintf@f)
  8776  00291A  C058  F062         	movff	(c:i2sprintf@s+1),(c:i2sprintf@f+1)
  8777  00291E  C059  F063         
  8778                           	line	17
  8779                           	
  8780                           i2l2711:
  8781  002922                     	movlw	high(0)
  8782  002922  0E00               	movwf	(1+((c:i2sprintf@f)+02h)),c
  8783  002924  6E65               	movlw	low(0)
  8784  002926  0E00               	movwf	(0+((c:i2sprintf@f)+02h)),c
  8785  002928  6E64               	line	18
  8786                           	
  8787                           i2l2713:
  8788  00292A                     	movlw	high(0)
  8789  00292A  0E00               	movwf	(1+((c:i2sprintf@f)+04h)),c
  8790  00292C  6E67               	movlw	low(0)
  8791  00292E  0E00               	movwf	(0+((c:i2sprintf@f)+04h)),c
  8792  002930  6E66               	line	19
  8793                           	
  8794                           i2l2715:
  8795  002932                     		movlw	low(i2sprintf@f)
  8796  002932  0E62               	movwf	((c:i2vfprintf@fp)),c
  8797  002934  6E50               	movlw	high(i2sprintf@f)
  8798  002936  0E00               	movwf	((c:i2vfprintf@fp+1)),c
  8799  002938  6E51               
  8800                           		movff	(c:i2sprintf@fmt),(c:i2vfprintf@fmt)
  8801  00293A  C05A  F052         	movff	(c:i2sprintf@fmt+1),(c:i2vfprintf@fmt+1)
  8802  00293E  C05B  F053         
  8803                           		movlw	low(i2sprintf@ap)
  8804  002942  0E60               	movwf	((c:i2vfprintf@ap)),c
  8805  002944  6E54               	movlw	high(i2sprintf@ap)
  8806  002946  0E00               	movwf	((c:i2vfprintf@ap+1)),c
  8807  002948  6E55               
  8808                           	call	i2_vfprintf	;wreg free
  8809  00294A  EC27  F014         	movff	0+?i2_vfprintf,(c:i2sprintf@ret)
  8810  00294E  C050  F05E         	movff	1+?i2_vfprintf,(c:i2sprintf@ret+1)
  8811  002952  C051  F05F         	line	20
  8812                           	
  8813                           i2l2717:
  8814  002956                     	movf	(0+((c:i2sprintf@f)+02h)),c,w
  8815  002956  5064               	addwf	((c:i2sprintf@s)),c,w
  8816  002958  2458               	movwf	c:fsr2l
  8817  00295A  6ED9               	movf	(1+((c:i2sprintf@f)+02h)),c,w
  8818  00295C  5065               	addwfc	((c:i2sprintf@s+1)),c,w
  8819  00295E  2059               	movwf	1+c:fsr2l
  8820  002960  6EDA               	movlw	low(0)
  8821  002962  0E00               	movwf	indf2
  8822  002964  6EDF               	goto	i2l994
  8823  002966  EFB5  F014         	line	22
  8824                           	
  8825                           i2l2719:
  8826  00296A                     	line	23
  8827                           ;	Return value of i2_sprintf is never used
  8828                           	
  8829                           i2l994:
  8830  00296A                     	return	;funcret
  8831  00296A  0012               	opt stack 0
  8832                           GLOBAL	__end_ofi2_sprintf
  8833                           	__end_ofi2_sprintf:
  8834  00296C                     	signat	i2_sprintf,90
  8835                           	global	i2_vfprintf
  8836                           
  8837 ;; *************** function i2_vfprintf *****************
  8838 ;; Defined at:
  8839 ;;		line 1368 in file "E:\ProgramasWindowns\Microchip\xc8\v2.00\pic\sources\c99\common\doprnt.c"
  8840 ;; Parameters:    Size  Location     Type
  8841 ;;  fp              2   79[COMRAM] PTR struct _IO_FILE
  8842 ;;		 -> i2sprintf@f(6), sprintf@f(6), 
  8843 ;;  fmt             2   81[COMRAM] PTR const unsigned char 
  8844 ;;		 -> STR_11(10), STR_10(9), STR_9(7), STR_8(7), 
  8845 ;;		 -> STR_7(9), STR_6(9), STR_5(7), STR_4(7), 
  8846 ;;		 -> STR_3(7), STR_2(10), STR_1(3), 
  8847 ;;  ap              2   83[COMRAM] PTR PTR void 
  8848 ;;		 -> i2sprintf@ap(2), sprintf@ap(2), 
  8849 ;; Auto vars:     Size  Location     Type
  8850 ;;  vfprintf        2   85[COMRAM] PTR unsigned char 
  8851 ;;		 -> STR_11(10), STR_10(9), STR_9(7), STR_8(7), 
  8852 ;;		 -> STR_7(9), STR_6(9), STR_5(7), STR_4(7), 
  8853 ;;		 -> STR_3(7), STR_2(10), STR_1(3), 
  8854 ;; Return value:  Size  Location     Type
  8855 ;;                  2   79[COMRAM] int 
  8856 ;; Registers used:
  8857 ;;		wreg, fsr1l, fsr1h, fsr2l, fsr2h, status,2, status,0, tblptrl, tblptrh, tblptru, cstack
  8858 ;; Tracked objects:
  8859 ;;		On entry : 0/0
  8860 ;;		On exit  : 0/0
  8861 ;;		Unchanged: 0/0
  8862 ;; Data sizes:     COMRAM   BANK0   BANK1   BANK2   BANK3   BANK4   BANK5
  8863 ;;      Params:         6       0       0       0       0       0       0
  8864 ;;      Locals:         2       0       0       0       0       0       0
  8865 ;;      Temps:          0       0       0       0       0       0       0
  8866 ;;      Totals:         8       0       0       0       0       0       0
  8867 ;;Total ram usage:        8 bytes
  8868 ;; Hardware stack levels used:    1
  8869 ;; Hardware stack levels required when called:    6
  8870 ;; This function calls:
  8871 ;;		i2_vfpfcnvrt
  8872 ;; This function is called by:
  8873 ;;		i2_sprintf
  8874 ;; This function uses a non-reentrant model
  8875 ;;
  8876                           psect	text27,class=CODE,space=0,reloc=2,group=0
  8877                           	file	"E:\ProgramasWindowns\Microchip\xc8\v2.00\pic\sources\c99\common\doprnt.c"
  8878                           	line	1368
  8879                           global __ptext27
  8880                           __ptext27:
  8881  00284E                     psect	text27
  8882                           	file	"E:\ProgramasWindowns\Microchip\xc8\v2.00\pic\sources\c99\common\doprnt.c"
  8883                           	line	1368
  8884                           	global	__size_ofi2_vfprintf
  8885                           	__size_ofi2_vfprintf	equ	__end_ofi2_vfprintf-i2_vfprintf
  8886  0000                     	
  8887                           i2_vfprintf:
  8888  00284E                     ;incstack = 0
  8889                           	opt	stack 10
  8890                           	line	1373
  8891                           	
  8892                           i2l2661:
  8893  00284E                     ;E:\ProgramasWindowns\Microchip\xc8\v2.00\pic\sources\c99\common\doprnt.c: 1368: int vfp
                                 rintf(FILE *fp, const char *fmt, va_list ap);E:\ProgramasWindowns\Microchip\xc8\v2.00\pi
                                 c\sources\c99\common\doprnt.c: 1369: {;E:\ProgramasWindowns\Microchip\xc8\v2.00\pic\sour
                                 ces\c99\common\doprnt.c: 1371:     char *cfmt;;E:\ProgramasWindowns\Microchip\xc8\v2.00\
                                 pic\sources\c99\common\doprnt.c: 1373:     cfmt = (char *)fmt;
  8894                           		movff	(c:i2vfprintf@fmt),(c:i2vfprintf@cfmt)
  8895  00284E  C052  F056         	movff	(c:i2vfprintf@fmt+1),(c:i2vfprintf@cfmt+1)
  8896  002852  C053  F057         
  8897                           	line	1374
  8898                           	
  8899                           i2l2663:
  8900  002856                     ;E:\ProgramasWindowns\Microchip\xc8\v2.00\pic\sources\c99\common\doprnt.c: 1374:     nou
                                 t = 0;
  8901                           	movlw	high(0)
  8902  002856  0E00               	movlb	0	; () banked
  8903  002858  0100               	movwf	((_nout+1))&0ffh
  8904  00285A  6FED               	movlw	low(0)
  8905  00285C  0E00               	movwf	((_nout))&0ffh
  8906  00285E  6FEC               	line	1375
  8907                           ;E:\ProgramasWindowns\Microchip\xc8\v2.00\pic\sources\c99\common\doprnt.c: 1375:     whi
                                 le (*cfmt) {
  8908                           	goto	i2l2667
  8909  002860  EF47  F014         	
  8910                           i2l284:; BSR set to: 0
  8911  002864                     
  8912                           	line	1376
  8913                           	
  8914                           i2l2665:; BSR set to: 0
  8915  002864                     
  8916                           ;E:\ProgramasWindowns\Microchip\xc8\v2.00\pic\sources\c99\common\doprnt.c: 1376:        
                                  nout += vfpfcnvrt(fp, &cfmt, ap);
  8917                           		movff	(c:i2vfprintf@fp),(c:i2vfpfcnvrt@fp)
  8918  002864  C050  F040         	movff	(c:i2vfprintf@fp+1),(c:i2vfpfcnvrt@fp+1)
  8919  002868  C051  F041         
  8920                           		movlw	low(i2vfprintf@cfmt)
  8921  00286C  0E56               	movwf	((c:i2vfpfcnvrt@fmt)),c
  8922  00286E  6E42               	movlw	high(i2vfprintf@cfmt)
  8923  002870  0E00               	movwf	((c:i2vfpfcnvrt@fmt+1)),c
  8924  002872  6E43               
  8925                           		movff	(c:i2vfprintf@ap),(c:i2vfpfcnvrt@ap)
  8926  002874  C054  F044         	movff	(c:i2vfprintf@ap+1),(c:i2vfpfcnvrt@ap+1)
  8927  002878  C055  F045         
  8928                           	call	i2_vfpfcnvrt	;wreg free
  8929  00287C  ECA9  F00B         	movf	(0+?i2_vfpfcnvrt),c,w
  8930  002880  5040               	movlb	0	; () banked
  8931  002882  0100               	addwf	((_nout))&0ffh
  8932  002884  27EC               	movf	(1+?i2_vfpfcnvrt),c,w
  8933  002886  5041               	addwfc	((_nout+1))&0ffh
  8934  002888  23ED               
  8935                           	goto	i2l2667
  8936  00288A  EF47  F014         	line	1377
  8937                           ;E:\ProgramasWindowns\Microchip\xc8\v2.00\pic\sources\c99\common\doprnt.c: 1377:     }
  8938                           	
  8939                           i2l283:; BSR set to: 0
  8940  00288E                     
  8941                           	line	1375
  8942                           	
  8943                           i2l2667:; BSR set to: 0
  8944  00288E                     
  8945                           ;E:\ProgramasWindowns\Microchip\xc8\v2.00\pic\sources\c99\common\doprnt.c: 1375:     whi
                                 le (*cfmt) {
  8946                           	movff	(c:i2vfprintf@cfmt),tblptrl
  8947  00288E  C056  FFF6         	movff	(c:i2vfprintf@cfmt+1),tblptrh
  8948  002892  C057  FFF7         	if	0	;tblptru may be non-zero
  8949  002896                     	clrf	tblptru
  8951  002896                     	if	0	;tblptru may be non-zero
  8952  002896                     	global __mediumconst
  8953                           movlw	low highword(__mediumconst)
  8956  002896                     	tblrd	*
  8957  002896  0008               	
  8958                           	movf	tablat,w
  8959  002898  50F5               	iorlw	0
  8960  00289A  0900               	btfss	status,2
  8961  00289C  A4D8               	goto	i2u259_41
  8962  00289E  EF53  F014         	goto	i2u259_40
  8963  0028A2  EF55  F014         i2u259_41:
  8964  0028A6                     	goto	i2l2665
  8965  0028A6  EF32  F014         i2u259_40:
  8966  0028AA                     	
  8967                           i2l285:; BSR set to: 0
  8968  0028AA                     
  8969                           	line	1378
  8970                           ;E:\ProgramasWindowns\Microchip\xc8\v2.00\pic\sources\c99\common\doprnt.c: 1378:     ret
                                 urn nout;
  8971                           	movff	(_nout),(c:?i2_vfprintf)
  8972  0028AA  C0EC  F050         	movff	(_nout+1),(c:?i2_vfprintf+1)
  8973  0028AE  C0ED  F051         	line	1382
  8974                           	
  8975                           i2l286:; BSR set to: 0
  8976  0028B2                     
  8977                           	return	;funcret
  8978  0028B2  0012               	opt stack 0
  8979                           GLOBAL	__end_ofi2_vfprintf
  8980                           	__end_ofi2_vfprintf:
  8981  0028B4                     	signat	i2_vfprintf,90
  8982                           	global	i2_vfpfcnvrt
  8983                           
  8984 ;; *************** function i2_vfpfcnvrt *****************
  8985 ;; Defined at:
  8986 ;;		line 670 in file "E:\ProgramasWindowns\Microchip\xc8\v2.00\pic\sources\c99\common\doprnt.c"
  8987 ;; Parameters:    Size  Location     Type
  8988 ;;  fp              2   63[COMRAM] PTR struct _IO_FILE
  8989 ;;		 -> i2sprintf@f(6), sprintf@f(6), 
  8990 ;;  fmt             2   65[COMRAM] PTR PTR unsigned char 
  8991 ;;		 -> i2vfprintf@cfmt(2), vfprintf@cfmt(2), 
  8992 ;;  ap              2   67[COMRAM] PTR PTR void 
  8993 ;;		 -> i2sprintf@ap(2), sprintf@ap(2), 
  8994 ;; Auto vars:     Size  Location     Type
  8995 ;;  vfpfcnvrt       8   71[COMRAM] long long 
  8996 ;;  vfpfcnvrt       8    0        unsigned long long 
  8997 ;;  vfpfcnvrt       4    0        unsigned long long 
  8998 ;;  vfpfcnvrt       3    0        PTR void 
  8999 ;;  vfpfcnvrt       3    0        unsigned char [3]
  9000 ;;  vfpfcnvrt       3    0        PTR unsigned char 
  9001 ;;  vfpfcnvrt       2    0        int 
  9002 ;;  vfpfcnvrt       2    0        int 
  9003 ;;  vfpfcnvrt       1    0        unsigned char 
  9004 ;; Return value:  Size  Location     Type
  9005 ;;                  2   63[COMRAM] int 
  9006 ;; Registers used:
  9007 ;;		wreg, fsr1l, fsr1h, fsr2l, fsr2h, status,2, status,0, tblptrl, tblptrh, tblptru, cstack
  9008 ;; Tracked objects:
  9009 ;;		On entry : 0/0
  9010 ;;		On exit  : 0/0
  9011 ;;		Unchanged: 0/0
  9012 ;; Data sizes:     COMRAM   BANK0   BANK1   BANK2   BANK3   BANK4   BANK5
  9013 ;;      Params:         6       0       0       0       0       0       0
  9014 ;;      Locals:         8       0       0       0       0       0       0
  9015 ;;      Temps:          2       0       0       0       0       0       0
  9016 ;;      Totals:        16       0       0       0       0       0       0
  9017 ;;Total ram usage:       16 bytes
  9018 ;; Hardware stack levels used:    1
  9019 ;; Hardware stack levels required when called:    5
  9020 ;; This function calls:
  9021 ;;		i2_dtoa
  9022 ;;		i2_fputc
  9023 ;; This function is called by:
  9024 ;;		i2_vfprintf
  9025 ;; This function uses a non-reentrant model
  9026 ;;
  9027                           psect	text28,class=CODE,space=0,reloc=2,group=0
  9028                           	line	670
  9029                           global __ptext28
  9030                           __ptext28:
  9031  001752                     psect	text28
  9032                           	file	"E:\ProgramasWindowns\Microchip\xc8\v2.00\pic\sources\c99\common\doprnt.c"
  9033                           	line	670
  9034                           	global	__size_ofi2_vfpfcnvrt
  9035                           	__size_ofi2_vfpfcnvrt	equ	__end_ofi2_vfpfcnvrt-i2_vfpfcnvrt
  9036  0000                     	
  9037                           i2_vfpfcnvrt:; BSR set to: 0
  9038  001752                     
  9039                           ;incstack = 0
  9040                           	opt	stack 10
  9041                           	line	680
  9042                           	
  9043                           i2l2575:
  9044  001752                     ;E:\ProgramasWindowns\Microchip\xc8\v2.00\pic\sources\c99\common\doprnt.c: 670: static i
                                 nt vfpfcnvrt(FILE *fp, char *fmt[], va_list ap);E:\ProgramasWindowns\Microchip\xc8\v2.00
                                 \pic\sources\c99\common\doprnt.c: 671: {;E:\ProgramasWindowns\Microchip\xc8\v2.00\pic\so
                                 urces\c99\common\doprnt.c: 672:     char c, *cp, ct[3];;E:\ProgramasWindowns\Microchip\x
                                 c8\v2.00\pic\sources\c99\common\doprnt.c: 673:     int done, i;;E:\ProgramasWindowns\Mic
                                 rochip\xc8\v2.00\pic\sources\c99\common\doprnt.c: 674:     long long ll;
  9045                           	movff	(c:i2vfpfcnvrt@fmt),fsr2l
  9046  001752  C042  FFD9         	movff	(c:i2vfpfcnvrt@fmt+1),fsr2h
  9047  001756  C043  FFDA         	movff	postinc2,tblptrl
  9048  00175A  CFDE FFF6          	movff	postdec2,tblptrh
  9049  00175E  CFDD FFF7          	if	0	;tblptru may be non-zero
  9050  001762                     	clrf	tblptru
  9052  001762                     	if	0	;tblptru may be non-zero
  9053  001762                     	global __mediumconst
  9054                           movlw	low highword(__mediumconst)
  9057  001762                     	tblrd	*
  9058  001762  0008               	
  9059                           	movf	tablat,w
  9060  001764  50F5               	xorlw	025h
  9061  001766  0A25               	btfss	status,2
  9062  001768  A4D8               	goto	i2u248_41
  9063  00176A  EFB9  F00B         	goto	i2u248_40
  9064  00176E  EFBB  F00B         i2u248_41:
  9065  001772                     	goto	i2l2609
  9066  001772  EF6F  F00C         i2u248_40:
  9067  001776                     	line	681
  9068                           	
  9069                           i2l2577:
  9070  001776                     ;E:\ProgramasWindowns\Microchip\xc8\v2.00\pic\sources\c99\common\doprnt.c: 681:         
                                 ++*fmt;
  9071                           	movff	(c:i2vfpfcnvrt@fmt),fsr2l
  9072  001776  C042  FFD9         	movff	(c:i2vfpfcnvrt@fmt+1),fsr2h
  9073  00177A  C043  FFDA         	incf	postinc2
  9074  00177E  2ADE               	movlw	0
  9075  001780  0E00               	addwfc	postdec2
  9076  001782  22DD               	line	683
  9077                           	
  9078                           i2l2579:
  9079  001784                     ;E:\ProgramasWindowns\Microchip\xc8\v2.00\pic\sources\c99\common\doprnt.c: 683:         
                                 flags = width = 0;
  9080                           	movlw	high(0)
  9081  001784  0E00               	movlb	0	; () banked
  9082  001786  0100               	movwf	((_width+1))&0ffh
  9083  001788  6FEF               	movlw	low(0)
  9084  00178A  0E00               	movwf	((_width))&0ffh
  9085  00178C  6FEE               	movff	(_width),(_flags)
  9086  00178E  C0EE  F0F2         	movff	(_width+1),(_flags+1)
  9087  001792  C0EF  F0F3         	line	684
  9088                           	
  9089                           i2l2581:; BSR set to: 0
  9090  001796                     
  9091                           ;E:\ProgramasWindowns\Microchip\xc8\v2.00\pic\sources\c99\common\doprnt.c: 684:         
                                 prec = -1;
  9092                           	setf	((_prec))&0ffh
  9093  001796  69F0               	setf	((_prec+1))&0ffh
  9094  001798  69F1               	line	825
  9095                           	
  9096                           i2l2583:; BSR set to: 0
  9097  00179A                     
  9098                           ;E:\ProgramasWindowns\Microchip\xc8\v2.00\pic\sources\c99\common\doprnt.c: 825:         
                                 if ((*fmt[0] == 'd') || (*fmt[0] == 'i')) {
  9099                           	movff	(c:i2vfpfcnvrt@fmt),fsr2l
  9100  00179A  C042  FFD9         	movff	(c:i2vfpfcnvrt@fmt+1),fsr2h
  9101  00179E  C043  FFDA         	movff	postinc2,tblptrl
  9102  0017A2  CFDE FFF6          	movff	postdec2,tblptrh
  9103  0017A6  CFDD FFF7          	if	0	;tblptru may be non-zero
  9104  0017AA                     	clrf	tblptru
  9106  0017AA                     	if	0	;tblptru may be non-zero
  9107  0017AA                     	global __mediumconst
  9108                           movlw	low highword(__mediumconst)
  9111  0017AA                     	tblrd	*
  9112  0017AA  0008               	
  9113                           	movf	tablat,w
  9114  0017AC  50F5               	xorlw	064h
  9115  0017AE  0A64               	btfsc	status,2
  9116  0017B0  B4D8               	goto	i2u249_41
  9117  0017B2  EFDD  F00B         	goto	i2u249_40
  9118  0017B6  EFDF  F00B         i2u249_41:
  9119  0017BA                     	goto	i2l2587
  9120  0017BA  EFF3  F00B         i2u249_40:
  9121  0017BE                     	
  9122                           i2l2585:; BSR set to: 0
  9123  0017BE                     
  9124                           	movff	(c:i2vfpfcnvrt@fmt),fsr2l
  9125  0017BE  C042  FFD9         	movff	(c:i2vfpfcnvrt@fmt+1),fsr2h
  9126  0017C2  C043  FFDA         	movff	postinc2,tblptrl
  9127  0017C6  CFDE FFF6          	movff	postdec2,tblptrh
  9128  0017CA  CFDD FFF7          	if	0	;tblptru may be non-zero
  9129  0017CE                     	clrf	tblptru
  9131  0017CE                     	if	0	;tblptru may be non-zero
  9132  0017CE                     	global __mediumconst
  9133                           movlw	low highword(__mediumconst)
  9136  0017CE                     	tblrd	*
  9137  0017CE  0008               	
  9138                           	movf	tablat,w
  9139  0017D0  50F5               	xorlw	069h
  9140  0017D2  0A69               	btfss	status,2
  9141  0017D4  A4D8               	goto	i2u250_41
  9142  0017D6  EFEF  F00B         	goto	i2u250_40
  9143  0017DA  EFF1  F00B         i2u250_41:
  9144  0017DE                     	goto	i2l2593
  9145  0017DE  EF35  F00C         i2u250_40:
  9146  0017E2                     	goto	i2l2587
  9147  0017E2  EFF3  F00B         	
  9148                           i2l278:; BSR set to: 0
  9149  0017E6                     
  9150                           	line	827
  9151                           	
  9152                           i2l2587:; BSR set to: 0
  9153  0017E6                     
  9154                           ;E:\ProgramasWindowns\Microchip\xc8\v2.00\pic\sources\c99\common\doprnt.c: 827:         
                                     ++*fmt;
  9155                           	movff	(c:i2vfpfcnvrt@fmt),fsr2l
  9156  0017E6  C042  FFD9         	movff	(c:i2vfpfcnvrt@fmt+1),fsr2h
  9157  0017EA  C043  FFDA         	incf	postinc2
  9158  0017EE  2ADE               	movlw	0
  9159  0017F0  0E00               	addwfc	postdec2
  9160  0017F2  22DD               	line	828
  9161                           ;E:\ProgramasWindowns\Microchip\xc8\v2.00\pic\sources\c99\common\doprnt.c: 828:         
                                     ll = (long long)(*(int *)__va_arg(*(int **)ap, (int)0));
  9162                           	movff	(c:i2vfpfcnvrt@ap),fsr2l
  9163  0017F4  C044  FFD9         	movff	(c:i2vfpfcnvrt@ap+1),fsr2h
  9164  0017F8  C045  FFDA         	movff	indf2,??i2_vfpfcnvrt+0+0
  9165  0017FC  CFDF F046          	movlw	low(02h)
  9166  001800  0E02               	addwf	postinc2
  9167  001802  26DE               	movff	indf2,??i2_vfpfcnvrt+0+0+1
  9168  001804  CFDF F047          	movlw	high(02h)
  9169  001808  0E00               	addwfc	postdec2
  9170  00180A  22DD               	movff	??i2_vfpfcnvrt+0+0,fsr2l
  9171  00180C  C046  FFD9         	movff	??i2_vfpfcnvrt+0+1,fsr2h
  9172  001810  C047  FFDA         	movff	postinc2,(c:i2vfpfcnvrt@ll)
  9173  001814  CFDE F048          	movff	postdec2,(c:i2vfpfcnvrt@ll+1)
  9174  001818  CFDD F049          	movlw	0
  9175  00181C  0E00               	btfsc	((c:i2vfpfcnvrt@ll+1)),c,7
  9176  00181E  BE49               	movlw	-1
  9177  001820  0EFF               	movwf	((c:i2vfpfcnvrt@ll+2)),c
  9178  001822  6E4A               	movwf	((c:i2vfpfcnvrt@ll+3)),c
  9179  001824  6E4B               	movwf	((c:i2vfpfcnvrt@ll+4)),c
  9180  001826  6E4C               	movwf	((c:i2vfpfcnvrt@ll+5)),c
  9181  001828  6E4D               	movwf	((c:i2vfpfcnvrt@ll+6)),c
  9182  00182A  6E4E               	movwf	((c:i2vfpfcnvrt@ll+7)),c
  9183  00182C  6E4F               	line	830
  9184                           	
  9185                           i2l2589:; BSR set to: 0
  9186  00182E                     
  9187                           ;E:\ProgramasWindowns\Microchip\xc8\v2.00\pic\sources\c99\common\doprnt.c: 830:         
                                     return dtoa(fp, ll);
  9188                           		movff	(c:i2vfpfcnvrt@fp),(c:i2dtoa@fp)
  9189  00182E  C040  F01C         	movff	(c:i2vfpfcnvrt@fp+1),(c:i2dtoa@fp+1)
  9190  001832  C041  F01D         
  9191                           	movff	(c:i2vfpfcnvrt@ll),(c:i2dtoa@d)
  9192  001836  C048  F01E         	movff	(c:i2vfpfcnvrt@ll+1),(c:i2dtoa@d+1)
  9193  00183A  C049  F01F         	movff	(c:i2vfpfcnvrt@ll+2),(c:i2dtoa@d+2)
  9194  00183E  C04A  F020         	movff	(c:i2vfpfcnvrt@ll+3),(c:i2dtoa@d+3)
  9195  001842  C04B  F021         	movff	(c:i2vfpfcnvrt@ll+4),(c:i2dtoa@d+4)
  9196  001846  C04C  F022         	movff	(c:i2vfpfcnvrt@ll+5),(c:i2dtoa@d+5)
  9197  00184A  C04D  F023         	movff	(c:i2vfpfcnvrt@ll+6),(c:i2dtoa@d+6)
  9198  00184E  C04E  F024         	movff	(c:i2vfpfcnvrt@ll+7),(c:i2dtoa@d+7)
  9199  001852  C04F  F025         	call	i2_dtoa	;wreg free
  9200  001856  EC2F  F009         	movff	0+?i2_dtoa,(c:?i2_vfpfcnvrt)
  9201  00185A  C01C  F040         	movff	1+?i2_dtoa,(c:?i2_vfpfcnvrt+1)
  9202  00185E  C01D  F041         	goto	i2l279
  9203  001862  EF8E  F00C         	
  9204                           i2l2591:
  9205  001866                     	goto	i2l279
  9206  001866  EF8E  F00C         	line	831
  9207                           ;E:\ProgramasWindowns\Microchip\xc8\v2.00\pic\sources\c99\common\doprnt.c: 831:         
                                 }
  9208                           	
  9209                           i2l276:
  9210  00186A                     	line	1350
  9211                           	
  9212                           i2l2593:
  9213  00186A                     ;E:\ProgramasWindowns\Microchip\xc8\v2.00\pic\sources\c99\common\doprnt.c: 1350:        
                                  if ((*fmt)[0] == '%') {
  9214                           	movff	(c:i2vfpfcnvrt@fmt),fsr2l
  9215  00186A  C042  FFD9         	movff	(c:i2vfpfcnvrt@fmt+1),fsr2h
  9216  00186E  C043  FFDA         	movff	postinc2,tblptrl
  9217  001872  CFDE FFF6          	movff	postdec2,tblptrh
  9218  001876  CFDD FFF7          	if	0	;tblptru may be non-zero
  9219  00187A                     	clrf	tblptru
  9221  00187A                     	if	0	;tblptru may be non-zero
  9222  00187A                     	global __mediumconst
  9223                           movlw	low highword(__mediumconst)
  9226  00187A                     	tblrd	*
  9227  00187A  0008               	
  9228                           	movf	tablat,w
  9229  00187C  50F5               	xorlw	025h
  9230  00187E  0A25               	btfss	status,2
  9231  001880  A4D8               	goto	i2u251_41
  9232  001882  EF45  F00C         	goto	i2u251_40
  9233  001886  EF47  F00C         i2u251_41:
  9234  00188A                     	goto	i2l2603
  9235  00188A  EF60  F00C         i2u251_40:
  9236  00188E                     	line	1351
  9237                           	
  9238                           i2l2595:
  9239  00188E                     ;E:\ProgramasWindowns\Microchip\xc8\v2.00\pic\sources\c99\common\doprnt.c: 1351:        
                                      ++*fmt;
  9240                           	movff	(c:i2vfpfcnvrt@fmt),fsr2l
  9241  00188E  C042  FFD9         	movff	(c:i2vfpfcnvrt@fmt+1),fsr2h
  9242  001892  C043  FFDA         	incf	postinc2
  9243  001896  2ADE               	movlw	0
  9244  001898  0E00               	addwfc	postdec2
  9245  00189A  22DD               	line	1352
  9246                           	
  9247                           i2l2597:
  9248  00189C                     ;E:\ProgramasWindowns\Microchip\xc8\v2.00\pic\sources\c99\common\doprnt.c: 1352:        
                                      fputc((int)'%', fp);
  9249                           	movlw	high(025h)
  9250  00189C  0E00               	movwf	((c:i2fputc@c+1)),c
  9251  00189E  6E02               	movlw	low(025h)
  9252  0018A0  0E25               	movwf	((c:i2fputc@c)),c
  9253  0018A2  6E01               		movff	(c:i2vfpfcnvrt@fp),(c:i2fputc@fp)
  9254  0018A4  C040  F003         	movff	(c:i2vfpfcnvrt@fp+1),(c:i2fputc@fp+1)
  9255  0018A8  C041  F004         
  9256                           	call	i2_fputc	;wreg free
  9257  0018AC  EC83  F011         	line	1353
  9258                           	
  9259                           i2l2599:
  9260  0018B0                     ;E:\ProgramasWindowns\Microchip\xc8\v2.00\pic\sources\c99\common\doprnt.c: 1353:        
                                      return 1;
  9261                           	movlw	high(01h)
  9262  0018B0  0E00               	movwf	((c:?i2_vfpfcnvrt+1)),c
  9263  0018B2  6E41               	movlw	low(01h)
  9264  0018B4  0E01               	movwf	((c:?i2_vfpfcnvrt)),c
  9265  0018B6  6E40               	goto	i2l279
  9266  0018B8  EF8E  F00C         	
  9267                           i2l2601:
  9268  0018BC                     	goto	i2l279
  9269  0018BC  EF8E  F00C         	line	1354
  9270                           ;E:\ProgramasWindowns\Microchip\xc8\v2.00\pic\sources\c99\common\doprnt.c: 1354:        
                                  }
  9271                           	
  9272                           i2l280:
  9273  0018C0                     	line	1357
  9274                           	
  9275                           i2l2603:
  9276  0018C0                     ;E:\ProgramasWindowns\Microchip\xc8\v2.00\pic\sources\c99\common\doprnt.c: 1357:        
                                  ++*fmt;
  9277                           	movff	(c:i2vfpfcnvrt@fmt),fsr2l
  9278  0018C0  C042  FFD9         	movff	(c:i2vfpfcnvrt@fmt+1),fsr2h
  9279  0018C4  C043  FFDA         	incf	postinc2
  9280  0018C8  2ADE               	movlw	0
  9281  0018CA  0E00               	addwfc	postdec2
  9282  0018CC  22DD               	line	1358
  9283                           	
  9284                           i2l2605:
  9285  0018CE                     ;E:\ProgramasWindowns\Microchip\xc8\v2.00\pic\sources\c99\common\doprnt.c: 1358:        
                                  return 0;
  9286                           	movlw	high(0)
  9287  0018CE  0E00               	movwf	((c:?i2_vfpfcnvrt+1)),c
  9288  0018D0  6E41               	movlw	low(0)
  9289  0018D2  0E00               	movwf	((c:?i2_vfpfcnvrt)),c
  9290  0018D4  6E40               	goto	i2l279
  9291  0018D6  EF8E  F00C         	
  9292                           i2l2607:
  9293  0018DA                     	goto	i2l279
  9294  0018DA  EF8E  F00C         	line	1359
  9295                           ;E:\ProgramasWindowns\Microchip\xc8\v2.00\pic\sources\c99\common\doprnt.c: 1359:     }
  9296                           	
  9297                           i2l275:
  9298  0018DE                     	line	1362
  9299                           	
  9300                           i2l2609:
  9301  0018DE                     ;E:\ProgramasWindowns\Microchip\xc8\v2.00\pic\sources\c99\common\doprnt.c: 1362:     fpu
                                 tc((int)(*fmt)[0], fp);
  9302                           	movff	(c:i2vfpfcnvrt@fmt),fsr2l
  9303  0018DE  C042  FFD9         	movff	(c:i2vfpfcnvrt@fmt+1),fsr2h
  9304  0018E2  C043  FFDA         	movff	postinc2,tblptrl
  9305  0018E6  CFDE FFF6          	movff	postdec2,tblptrh
  9306  0018EA  CFDD FFF7          	if	0	;tblptru may be non-zero
  9307  0018EE                     	clrf	tblptru
  9309  0018EE                     	if	0	;tblptru may be non-zero
  9310  0018EE                     	global __mediumconst
  9311                           movlw	low highword(__mediumconst)
  9314  0018EE                     	tblrd	*
  9315  0018EE  0008               	
  9316                           	movf	tablat,w
  9317  0018F0  50F5               
  9318                           	movwf	((c:i2fputc@c)),c
  9319  0018F2  6E01               	clrf	((c:i2fputc@c+1)),c
  9320  0018F4  6A02               		movff	(c:i2vfpfcnvrt@fp),(c:i2fputc@fp)
  9321  0018F6  C040  F003         	movff	(c:i2vfpfcnvrt@fp+1),(c:i2fputc@fp+1)
  9322  0018FA  C041  F004         
  9323                           	call	i2_fputc	;wreg free
  9324  0018FE  EC83  F011         	line	1363
  9325                           	
  9326                           i2l2611:
  9327  001902                     ;E:\ProgramasWindowns\Microchip\xc8\v2.00\pic\sources\c99\common\doprnt.c: 1363:     ++*
                                 fmt;
  9328                           	movff	(c:i2vfpfcnvrt@fmt),fsr2l
  9329  001902  C042  FFD9         	movff	(c:i2vfpfcnvrt@fmt+1),fsr2h
  9330  001906  C043  FFDA         	incf	postinc2
  9331  00190A  2ADE               	movlw	0
  9332  00190C  0E00               	addwfc	postdec2
  9333  00190E  22DD               	line	1364
  9334                           	
  9335                           i2l2613:
  9336  001910                     ;E:\ProgramasWindowns\Microchip\xc8\v2.00\pic\sources\c99\common\doprnt.c: 1364:     ret
                                 urn 1;
  9337                           	movlw	high(01h)
  9338  001910  0E00               	movwf	((c:?i2_vfpfcnvrt+1)),c
  9339  001912  6E41               	movlw	low(01h)
  9340  001914  0E01               	movwf	((c:?i2_vfpfcnvrt)),c
  9341  001916  6E40               	goto	i2l279
  9342  001918  EF8E  F00C         	
  9343                           i2l2615:
  9344  00191C                     	line	1365
  9345                           	
  9346                           i2l279:
  9347  00191C                     	return	;funcret
  9348  00191C  0012               	opt stack 0
  9349                           GLOBAL	__end_ofi2_vfpfcnvrt
  9350                           	__end_ofi2_vfpfcnvrt:
  9351  00191E                     	signat	i2_vfpfcnvrt,90
  9352                           	global	i2_dtoa
  9353                           
  9354 ;; *************** function i2_dtoa *****************
  9355 ;; Defined at:
  9356 ;;		line 274 in file "E:\ProgramasWindowns\Microchip\xc8\v2.00\pic\sources\c99\common\doprnt.c"
  9357 ;; Parameters:    Size  Location     Type
  9358 ;;  fp              2   27[COMRAM] PTR struct _IO_FILE
  9359 ;;		 -> i2sprintf@f(6), sprintf@f(6), 
  9360 ;;  d               8   29[COMRAM] long long 
  9361 ;; Auto vars:     Size  Location     Type
  9362 ;;  dtoa            8   53[COMRAM] long long 
  9363 ;;  dtoa            2   61[COMRAM] int 
  9364 ;;  dtoa            2   51[COMRAM] int 
  9365 ;;  dtoa            2   49[COMRAM] int 
  9366 ;;  dtoa            2   47[COMRAM] int 
  9367 ;; Return value:  Size  Location     Type
  9368 ;;                  2   27[COMRAM] int 
  9369 ;; Registers used:
  9370 ;;		wreg, fsr1l, fsr1h, fsr2l, fsr2h, status,2, status,0, cstack
  9371 ;; Tracked objects:
  9372 ;;		On entry : 0/0
  9373 ;;		On exit  : 0/0
  9374 ;;		Unchanged: 0/0
  9375 ;; Data sizes:     COMRAM   BANK0   BANK1   BANK2   BANK3   BANK4   BANK5
  9376 ;;      Params:        10       0       0       0       0       0       0
  9377 ;;      Locals:        18       0       0       0       0       0       0
  9378 ;;      Temps:          8       0       0       0       0       0       0
  9379 ;;      Totals:        36       0       0       0       0       0       0
  9380 ;;Total ram usage:       36 bytes
  9381 ;; Hardware stack levels used:    1
  9382 ;; Hardware stack levels required when called:    4
  9383 ;; This function calls:
  9384 ;;		i2___aodiv
  9385 ;;		i2___aomod
  9386 ;;		i2_abs
  9387 ;;		i2_pad
  9388 ;; This function is called by:
  9389 ;;		i2_vfpfcnvrt
  9390 ;; This function uses a non-reentrant model
  9391 ;;
  9392                           psect	text29,class=CODE,space=0,reloc=2,group=0
  9393                           	line	274
  9394                           global __ptext29
  9395                           __ptext29:
  9396  00125E                     psect	text29
  9397                           	file	"E:\ProgramasWindowns\Microchip\xc8\v2.00\pic\sources\c99\common\doprnt.c"
  9398                           	line	274
  9399                           	global	__size_ofi2_dtoa
  9400                           	__size_ofi2_dtoa	equ	__end_ofi2_dtoa-i2_dtoa
  9401  0000                     	
  9402                           i2_dtoa:
  9403  00125E                     ;incstack = 0
  9404                           	opt	stack 10
  9405                           	line	280
  9406                           	
  9407                           i2l2455:
  9408  00125E                     ;E:\ProgramasWindowns\Microchip\xc8\v2.00\pic\sources\c99\common\doprnt.c: 274: static i
                                 nt dtoa(FILE *fp, long long d);E:\ProgramasWindowns\Microchip\xc8\v2.00\pic\sources\c99\
                                 common\doprnt.c: 275: {;E:\ProgramasWindowns\Microchip\xc8\v2.00\pic\sources\c99\common\
                                 doprnt.c: 276:     int i, p, s, w;;E:\ProgramasWindowns\Microchip\xc8\v2.00\pic\sources\
                                 c99\common\doprnt.c: 277:     long long n;;E:\ProgramasWindowns\Microchip\xc8\v2.00\pic\
                                 sources\c99\common\doprnt.c: 280:     n = d;
  9409                           	movff	(c:i2dtoa@d),(c:i2dtoa@n)
  9410  00125E  C01E  F036         	movff	(c:i2dtoa@d+1),(c:i2dtoa@n+1)
  9411  001262  C01F  F037         	movff	(c:i2dtoa@d+2),(c:i2dtoa@n+2)
  9412  001266  C020  F038         	movff	(c:i2dtoa@d+3),(c:i2dtoa@n+3)
  9413  00126A  C021  F039         	movff	(c:i2dtoa@d+4),(c:i2dtoa@n+4)
  9414  00126E  C022  F03A         	movff	(c:i2dtoa@d+5),(c:i2dtoa@n+5)
  9415  001272  C023  F03B         	movff	(c:i2dtoa@d+6),(c:i2dtoa@n+6)
  9416  001276  C024  F03C         	movff	(c:i2dtoa@d+7),(c:i2dtoa@n+7)
  9417  00127A  C025  F03D         	line	281
  9418                           	
  9419                           i2l2457:
  9420  00127E                     ;E:\ProgramasWindowns\Microchip\xc8\v2.00\pic\sources\c99\common\doprnt.c: 281:     s = 
                                 n < 0 ? 1 : 0;
  9421                           	btfsc	((c:i2dtoa@n+7)),c,7
  9422  00127E  BE3D               	goto	i2u229_41
  9423  001280  EF44  F009         	goto	i2u229_40
  9424  001284  EF47  F009         
  9425                           i2u229_41:
  9426  001288                     	movlw	1
  9427  001288  0E01               	goto	i2u230_40
  9428  00128A  EF48  F009         i2u229_40:
  9429  00128E                     	movlw	0
  9430  00128E  0E00               i2u230_40:
  9431  001290                     	movwf	((c:i2dtoa@s)),c
  9432  001290  6E34               	clrf	((c:i2dtoa@s+1)),c
  9433  001292  6A35               	line	282
  9434                           ;E:\ProgramasWindowns\Microchip\xc8\v2.00\pic\sources\c99\common\doprnt.c: 282:     if (
                                 s) {
  9435                           	movf	((c:i2dtoa@s)),c,w
  9436  001294  5034               iorwf	((c:i2dtoa@s+1)),c,w
  9437  001296  1035               	btfsc	status,2
  9438  001298  B4D8               	goto	i2u231_41
  9439  00129A  EF51  F009         	goto	i2u231_40
  9440  00129E  EF53  F009         
  9441                           i2u231_41:
  9442  0012A2                     	goto	i2l2461
  9443  0012A2  EF65  F009         i2u231_40:
  9444  0012A6                     	line	283
  9445                           	
  9446                           i2l2459:
  9447  0012A6                     ;E:\ProgramasWindowns\Microchip\xc8\v2.00\pic\sources\c99\common\doprnt.c: 283:         
                                 n = -n;
  9448                           	comf	((c:i2dtoa@n+7)),c
  9449  0012A6  1E3D               	comf	((c:i2dtoa@n+6)),c
  9450  0012A8  1E3C               	comf	((c:i2dtoa@n+5)),c
  9451  0012AA  1E3B               	comf	((c:i2dtoa@n+4)),c
  9452  0012AC  1E3A               	comf	((c:i2dtoa@n+3)),c
  9453  0012AE  1E39               	comf	((c:i2dtoa@n+2)),c
  9454  0012B0  1E38               	comf	((c:i2dtoa@n+1)),c
  9455  0012B2  1E37               	negf	((c:i2dtoa@n)),c
  9456  0012B4  6C36               	movlw	0
  9457  0012B6  0E00               	addwfc	((c:i2dtoa@n+1)),c
  9458  0012B8  2237               	addwfc	((c:i2dtoa@n+2)),c
  9459  0012BA  2238               	addwfc	((c:i2dtoa@n+3)),c
  9460  0012BC  2239               	addwfc	((c:i2dtoa@n+4)),c
  9461  0012BE  223A               	addwfc	((c:i2dtoa@n+5)),c
  9462  0012C0  223B               	addwfc	((c:i2dtoa@n+6)),c
  9463  0012C2  223C               	addwfc	((c:i2dtoa@n+7)),c
  9464  0012C4  223D               	goto	i2l2461
  9465  0012C6  EF65  F009         	line	284
  9466                           ;E:\ProgramasWindowns\Microchip\xc8\v2.00\pic\sources\c99\common\doprnt.c: 284:     }
  9467                           	
  9468                           i2l249:
  9469  0012CA                     	line	287
  9470                           	
  9471                           i2l2461:
  9472  0012CA                     ;E:\ProgramasWindowns\Microchip\xc8\v2.00\pic\sources\c99\common\doprnt.c: 287:     if (
                                 !(prec < 0)) {
  9473                           	movlb	0	; () banked
  9474  0012CA  0100               	btfsc	((_prec+1))&0ffh,7
  9475  0012CC  BFF1               	goto	i2u232_41
  9476  0012CE  EF6B  F009         	goto	i2u232_40
  9477  0012D2  EF6D  F009         
  9478                           i2u232_41:
  9479  0012D6                     	goto	i2l2465
  9480  0012D6  EF70  F009         i2u232_40:
  9481  0012DA                     	line	288
  9482                           	
  9483                           i2l2463:; BSR set to: 0
  9484  0012DA                     
  9485                           ;E:\ProgramasWindowns\Microchip\xc8\v2.00\pic\sources\c99\common\doprnt.c: 288:         
                                 flags &= ~(1 << 1);
  9486                           	bcf	(0+(1/8)+(_flags))&0ffh,(1)&7
  9487  0012DA  93F2               	goto	i2l2465
  9488  0012DC  EF70  F009         	line	289
  9489                           ;E:\ProgramasWindowns\Microchip\xc8\v2.00\pic\sources\c99\common\doprnt.c: 289:     }
  9490                           	
  9491                           i2l250:; BSR set to: 0
  9492  0012E0                     
  9493                           	line	290
  9494                           	
  9495                           i2l2465:; BSR set to: 0
  9496  0012E0                     
  9497                           ;E:\ProgramasWindowns\Microchip\xc8\v2.00\pic\sources\c99\common\doprnt.c: 290:     p = 
                                 (0 < prec) ? prec : 1;
  9498                           	btfsc	((_prec+1))&0ffh,7
  9499  0012E0  BFF1               	goto	i2u233_40
  9500  0012E2  EF7D  F009         	movf	((_prec+1))&0ffh,w
  9501  0012E6  51F1               	bnz	i2u233_41
  9502  0012E8  E106               	decf	((_prec))&0ffh,w
  9503  0012EA  05F0               	btfsc	status,0
  9504  0012EC  B0D8               	goto	i2u233_41
  9505  0012EE  EF7B  F009         	goto	i2u233_40
  9506  0012F2  EF7D  F009         
  9507                           i2u233_41:
  9508  0012F6                     	goto	i2l252
  9509  0012F6  EF83  F009         i2u233_40:
  9510  0012FA                     	
  9511                           i2l2467:; BSR set to: 0
  9512  0012FA                     
  9513                           	movlw	high(01h)
  9514  0012FA  0E00               	movwf	((c:i2dtoa@p+1)),c
  9515  0012FC  6E31               	movlw	low(01h)
  9516  0012FE  0E01               	movwf	((c:i2dtoa@p)),c
  9517  001300  6E30               	goto	i2l254
  9518  001302  EF87  F009         	
  9519                           i2l252:; BSR set to: 0
  9520  001306                     
  9521                           	movff	(_prec),(c:i2dtoa@p)
  9522  001306  C0F0  F030         	movff	(_prec+1),(c:i2dtoa@p+1)
  9523  00130A  C0F1  F031         	
  9524                           i2l254:; BSR set to: 0
  9525  00130E                     
  9526                           	line	291
  9527                           ;E:\ProgramasWindowns\Microchip\xc8\v2.00\pic\sources\c99\common\doprnt.c: 291:     w = 
                                 width;
  9528                           	movff	(_width),(c:i2dtoa@w)
  9529  00130E  C0EE  F032         	movff	(_width+1),(c:i2dtoa@w+1)
  9530  001312  C0EF  F033         	line	292
  9531                           	
  9532                           i2l2469:; BSR set to: 0
  9533  001316                     
  9534                           ;E:\ProgramasWindowns\Microchip\xc8\v2.00\pic\sources\c99\common\doprnt.c: 292:     if (
                                 s || (flags & (1 << 2))) {
  9535                           	movf	((c:i2dtoa@s)),c,w
  9536  001316  5034               iorwf	((c:i2dtoa@s+1)),c,w
  9537  001318  1035               	btfss	status,2
  9538  00131A  A4D8               	goto	i2u234_41
  9539  00131C  EF92  F009         	goto	i2u234_40
  9540  001320  EF94  F009         
  9541                           i2u234_41:
  9542  001324                     	goto	i2l2473
  9543  001324  EF9D  F009         i2u234_40:
  9544  001328                     	
  9545                           i2l2471:; BSR set to: 0
  9546  001328                     
  9547                           	
  9548                           	btfss	((_flags))&0ffh,(2)&7
  9549  001328  A5F2               	goto	i2u235_41
  9550  00132A  EF99  F009         	goto	i2u235_40
  9551  00132E  EF9B  F009         i2u235_41:
  9552  001332                     	goto	i2l2475
  9553  001332  EFA2  F009         i2u235_40:
  9554  001336                     	goto	i2l2473
  9555  001336  EF9D  F009         	
  9556                           i2l257:; BSR set to: 0
  9557  00133A                     
  9558                           	line	293
  9559                           	
  9560                           i2l2473:; BSR set to: 0
  9561  00133A                     
  9562                           ;E:\ProgramasWindowns\Microchip\xc8\v2.00\pic\sources\c99\common\doprnt.c: 293:         
                                 --w;
  9563                           	decf	((c:i2dtoa@w)),c
  9564  00133A  0632               	btfss	status,0
  9565  00133C  A0D8               	decf	((c:i2dtoa@w+1)),c
  9566  00133E  0633               	goto	i2l2475
  9567  001340  EFA2  F009         	line	294
  9568                           ;E:\ProgramasWindowns\Microchip\xc8\v2.00\pic\sources\c99\common\doprnt.c: 294:     }
  9569                           	
  9570                           i2l255:; BSR set to: 0
  9571  001344                     
  9572                           	line	297
  9573                           	
  9574                           i2l2475:; BSR set to: 0
  9575  001344                     
  9576                           ;E:\ProgramasWindowns\Microchip\xc8\v2.00\pic\sources\c99\common\doprnt.c: 297:     i = 
                                 sizeof(dbuf) - 1;
  9577                           	movlw	high(01Fh)
  9578  001344  0E00               	movwf	((c:i2dtoa@i+1)),c
  9579  001346  6E3F               	movlw	low(01Fh)
  9580  001348  0E1F               	movwf	((c:i2dtoa@i)),c
  9581  00134A  6E3E               	line	298
  9582                           	
  9583                           i2l2477:; BSR set to: 0
  9584  00134C                     
  9585                           ;E:\ProgramasWindowns\Microchip\xc8\v2.00\pic\sources\c99\common\doprnt.c: 298:     dbuf
                                 [i] = '\0';
  9586                           	movlw	low(_dbuf)
  9587  00134C  0E00               	addwf	((c:i2dtoa@i)),c,w
  9588  00134E  243E               	movwf	c:fsr2l
  9589  001350  6ED9               	movlw	high(_dbuf)
  9590  001352  0E01               	addwfc	((c:i2dtoa@i+1)),c,w
  9591  001354  203F               	movwf	1+c:fsr2l
  9592  001356  6EDA               	movlw	low(0)
  9593  001358  0E00               	movwf	indf2
  9594  00135A  6EDF               	line	299
  9595                           ;E:\ProgramasWindowns\Microchip\xc8\v2.00\pic\sources\c99\common\doprnt.c: 299:     whil
                                 e (!(i < 1) && (n || (0 < p) || ((0 < w) && (flags & (1 << 1))))) {
  9596                           	goto	i2l2489
  9597  00135C  EF2E  F00A         	
  9598                           i2l259:; BSR set to: 0
  9599  001360                     
  9600                           	line	300
  9601                           	
  9602                           i2l2479:
  9603  001360                     ;E:\ProgramasWindowns\Microchip\xc8\v2.00\pic\sources\c99\common\doprnt.c: 300:         
                                 --i;
  9604                           	decf	((c:i2dtoa@i)),c
  9605  001360  063E               	btfss	status,0
  9606  001362  A0D8               	decf	((c:i2dtoa@i+1)),c
  9607  001364  063F               	line	301
  9608                           	
  9609                           i2l2481:
  9610  001366                     ;E:\ProgramasWindowns\Microchip\xc8\v2.00\pic\sources\c99\common\doprnt.c: 301:         
                                 dbuf[i] = '0' + abs(n % 10);
  9611                           	movlw	low(_dbuf)
  9612  001366  0E00               	addwf	((c:i2dtoa@i)),c,w
  9613  001368  243E               	movwf	c:fsr2l
  9614  00136A  6ED9               	movlw	high(_dbuf)
  9615  00136C  0E01               	addwfc	((c:i2dtoa@i+1)),c,w
  9616  00136E  203F               	movwf	1+c:fsr2l
  9617  001370  6EDA               	movff	(c:i2dtoa@n),(c:i2___aomod@dividend)
  9618  001372  C036  F001         	movff	(c:i2dtoa@n+1),(c:i2___aomod@dividend+1)
  9619  001376  C037  F002         	movff	(c:i2dtoa@n+2),(c:i2___aomod@dividend+2)
  9620  00137A  C038  F003         	movff	(c:i2dtoa@n+3),(c:i2___aomod@dividend+3)
  9621  00137E  C039  F004         	movff	(c:i2dtoa@n+4),(c:i2___aomod@dividend+4)
  9622  001382  C03A  F005         	movff	(c:i2dtoa@n+5),(c:i2___aomod@dividend+5)
  9623  001386  C03B  F006         	movff	(c:i2dtoa@n+6),(c:i2___aomod@dividend+6)
  9624  00138A  C03C  F007         	movff	(c:i2dtoa@n+7),(c:i2___aomod@dividend+7)
  9625  00138E  C03D  F008         	movlw	byte0(0Ah)
  9626  001392  0E0A               	movwf	((c:i2___aomod@divisor)),c
  9627  001394  6E09               	movlw	byte1(0Ah)
  9628  001396  0E00               	movwf	((c:i2___aomod@divisor+1)),c
  9629  001398  6E0A               	movlw	byte2(0Ah)
  9630  00139A  0E00               	movwf	((c:i2___aomod@divisor+2)),c
  9631  00139C  6E0B               	movlw	byte3(0Ah)
  9632  00139E  0E00               	movwf	((c:i2___aomod@divisor+3)),c
  9633  0013A0  6E0C               	movlw	byte4(0Ah)
  9634  0013A2  0E00               	movwf	((c:i2___aomod@divisor+4)),c
  9635  0013A4  6E0D               	movlw	byte5(0Ah)
  9636  0013A6  0E00               	movwf	((c:i2___aomod@divisor+5)),c
  9637  0013A8  6E0E               	movlw	byte6(0Ah)
  9638  0013AA  0E00               	movwf	((c:i2___aomod@divisor+6)),c
  9639  0013AC  6E0F               	movlw	byte7(0Ah)
  9640  0013AE  0E00               	movwf	((c:i2___aomod@divisor+7)),c
  9641  0013B0  6E10               	call	i2___aomod	;wreg free
  9642  0013B2  EC07  F00F         	movff	0+?i2___aomod,??i2_dtoa+0+0
  9643  0013B6  C001  F026         	movff	1+?i2___aomod,??i2_dtoa+0+0+1
  9644  0013BA  C002  F027         	movff	2+?i2___aomod,??i2_dtoa+0+0+2
  9645  0013BE  C003  F028         	movff	3+?i2___aomod,??i2_dtoa+0+0+3
  9646  0013C2  C004  F029         	movff	4+?i2___aomod,??i2_dtoa+0+0+4
  9647  0013C6  C005  F02A         	movff	5+?i2___aomod,??i2_dtoa+0+0+5
  9648  0013CA  C006  F02B         	movff	6+?i2___aomod,??i2_dtoa+0+0+6
  9649  0013CE  C007  F02C         	movff	7+?i2___aomod,??i2_dtoa+0+0+7
  9650  0013D2  C008  F02D         	
  9651                           	movff	??i2_dtoa+0+0,(c:i2abs@a)
  9652  0013D6  C026  F013         	movff	??i2_dtoa+0+2,(c:i2abs@a+1)
  9653  0013DA  C028  F014         	call	i2_abs	;wreg free
  9654  0013DE  ECA0  F015         	movf	(0+?i2_abs),c,w
  9655  0013E2  5013               	addlw	low(030h)
  9656  0013E4  0F30               	movwf	indf2,c
  9657  0013E6  6EDF               
  9658                           	line	302
  9659                           	
  9660                           i2l2483:
  9661  0013E8                     ;E:\ProgramasWindowns\Microchip\xc8\v2.00\pic\sources\c99\common\doprnt.c: 302:         
                                 --p;
  9662                           	decf	((c:i2dtoa@p)),c
  9663  0013E8  0630               	btfss	status,0
  9664  0013EA  A0D8               	decf	((c:i2dtoa@p+1)),c
  9665  0013EC  0631               	line	303
  9666                           	
  9667                           i2l2485:
  9668  0013EE                     ;E:\ProgramasWindowns\Microchip\xc8\v2.00\pic\sources\c99\common\doprnt.c: 303:         
                                 --w;
  9669                           	decf	((c:i2dtoa@w)),c
  9670  0013EE  0632               	btfss	status,0
  9671  0013F0  A0D8               	decf	((c:i2dtoa@w+1)),c
  9672  0013F2  0633               	line	304
  9673                           	
  9674                           i2l2487:
  9675  0013F4                     ;E:\ProgramasWindowns\Microchip\xc8\v2.00\pic\sources\c99\common\doprnt.c: 304:         
                                 n = n / 10;
  9676                           	movff	(c:i2dtoa@n),(c:i2___aodiv@dividend)
  9677  0013F4  C036  F001         	movff	(c:i2dtoa@n+1),(c:i2___aodiv@dividend+1)
  9678  0013F8  C037  F002         	movff	(c:i2dtoa@n+2),(c:i2___aodiv@dividend+2)
  9679  0013FC  C038  F003         	movff	(c:i2dtoa@n+3),(c:i2___aodiv@dividend+3)
  9680  001400  C039  F004         	movff	(c:i2dtoa@n+4),(c:i2___aodiv@dividend+4)
  9681  001404  C03A  F005         	movff	(c:i2dtoa@n+5),(c:i2___aodiv@dividend+5)
  9682  001408  C03B  F006         	movff	(c:i2dtoa@n+6),(c:i2___aodiv@dividend+6)
  9683  00140C  C03C  F007         	movff	(c:i2dtoa@n+7),(c:i2___aodiv@dividend+7)
  9684  001410  C03D  F008         	movlw	byte0(0Ah)
  9685  001414  0E0A               	movwf	((c:i2___aodiv@divisor)),c
  9686  001416  6E09               	movlw	byte1(0Ah)
  9687  001418  0E00               	movwf	((c:i2___aodiv@divisor+1)),c
  9688  00141A  6E0A               	movlw	byte2(0Ah)
  9689  00141C  0E00               	movwf	((c:i2___aodiv@divisor+2)),c
  9690  00141E  6E0B               	movlw	byte3(0Ah)
  9691  001420  0E00               	movwf	((c:i2___aodiv@divisor+3)),c
  9692  001422  6E0C               	movlw	byte4(0Ah)
  9693  001424  0E00               	movwf	((c:i2___aodiv@divisor+4)),c
  9694  001426  6E0D               	movlw	byte5(0Ah)
  9695  001428  0E00               	movwf	((c:i2___aodiv@divisor+5)),c
  9696  00142A  6E0E               	movlw	byte6(0Ah)
  9697  00142C  0E00               	movwf	((c:i2___aodiv@divisor+6)),c
  9698  00142E  6E0F               	movlw	byte7(0Ah)
  9699  001430  0E00               	movwf	((c:i2___aodiv@divisor+7)),c
  9700  001432  6E10               	call	i2___aodiv	;wreg free
  9701  001434  EC68  F00D         	movff	0+?i2___aodiv,(c:i2dtoa@n)
  9702  001438  C001  F036         	movff	1+?i2___aodiv,(c:i2dtoa@n+1)
  9703  00143C  C002  F037         	movff	2+?i2___aodiv,(c:i2dtoa@n+2)
  9704  001440  C003  F038         	movff	3+?i2___aodiv,(c:i2dtoa@n+3)
  9705  001444  C004  F039         	movff	4+?i2___aodiv,(c:i2dtoa@n+4)
  9706  001448  C005  F03A         	movff	5+?i2___aodiv,(c:i2dtoa@n+5)
  9707  00144C  C006  F03B         	movff	6+?i2___aodiv,(c:i2dtoa@n+6)
  9708  001450  C007  F03C         	movff	7+?i2___aodiv,(c:i2dtoa@n+7)
  9709  001454  C008  F03D         	
  9710                           	goto	i2l2489
  9711  001458  EF2E  F00A         	line	305
  9712                           ;E:\ProgramasWindowns\Microchip\xc8\v2.00\pic\sources\c99\common\doprnt.c: 305:     }
  9713                           	
  9714                           i2l258:
  9715  00145C                     	line	299
  9716                           	
  9717                           i2l2489:
  9718  00145C                     ;E:\ProgramasWindowns\Microchip\xc8\v2.00\pic\sources\c99\common\doprnt.c: 299:     whil
                                 e (!(i < 1) && (n || (0 < p) || ((0 < w) && (flags & (1 << 1))))) {
  9719                           	btfsc	((c:i2dtoa@i+1)),c,7
  9720  00145C  BE3F               	goto	i2u236_41
  9721  00145E  EF39  F00A         	movf	((c:i2dtoa@i+1)),c,w
  9722  001462  503F               	bnz	i2u236_40
  9723  001464  E108               	decf	((c:i2dtoa@i)),c,w
  9724  001466  043E               	btfss	status,0
  9725  001468  A0D8               	goto	i2u236_41
  9726  00146A  EF39  F00A         	goto	i2u236_40
  9727  00146E  EF3B  F00A         
  9728                           i2u236_41:
  9729  001472                     	goto	i2l2499
  9730  001472  EF72  F00A         i2u236_40:
  9731  001476                     	
  9732                           i2l2491:
  9733  001476                     	movf	((c:i2dtoa@n)),c,w
  9734  001476  5036               iorwf	((c:i2dtoa@n+1)),c,w
  9735  001478  1037               iorwf	((c:i2dtoa@n+2)),c,w
  9736  00147A  1038               iorwf	((c:i2dtoa@n+3)),c,w
  9737  00147C  1039               iorwf	((c:i2dtoa@n+4)),c,w
  9738  00147E  103A               iorwf	((c:i2dtoa@n+5)),c,w
  9739  001480  103B               iorwf	((c:i2dtoa@n+6)),c,w
  9740  001482  103C               iorwf	((c:i2dtoa@n+7)),c,w
  9741  001484  103D               	btfss	status,2
  9742  001486  A4D8               	goto	i2u237_41
  9743  001488  EF48  F00A         	goto	i2u237_40
  9744  00148C  EF4A  F00A         
  9745                           i2u237_41:
  9746  001490                     	goto	i2l2479
  9747  001490  EFB0  F009         i2u237_40:
  9748  001494                     	
  9749                           i2l2493:
  9750  001494                     	btfsc	((c:i2dtoa@p+1)),c,7
  9751  001494  BE31               	goto	i2u238_40
  9752  001496  EF57  F00A         	movf	((c:i2dtoa@p+1)),c,w
  9753  00149A  5031               	bnz	i2u238_41
  9754  00149C  E106               	decf	((c:i2dtoa@p)),c,w
  9755  00149E  0430               	btfsc	status,0
  9756  0014A0  B0D8               	goto	i2u238_41
  9757  0014A2  EF55  F00A         	goto	i2u238_40
  9758  0014A6  EF57  F00A         
  9759                           i2u238_41:
  9760  0014AA                     	goto	i2l2479
  9761  0014AA  EFB0  F009         i2u238_40:
  9762  0014AE                     	
  9763                           i2l2495:
  9764  0014AE                     	btfsc	((c:i2dtoa@w+1)),c,7
  9765  0014AE  BE33               	goto	i2u239_41
  9766  0014B0  EF62  F00A         	movf	((c:i2dtoa@w+1)),c,w
  9767  0014B4  5033               	bnz	i2u239_40
  9768  0014B6  E108               	decf	((c:i2dtoa@w)),c,w
  9769  0014B8  0432               	btfss	status,0
  9770  0014BA  A0D8               	goto	i2u239_41
  9771  0014BC  EF62  F00A         	goto	i2u239_40
  9772  0014C0  EF64  F00A         
  9773                           i2u239_41:
  9774  0014C4                     	goto	i2l2499
  9775  0014C4  EF72  F00A         i2u239_40:
  9776  0014C8                     	
  9777                           i2l2497:
  9778  0014C8                     	movlb	0	; () banked
  9779  0014C8  0100               	
  9780                           	btfsc	((_flags))&0ffh,(1)&7
  9781  0014CA  B3F2               	goto	i2u240_41
  9782  0014CC  EF6A  F00A         	goto	i2u240_40
  9783  0014D0  EF6C  F00A         i2u240_41:
  9784  0014D4                     	goto	i2l2479
  9785  0014D4  EFB0  F009         i2u240_40:
  9786  0014D8                     	goto	i2l2499
  9787  0014D8  EF72  F00A         	
  9788                           i2l263:; BSR set to: 0
  9789  0014DC                     
  9790                           	goto	i2l2499
  9791  0014DC  EF72  F00A         	
  9792                           i2l261:; BSR set to: 0
  9793  0014E0                     
  9794                           	goto	i2l2499
  9795  0014E0  EF72  F00A         	
  9796                           i2l264:; BSR set to: 0
  9797  0014E4                     
  9798                           	line	308
  9799                           	
  9800                           i2l2499:
  9801  0014E4                     ;E:\ProgramasWindowns\Microchip\xc8\v2.00\pic\sources\c99\common\doprnt.c: 308:     if (
                                 s || (flags & (1 << 2))) {
  9802                           	movf	((c:i2dtoa@s)),c,w
  9803  0014E4  5034               iorwf	((c:i2dtoa@s+1)),c,w
  9804  0014E6  1035               	btfss	status,2
  9805  0014E8  A4D8               	goto	i2u241_41
  9806  0014EA  EF79  F00A         	goto	i2u241_40
  9807  0014EE  EF7B  F00A         
  9808                           i2u241_41:
  9809  0014F2                     	goto	i2l2503
  9810  0014F2  EF85  F00A         i2u241_40:
  9811  0014F6                     	
  9812                           i2l2501:
  9813  0014F6                     	movlb	0	; () banked
  9814  0014F6  0100               	
  9815                           	btfss	((_flags))&0ffh,(2)&7
  9816  0014F8  A5F2               	goto	i2u242_41
  9817  0014FA  EF81  F00A         	goto	i2u242_40
  9818  0014FE  EF83  F00A         i2u242_41:
  9819  001502                     	goto	i2l2513
  9820  001502  EFA7  F00A         i2u242_40:
  9821  001506                     	goto	i2l2503
  9822  001506  EF85  F00A         	
  9823                           i2l267:; BSR set to: 0
  9824  00150A                     
  9825                           	line	309
  9826                           	
  9827                           i2l2503:
  9828  00150A                     ;E:\ProgramasWindowns\Microchip\xc8\v2.00\pic\sources\c99\common\doprnt.c: 309:         
                                 --i;
  9829                           	decf	((c:i2dtoa@i)),c
  9830  00150A  063E               	btfss	status,0
  9831  00150C  A0D8               	decf	((c:i2dtoa@i+1)),c
  9832  00150E  063F               	line	310
  9833                           	
  9834                           i2l2505:
  9835  001510                     ;E:\ProgramasWindowns\Microchip\xc8\v2.00\pic\sources\c99\common\doprnt.c: 310:         
                                 dbuf[i] = s ? '-' : '+';
  9836                           	movf	((c:i2dtoa@s)),c,w
  9837  001510  5034               iorwf	((c:i2dtoa@s+1)),c,w
  9838  001512  1035               	btfss	status,2
  9839  001514  A4D8               	goto	i2u243_41
  9840  001516  EF8F  F00A         	goto	i2u243_40
  9841  00151A  EF91  F00A         
  9842                           i2u243_41:
  9843  00151E                     	goto	i2l2509
  9844  00151E  EF97  F00A         i2u243_40:
  9845  001522                     	
  9846                           i2l2507:
  9847  001522                     	movlw	high(02Bh)
  9848  001522  0E00               	movwf	((c:i2_dtoa$347+1)),c
  9849  001524  6E2F               	movlw	low(02Bh)
  9850  001526  0E2B               	movwf	((c:i2_dtoa$347)),c
  9851  001528  6E2E               	goto	i2l2511
  9852  00152A  EF9D  F00A         	
  9853                           i2l269:
  9854  00152E                     	
  9855                           i2l2509:
  9856  00152E                     	movlw	high(02Dh)
  9857  00152E  0E00               	movwf	((c:i2_dtoa$347+1)),c
  9858  001530  6E2F               	movlw	low(02Dh)
  9859  001532  0E2D               	movwf	((c:i2_dtoa$347)),c
  9860  001534  6E2E               	goto	i2l2511
  9861  001536  EF9D  F00A         	
  9862                           i2l271:
  9863  00153A                     	
  9864                           i2l2511:
  9865  00153A                     	movlw	low(_dbuf)
  9866  00153A  0E00               	addwf	((c:i2dtoa@i)),c,w
  9867  00153C  243E               	movwf	c:fsr2l
  9868  00153E  6ED9               	movlw	high(_dbuf)
  9869  001540  0E01               	addwfc	((c:i2dtoa@i+1)),c,w
  9870  001542  203F               	movwf	1+c:fsr2l
  9871  001544  6EDA               	movff	(c:i2_dtoa$347),indf2
  9872  001546  C02E  FFDF         
  9873                           	goto	i2l2513
  9874  00154A  EFA7  F00A         	line	311
  9875                           ;E:\ProgramasWindowns\Microchip\xc8\v2.00\pic\sources\c99\common\doprnt.c: 311:     }
  9876                           	
  9877                           i2l265:
  9878  00154E                     	line	314
  9879                           	
  9880                           i2l2513:
  9881  00154E                     ;E:\ProgramasWindowns\Microchip\xc8\v2.00\pic\sources\c99\common\doprnt.c: 314:     retu
                                 rn pad(fp, &dbuf[i], w);
  9882                           		movff	(c:i2dtoa@fp),(c:i2pad@fp)
  9883  00154E  C01C  F011         	movff	(c:i2dtoa@fp+1),(c:i2pad@fp+1)
  9884  001552  C01D  F012         
  9885                           	movlw	low(_dbuf)
  9886  001556  0E00               	addwf	((c:i2dtoa@i)),c,w
  9887  001558  243E               	movwf	((c:i2pad@buf)),c
  9888  00155A  6E13               	movlw	high(_dbuf)
  9889  00155C  0E01               	addwfc	((c:i2dtoa@i+1)),c,w
  9890  00155E  203F               	movwf	1+((c:i2pad@buf)),c
  9891  001560  6E14               	movff	(c:i2dtoa@w),(c:i2pad@p)
  9892  001562  C032  F015         	movff	(c:i2dtoa@w+1),(c:i2pad@p+1)
  9893  001566  C033  F016         	call	i2_pad	;wreg free
  9894  00156A  EC5F  F012         	movff	0+?i2_pad,(c:?i2_dtoa)
  9895  00156E  C011  F01C         	movff	1+?i2_pad,(c:?i2_dtoa+1)
  9896  001572  C012  F01D         	goto	i2l272
  9897  001576  EFBD  F00A         	
  9898                           i2l2515:
  9899  00157A                     	line	315
  9900                           	
  9901                           i2l272:
  9902  00157A                     	return	;funcret
  9903  00157A  0012               	opt stack 0
  9904                           GLOBAL	__end_ofi2_dtoa
  9905                           	__end_ofi2_dtoa:
  9906  00157C                     	signat	i2_dtoa,90
  9907                           	global	i2_pad
  9908                           
  9909 ;; *************** function i2_pad *****************
  9910 ;; Defined at:
  9911 ;;		line 72 in file "E:\ProgramasWindowns\Microchip\xc8\v2.00\pic\sources\c99\common\doprnt.c"
  9912 ;; Parameters:    Size  Location     Type
  9913 ;;  fp              2   16[COMRAM] PTR struct _IO_FILE
  9914 ;;		 -> i2sprintf@f(6), sprintf@f(6), 
  9915 ;;  buf             2   18[COMRAM] PTR unsigned char 
  9916 ;;		 -> dbuf(32), 
  9917 ;;  p               2   20[COMRAM] int 
  9918 ;; Auto vars:     Size  Location     Type
  9919 ;;  pad             2   25[COMRAM] int 
  9920 ;;  pad             2   23[COMRAM] int 
  9921 ;; Return value:  Size  Location     Type
  9922 ;;                  2   16[COMRAM] int 
  9923 ;; Registers used:
  9924 ;;		wreg, fsr1l, fsr1h, fsr2l, fsr2h, status,2, status,0, cstack
  9925 ;; Tracked objects:
  9926 ;;		On entry : 0/0
  9927 ;;		On exit  : 0/0
  9928 ;;		Unchanged: 0/0
  9929 ;; Data sizes:     COMRAM   BANK0   BANK1   BANK2   BANK3   BANK4   BANK5
  9930 ;;      Params:         6       0       0       0       0       0       0
  9931 ;;      Locals:         4       0       0       0       0       0       0
  9932 ;;      Temps:          1       0       0       0       0       0       0
  9933 ;;      Totals:        11       0       0       0       0       0       0
  9934 ;;Total ram usage:       11 bytes
  9935 ;; Hardware stack levels used:    1
  9936 ;; Hardware stack levels required when called:    3
  9937 ;; This function calls:
  9938 ;;		i2_fputc
  9939 ;;		i2_fputs
  9940 ;;		i2_strlen
  9941 ;; This function is called by:
  9942 ;;		i2_dtoa
  9943 ;; This function uses a non-reentrant model
  9944 ;;
  9945                           psect	text30,class=CODE,space=0,reloc=2,group=0
  9946                           	line	72
  9947                           global __ptext30
  9948                           __ptext30:
  9949  0024BE                     psect	text30
  9950                           	file	"E:\ProgramasWindowns\Microchip\xc8\v2.00\pic\sources\c99\common\doprnt.c"
  9951                           	line	72
  9952                           	global	__size_ofi2_pad
  9953                           	__size_ofi2_pad	equ	__end_ofi2_pad-i2_pad
  9954  0000                     	
  9955                           i2_pad:
  9956  0024BE                     ;incstack = 0
  9957                           	opt	stack 10
  9958                           	line	77
  9959                           	
  9960                           i2l2287:
  9961  0024BE                     ;E:\ProgramasWindowns\Microchip\xc8\v2.00\pic\sources\c99\common\doprnt.c: 72: static in
                                 t pad(FILE *fp, char *buf, int p);E:\ProgramasWindowns\Microchip\xc8\v2.00\pic\sources\c
                                 99\common\doprnt.c: 73: {;E:\ProgramasWindowns\Microchip\xc8\v2.00\pic\sources\c99\commo
                                 n\doprnt.c: 74:     int i, w;;E:\ProgramasWindowns\Microchip\xc8\v2.00\pic\sources\c99\c
                                 ommon\doprnt.c: 77:     if (flags & (1 << 0)) {
  9962                           	movlb	0	; () banked
  9963  0024BE  0100               	
  9964                           	btfss	((_flags))&0ffh,(0)&7
  9965  0024C0  A1F2               	goto	i2u196_41
  9966  0024C2  EF65  F012         	goto	i2u196_40
  9967  0024C6  EF67  F012         i2u196_41:
  9968  0024CA                     	goto	i2l2291
  9969  0024CA  EF73  F012         i2u196_40:
  9970  0024CE                     	line	78
  9971                           	
  9972                           i2l2289:; BSR set to: 0
  9973  0024CE                     
  9974                           ;E:\ProgramasWindowns\Microchip\xc8\v2.00\pic\sources\c99\common\doprnt.c: 78:         f
                                 puts((const char *)buf, fp);
  9975                           		movff	(c:i2pad@buf),(c:i2fputs@s)
  9976  0024CE  C013  F00A         	movff	(c:i2pad@buf+1),(c:i2fputs@s+1)
  9977  0024D2  C014  F00B         
  9978                           		movff	(c:i2pad@fp),(c:i2fputs@fp)
  9979  0024D6  C011  F00C         	movff	(c:i2pad@fp+1),(c:i2fputs@fp+1)
  9980  0024DA  C012  F00D         
  9981                           	call	i2_fputs	;wreg free
  9982  0024DE  EC32  F015         	goto	i2l2291
  9983  0024E2  EF73  F012         	line	79
  9984                           ;E:\ProgramasWindowns\Microchip\xc8\v2.00\pic\sources\c99\common\doprnt.c: 79:     }
  9985                           	
  9986                           i2l237:
  9987  0024E6                     	line	82
  9988                           	
  9989                           i2l2291:
  9990  0024E6                     ;E:\ProgramasWindowns\Microchip\xc8\v2.00\pic\sources\c99\common\doprnt.c: 82:     w = (
                                 p < 0) ? 0 : p;
  9991                           	btfsc	((c:i2pad@p+1)),c,7
  9992  0024E6  BE16               	goto	i2u197_41
  9993  0024E8  EF78  F012         	goto	i2u197_40
  9994  0024EC  EF7A  F012         
  9995                           i2u197_41:
  9996  0024F0                     	goto	i2l2295
  9997  0024F0  EF80  F012         i2u197_40:
  9998  0024F4                     	
  9999                           i2l2293:
 10000  0024F4                     	movff	(c:i2pad@p),(c:i2pad@w)
 10001  0024F4  C015  F01A         	movff	(c:i2pad@p+1),(c:i2pad@w+1)
 10002  0024F8  C016  F01B         	goto	i2l241
 10003  0024FC  EF84  F012         	
 10004                           i2l239:
 10005  002500                     	
 10006                           i2l2295:
 10007  002500                     	movlw	high(0)
 10008  002500  0E00               	movwf	((c:i2pad@w+1)),c
 10009  002502  6E1B               	movlw	low(0)
 10010  002504  0E00               	movwf	((c:i2pad@w)),c
 10011  002506  6E1A               	
 10012                           i2l241:
 10013  002508                     	line	83
 10014                           ;E:\ProgramasWindowns\Microchip\xc8\v2.00\pic\sources\c99\common\doprnt.c: 83:     i = 0
                                 ;
 10015                           	movlw	high(0)
 10016  002508  0E00               	movwf	((c:i2pad@i+1)),c
 10017  00250A  6E19               	movlw	low(0)
 10018  00250C  0E00               	movwf	((c:i2pad@i)),c
 10019  00250E  6E18               	line	84
 10020                           ;E:\ProgramasWindowns\Microchip\xc8\v2.00\pic\sources\c99\common\doprnt.c: 84:     while
                                  (i < w) {
 10021                           	goto	i2l2301
 10022  002510  EF98  F012         	
 10023                           i2l243:
 10024  002514                     	line	85
 10025                           	
 10026                           i2l2297:
 10027  002514                     ;E:\ProgramasWindowns\Microchip\xc8\v2.00\pic\sources\c99\common\doprnt.c: 85:         f
                                 putc(' ', fp);
 10028                           	movlw	high(020h)
 10029  002514  0E00               	movwf	((c:i2fputc@c+1)),c
 10030  002516  6E02               	movlw	low(020h)
 10031  002518  0E20               	movwf	((c:i2fputc@c)),c
 10032  00251A  6E01               		movff	(c:i2pad@fp),(c:i2fputc@fp)
 10033  00251C  C011  F003         	movff	(c:i2pad@fp+1),(c:i2fputc@fp+1)
 10034  002520  C012  F004         
 10035                           	call	i2_fputc	;wreg free
 10036  002524  EC83  F011         	line	86
 10037                           	
 10038                           i2l2299:
 10039  002528                     ;E:\ProgramasWindowns\Microchip\xc8\v2.00\pic\sources\c99\common\doprnt.c: 86:         +
                                 +i;
 10040                           	infsnz	((c:i2pad@i)),c
 10041  002528  4A18               	incf	((c:i2pad@i+1)),c
 10042  00252A  2A19               	goto	i2l2301
 10043  00252C  EF98  F012         	line	87
 10044                           ;E:\ProgramasWindowns\Microchip\xc8\v2.00\pic\sources\c99\common\doprnt.c: 87:     }
 10045                           	
 10046                           i2l242:
 10047  002530                     	line	84
 10048                           	
 10049                           i2l2301:
 10050  002530                     ;E:\ProgramasWindowns\Microchip\xc8\v2.00\pic\sources\c99\common\doprnt.c: 84:     while
                                  (i < w) {
 10051                           		movf	((c:i2pad@w)),c,w
 10052  002530  501A               	subwf	((c:i2pad@i)),c,w
 10053  002532  5C18               	movf	((c:i2pad@i+1)),c,w
 10054  002534  5019               	xorlw	80h
 10055  002536  0A80               	movwf	(??i2_pad+0+0)&0ffh,c
 10056  002538  6E17               	movf	((c:i2pad@w+1)),c,w
 10057  00253A  501B               	xorlw	80h
 10058  00253C  0A80               	subwfb	(??i2_pad+0+0)&0ffh,c,w
 10059  00253E  5817               	btfss	status,0
 10060  002540  A0D8               	goto	i2u198_41
 10061  002542  EFA5  F012         	goto	i2u198_40
 10062  002546  EFA7  F012         
 10063                           i2u198_41:
 10064  00254A                     	goto	i2l2297
 10065  00254A  EF8A  F012         i2u198_40:
 10066  00254E                     	
 10067                           i2l244:
 10068  00254E                     	line	90
 10069                           ;E:\ProgramasWindowns\Microchip\xc8\v2.00\pic\sources\c99\common\doprnt.c: 90:     if (!
                                 (flags & (1 << 0))) {
 10070                           	movlb	0	; () banked
 10071  00254E  0100               	
 10072                           	btfsc	((_flags))&0ffh,(0)&7
 10073  002550  B1F2               	goto	i2u199_41
 10074  002552  EFAD  F012         	goto	i2u199_40
 10075  002556  EFAF  F012         i2u199_41:
 10076  00255A                     	goto	i2l2305
 10077  00255A  EFBB  F012         i2u199_40:
 10078  00255E                     	line	91
 10079                           	
 10080                           i2l2303:; BSR set to: 0
 10081  00255E                     
 10082                           ;E:\ProgramasWindowns\Microchip\xc8\v2.00\pic\sources\c99\common\doprnt.c: 91:         f
                                 puts((const char *)buf, fp);
 10083                           		movff	(c:i2pad@buf),(c:i2fputs@s)
 10084  00255E  C013  F00A         	movff	(c:i2pad@buf+1),(c:i2fputs@s+1)
 10085  002562  C014  F00B         
 10086                           		movff	(c:i2pad@fp),(c:i2fputs@fp)
 10087  002566  C011  F00C         	movff	(c:i2pad@fp+1),(c:i2fputs@fp+1)
 10088  00256A  C012  F00D         
 10089                           	call	i2_fputs	;wreg free
 10090  00256E  EC32  F015         	goto	i2l2305
 10091  002572  EFBB  F012         	line	92
 10092                           ;E:\ProgramasWindowns\Microchip\xc8\v2.00\pic\sources\c99\common\doprnt.c: 92:     }
 10093                           	
 10094                           i2l245:
 10095  002576                     	line	94
 10096                           	
 10097                           i2l2305:
 10098  002576                     ;E:\ProgramasWindowns\Microchip\xc8\v2.00\pic\sources\c99\common\doprnt.c: 94:     retur
                                 n strlen(buf) + w;
 10099                           		movff	(c:i2pad@buf),(c:i2strlen@s)
 10100  002576  C013  F001         	movff	(c:i2pad@buf+1),(c:i2strlen@s+1)
 10101  00257A  C014  F002         
 10102                           	call	i2_strlen	;wreg free
 10103  00257E  ECE1  F014         	movf	((c:i2pad@w)),c,w
 10104  002582  501A               	addwf	(0+?i2_strlen),c,w
 10105  002584  2401               	movwf	((c:?i2_pad)),c
 10106  002586  6E11               	movf	((c:i2pad@w+1)),c,w
 10107  002588  501B               	addwfc	(1+?i2_strlen),c,w
 10108  00258A  2002               	movwf	1+((c:?i2_pad)),c
 10109  00258C  6E12               	goto	i2l246
 10110  00258E  EFC9  F012         	
 10111                           i2l2307:
 10112  002592                     	line	95
 10113                           	
 10114                           i2l246:
 10115  002592                     	return	;funcret
 10116  002592  0012               	opt stack 0
 10117                           GLOBAL	__end_ofi2_pad
 10118                           	__end_ofi2_pad:
 10119  002594                     	signat	i2_pad,90
 10120                           	global	i2_strlen
 10121                           
 10122 ;; *************** function i2_strlen *****************
 10123 ;; Defined at:
 10124 ;;		line 12 in file "E:\ProgramasWindowns\Microchip\xc8\v2.00\pic\sources\c99\common\strlen.c"
 10125 ;; Parameters:    Size  Location     Type
 10126 ;;  s               2    0[COMRAM] PTR const unsigned char 
 10127 ;;		 -> dbuf(32), 
 10128 ;; Auto vars:     Size  Location     Type
 10129 ;;  strlen          2    4[COMRAM] PTR const unsigned char 
 10130 ;;		 -> dbuf(32), 
 10131 ;; Return value:  Size  Location     Type
 10132 ;;                  2    0[COMRAM] unsigned int 
 10133 ;; Registers used:
 10134 ;;		wreg, fsr2l, fsr2h, status,2, status,0
 10135 ;; Tracked objects:
 10136 ;;		On entry : 0/0
 10137 ;;		On exit  : 0/0
 10138 ;;		Unchanged: 0/0
 10139 ;; Data sizes:     COMRAM   BANK0   BANK1   BANK2   BANK3   BANK4   BANK5
 10140 ;;      Params:         2       0       0       0       0       0       0
 10141 ;;      Locals:         2       0       0       0       0       0       0
 10142 ;;      Temps:          2       0       0       0       0       0       0
 10143 ;;      Totals:         6       0       0       0       0       0       0
 10144 ;;Total ram usage:        6 bytes
 10145 ;; Hardware stack levels used:    1
 10146 ;; This function calls:
 10147 ;;		Nothing
 10148 ;; This function is called by:
 10149 ;;		i2_pad
 10150 ;; This function uses a non-reentrant model
 10151 ;;
 10152                           psect	text31,class=CODE,space=0,reloc=2,group=0
 10153                           	file	"E:\ProgramasWindowns\Microchip\xc8\v2.00\pic\sources\c99\common\strlen.c"
 10154                           	line	12
 10155                           global __ptext31
 10156                           __ptext31:
 10157  0029C2                     psect	text31
 10158                           	file	"E:\ProgramasWindowns\Microchip\xc8\v2.00\pic\sources\c99\common\strlen.c"
 10159                           	line	12
 10160                           	global	__size_ofi2_strlen
 10161                           	__size_ofi2_strlen	equ	__end_ofi2_strlen-i2_strlen
 10162  0000                     	
 10163                           i2_strlen:
 10164  0029C2                     ;incstack = 0
 10165                           	opt	stack 12
 10166                           	line	14
 10167                           	
 10168                           i2l2171:
 10169  0029C2                     		movff	(c:i2strlen@s),(c:i2strlen@a)
 10170  0029C2  C001  F005         	movff	(c:i2strlen@s+1),(c:i2strlen@a+1)
 10171  0029C6  C002  F006         
 10172                           	line	16
 10173                           	goto	i2l2175
 10174  0029CA  EFEB  F014         	
 10175                           i2l1001:
 10176  0029CE                     	line	17
 10177                           	
 10178                           i2l2173:
 10179  0029CE                     	infsnz	((c:i2strlen@s)),c
 10180  0029CE  4A01               	incf	((c:i2strlen@s+1)),c
 10181  0029D0  2A02               	goto	i2l2175
 10182  0029D2  EFEB  F014         	line	18
 10183                           	
 10184                           i2l1000:
 10185  0029D6                     	line	16
 10186                           	
 10187                           i2l2175:
 10188  0029D6                     	movff	(c:i2strlen@s),fsr2l
 10189  0029D6  C001  FFD9         	movff	(c:i2strlen@s+1),fsr2h
 10190  0029DA  C002  FFDA         	movf	indf2,w
 10191  0029DE  50DF               	btfss	status,2
 10192  0029E0  A4D8               	goto	i2u177_41
 10193  0029E2  EFF5  F014         	goto	i2u177_40
 10194  0029E6  EFF7  F014         i2u177_41:
 10195  0029EA                     	goto	i2l2173
 10196  0029EA  EFE7  F014         i2u177_40:
 10197  0029EE                     	goto	i2l2177
 10198  0029EE  EFF9  F014         	
 10199                           i2l1002:
 10200  0029F2                     	line	25
 10201                           	
 10202                           i2l2177:
 10203  0029F2                     	movff	(c:i2strlen@a),??i2_strlen+0+0
 10204  0029F2  C005  F003         	movff	(c:i2strlen@a+1),??i2_strlen+0+0+1
 10205  0029F6  C006  F004         	comf	(??i2_strlen+0+0),c
 10206  0029FA  1E03               	comf	(??i2_strlen+0+1),c
 10207  0029FC  1E04               	infsnz	(??i2_strlen+0+0),c
 10208  0029FE  4A03               	incf	(??i2_strlen+0+1),c
 10209  002A00  2A04               	movf	((c:i2strlen@s)),c,w
 10210  002A02  5001               	addwf	(??i2_strlen+0+0),c,w
 10211  002A04  2403               	movwf	((c:?i2_strlen)),c
 10212  002A06  6E01               	movf	((c:i2strlen@s+1)),c,w
 10213  002A08  5002               	addwfc	(??i2_strlen+0+1),c,w
 10214  002A0A  2004               	movwf	1+((c:?i2_strlen)),c
 10215  002A0C  6E02               	goto	i2l1003
 10216  002A0E  EF09  F015         	
 10217                           i2l2179:
 10218  002A12                     	line	26
 10219                           	
 10220                           i2l1003:
 10221  002A12                     	return	;funcret
 10222  002A12  0012               	opt stack 0
 10223                           GLOBAL	__end_ofi2_strlen
 10224                           	__end_ofi2_strlen:
 10225  002A14                     	signat	i2_strlen,90
 10226                           	global	i2_fputs
 10227                           
 10228 ;; *************** function i2_fputs *****************
 10229 ;; Defined at:
 10230 ;;		line 8 in file "E:\ProgramasWindowns\Microchip\xc8\v2.00\pic\sources\c99\common\nf_fputs.c"
 10231 ;; Parameters:    Size  Location     Type
 10232 ;;  s               2    9[COMRAM] PTR const unsigned char 
 10233 ;;		 -> dbuf(32), 
 10234 ;;  fp              2   11[COMRAM] PTR struct _IO_FILE
 10235 ;;		 -> i2sprintf@f(6), sprintf@f(6), 
 10236 ;; Auto vars:     Size  Location     Type
 10237 ;;  fputs           2   14[COMRAM] int 
 10238 ;;  fputs           1   13[COMRAM] unsigned char 
 10239 ;; Return value:  Size  Location     Type
 10240 ;;                  2    9[COMRAM] int 
 10241 ;; Registers used:
 10242 ;;		wreg, fsr1l, fsr1h, fsr2l, fsr2h, status,2, status,0, cstack
 10243 ;; Tracked objects:
 10244 ;;		On entry : 0/0
 10245 ;;		On exit  : 0/0
 10246 ;;		Unchanged: 0/0
 10247 ;; Data sizes:     COMRAM   BANK0   BANK1   BANK2   BANK3   BANK4   BANK5
 10248 ;;      Params:         4       0       0       0       0       0       0
 10249 ;;      Locals:         3       0       0       0       0       0       0
 10250 ;;      Temps:          0       0       0       0       0       0       0
 10251 ;;      Totals:         7       0       0       0       0       0       0
 10252 ;;Total ram usage:        7 bytes
 10253 ;; Hardware stack levels used:    1
 10254 ;; Hardware stack levels required when called:    2
 10255 ;; This function calls:
 10256 ;;		i2_fputc
 10257 ;; This function is called by:
 10258 ;;		i2_pad
 10259 ;; This function uses a non-reentrant model
 10260 ;;
 10261                           psect	text32,class=CODE,space=0,reloc=2,group=0
 10262                           	file	"E:\ProgramasWindowns\Microchip\xc8\v2.00\pic\sources\c99\common\nf_fputs.c"
 10263                           	line	8
 10264                           global __ptext32
 10265                           __ptext32:
 10266  002A64                     psect	text32
 10267                           	file	"E:\ProgramasWindowns\Microchip\xc8\v2.00\pic\sources\c99\common\nf_fputs.c"
 10268                           	line	8
 10269                           	global	__size_ofi2_fputs
 10270                           	__size_ofi2_fputs	equ	__end_ofi2_fputs-i2_fputs
 10271  0000                     	
 10272                           i2_fputs:
 10273  002A64                     ;incstack = 0
 10274                           	opt	stack 10
 10275                           	line	13
 10276                           	
 10277                           i2l2163:
 10278  002A64                     	movlw	high(0)
 10279  002A64  0E00               	movwf	((c:i2fputs@i+1)),c
 10280  002A66  6E10               	movlw	low(0)
 10281  002A68  0E00               	movwf	((c:i2fputs@i)),c
 10282  002A6A  6E0F               	line	14
 10283                           	goto	i2l2169
 10284  002A6C  EF45  F015         	
 10285                           i2l985:
 10286  002A70                     	line	15
 10287                           	
 10288                           i2l2165:
 10289  002A70                     	movff	(c:i2fputs@c),(c:i2fputc@c)
 10290  002A70  C00E  F001         	clrf	((c:i2fputc@c+1)),c
 10291  002A74  6A02               		movff	(c:i2fputs@fp),(c:i2fputc@fp)
 10292  002A76  C00C  F003         	movff	(c:i2fputs@fp+1),(c:i2fputc@fp+1)
 10293  002A7A  C00D  F004         
 10294                           	call	i2_fputc	;wreg free
 10295  002A7E  EC83  F011         	line	16
 10296                           	
 10297                           i2l2167:
 10298  002A82                     	infsnz	((c:i2fputs@i)),c
 10299  002A82  4A0F               	incf	((c:i2fputs@i+1)),c
 10300  002A84  2A10               	goto	i2l2169
 10301  002A86  EF45  F015         	line	17
 10302                           	
 10303                           i2l984:
 10304  002A8A                     	line	14
 10305                           	
 10306                           i2l2169:
 10307  002A8A                     	movf	((c:i2fputs@i)),c,w
 10308  002A8A  500F               	addwf	((c:i2fputs@s)),c,w
 10309  002A8C  240A               	movwf	c:fsr2l
 10310  002A8E  6ED9               	movf	((c:i2fputs@i+1)),c,w
 10311  002A90  5010               	addwfc	((c:i2fputs@s+1)),c,w
 10312  002A92  200B               	movwf	1+c:fsr2l
 10313  002A94  6EDA               	movf	indf2,w
 10314  002A96  50DF               	movwf	((c:i2fputs@c)),c
 10315  002A98  6E0E               	movf	((c:i2fputs@c)),c,w
 10316  002A9A  500E               	btfss	status,2
 10317  002A9C  A4D8               	goto	i2u176_41
 10318  002A9E  EF53  F015         	goto	i2u176_40
 10319  002AA2  EF55  F015         i2u176_41:
 10320  002AA6                     	goto	i2l2165
 10321  002AA6  EF38  F015         i2u176_40:
 10322  002AAA                     	goto	i2l987
 10323  002AAA  EF57  F015         	
 10324                           i2l986:
 10325  002AAE                     	line	19
 10326                           ;	Return value of i2_fputs is never used
 10327                           	
 10328                           i2l987:
 10329  002AAE                     	return	;funcret
 10330  002AAE  0012               	opt stack 0
 10331                           GLOBAL	__end_ofi2_fputs
 10332                           	__end_ofi2_fputs:
 10333  002AB0                     	signat	i2_fputs,90
 10334                           	global	i2_fputc
 10335                           
 10336 ;; *************** function i2_fputc *****************
 10337 ;; Defined at:
 10338 ;;		line 8 in file "E:\ProgramasWindowns\Microchip\xc8\v2.00\pic\sources\c99\common\nf_fputc.c"
 10339 ;; Parameters:    Size  Location     Type
 10340 ;;  c               2    0[COMRAM] int 
 10341 ;;  fp              2    2[COMRAM] PTR struct _IO_FILE
 10342 ;;		 -> i2sprintf@f(6), sprintf@f(6), 
 10343 ;; Auto vars:     Size  Location     Type
 10344 ;;		None
 10345 ;; Return value:  Size  Location     Type
 10346 ;;                  2    0[COMRAM] int 
 10347 ;; Registers used:
 10348 ;;		wreg, fsr1l, fsr1h, fsr2l, fsr2h, status,2, status,0, cstack
 10349 ;; Tracked objects:
 10350 ;;		On entry : 0/0
 10351 ;;		On exit  : 0/0
 10352 ;;		Unchanged: 0/0
 10353 ;; Data sizes:     COMRAM   BANK0   BANK1   BANK2   BANK3   BANK4   BANK5
 10354 ;;      Params:         4       0       0       0       0       0       0
 10355 ;;      Locals:         0       0       0       0       0       0       0
 10356 ;;      Temps:          5       0       0       0       0       0       0
 10357 ;;      Totals:         9       0       0       0       0       0       0
 10358 ;;Total ram usage:        9 bytes
 10359 ;; Hardware stack levels used:    1
 10360 ;; Hardware stack levels required when called:    1
 10361 ;; This function calls:
 10362 ;;		i2_putch
 10363 ;; This function is called by:
 10364 ;;		i2_pad
 10365 ;;		i2_vfpfcnvrt
 10366 ;;		i2_fputs
 10367 ;; This function uses a non-reentrant model
 10368 ;;
 10369                           psect	text33,class=CODE,space=0,reloc=2,group=0
 10370                           	file	"E:\ProgramasWindowns\Microchip\xc8\v2.00\pic\sources\c99\common\nf_fputc.c"
 10371                           	line	8
 10372                           global __ptext33
 10373                           __ptext33:
 10374  002306                     psect	text33
 10375                           	file	"E:\ProgramasWindowns\Microchip\xc8\v2.00\pic\sources\c99\common\nf_fputc.c"
 10376                           	line	8
 10377                           	global	__size_ofi2_fputc
 10378                           	__size_ofi2_fputc	equ	__end_ofi2_fputc-i2_fputc
 10379  0000                     	
 10380                           i2_fputc:
 10381  002306                     ;incstack = 0
 10382                           	opt	stack 13
 10383                           	line	12
 10384                           	
 10385                           i2l2131:
 10386  002306                     	movf	((c:i2fputc@fp)),c,w
 10387  002306  5003               iorwf	((c:i2fputc@fp+1)),c,w
 10388  002308  1004               	btfsc	status,2
 10389  00230A  B4D8               	goto	i2u170_41
 10390  00230C  EF8A  F011         	goto	i2u170_40
 10391  002310  EF8C  F011         
 10392                           i2u170_41:
 10393  002314                     	goto	i2l2135
 10394  002314  EF97  F011         i2u170_40:
 10395  002318                     	
 10396                           i2l2133:
 10397  002318                     	movf	((c:i2fputc@fp)),c,w
 10398  002318  5003               iorwf	((c:i2fputc@fp+1)),c,w
 10399  00231A  1004               	btfss	status,2
 10400  00231C  A4D8               	goto	i2u171_41
 10401  00231E  EF93  F011         	goto	i2u171_40
 10402  002322  EF95  F011         
 10403                           i2u171_41:
 10404  002326                     	goto	i2l2137
 10405  002326  EF9C  F011         i2u171_40:
 10406  00232A                     	goto	i2l2135
 10407  00232A  EF97  F011         	
 10408                           i2l974:
 10409  00232E                     	line	13
 10410                           	
 10411                           i2l2135:
 10412  00232E                     	movf	((c:i2fputc@c)),c,w
 10413  00232E  5001               	
 10414                           	call	i2_putch
 10415  002330  EC83  F016         	line	14
 10416                           	goto	i2l979
 10417  002334  EFF1  F011         	
 10418                           i2l972:
 10419  002338                     	line	15
 10420                           	
 10421                           i2l2137:
 10422  002338                     	lfsr	2,04h
 10423  002338  EE20 F004          	movf	((c:i2fputc@fp)),c,w
 10424  00233C  5003               	addwf	fsr2l
 10425  00233E  26D9               	movf	((c:i2fputc@fp+1)),c,w
 10426  002340  5004               	addwfc	fsr2h
 10427  002342  22DA               	movf	postinc2,w
 10428  002344  50DE               iorwf	postinc2,w
 10429  002346  10DE               	btfsc	status,2
 10430  002348  B4D8               	goto	i2u172_41
 10431  00234A  EFA9  F011         	goto	i2u172_40
 10432  00234E  EFAB  F011         
 10433                           i2u172_41:
 10434  002352                     	goto	i2l2141
 10435  002352  EFC8  F011         i2u172_40:
 10436  002356                     	
 10437                           i2l2139:
 10438  002356                     	lfsr	2,04h
 10439  002356  EE20 F004          	movf	((c:i2fputc@fp)),c,w
 10440  00235A  5003               	addwf	fsr2l
 10441  00235C  26D9               	movf	((c:i2fputc@fp+1)),c,w
 10442  00235E  5004               	addwfc	fsr2h
 10443  002360  22DA               	lfsr	1,02h
 10444  002362  EE10 F002          	movf	((c:i2fputc@fp)),c,w
 10445  002366  5003               	addwf	fsr1l
 10446  002368  26E1               	movf	((c:i2fputc@fp+1)),c,w
 10447  00236A  5004               	addwfc	fsr1h
 10448  00236C  22E2               		movf	postinc2,w
 10449  00236E  50DE               	subwf	postinc1,w
 10450  002370  5CE6               	movf	postinc1,w
 10451  002372  50E6               	xorlw	80h
 10452  002374  0A80               	movwf	(??i2_fputc+4+0)&0ffh,c
 10453  002376  6E09               	movf	postinc2,w
 10454  002378  50DE               	xorlw	80h
 10455  00237A  0A80               	subwfb	(??i2_fputc+4+0)&0ffh,c,w
 10456  00237C  5809               	btfsc	status,0
 10457  00237E  B0D8               	goto	i2u173_41
 10458  002380  EFC4  F011         	goto	i2u173_40
 10459  002384  EFC6  F011         
 10460                           i2u173_41:
 10461  002388                     	goto	i2l979
 10462  002388  EFF1  F011         i2u173_40:
 10463  00238C                     	goto	i2l2141
 10464  00238C  EFC8  F011         	
 10465                           i2l978:
 10466  002390                     	line	16
 10467                           	
 10468                           i2l2141:
 10469  002390                     	lfsr	2,02h
 10470  002390  EE20 F002          	movf	((c:i2fputc@fp)),c,w
 10471  002394  5003               	addwf	fsr2l
 10472  002396  26D9               	movf	((c:i2fputc@fp+1)),c,w
 10473  002398  5004               	addwfc	fsr2h
 10474  00239A  22DA               	movff	postinc2,??i2_fputc+0+0
 10475  00239C  CFDE F005          	movff	postdec2,??i2_fputc+0+0+1
 10476  0023A0  CFDD F006          	movff	(c:i2fputc@fp),fsr2l
 10477  0023A4  C003  FFD9         	movff	(c:i2fputc@fp+1),fsr2h
 10478  0023A8  C004  FFDA         	movff	postinc2,??i2_fputc+2+0
 10479  0023AC  CFDE F007          	movff	postdec2,??i2_fputc+2+0+1
 10480  0023B0  CFDD F008          	movf	(??i2_fputc+0+0),c,w
 10481  0023B4  5005               	addwf	(??i2_fputc+2+0),c,w
 10482  0023B6  2407               	movwf	c:fsr2l
 10483  0023B8  6ED9               	movf	(??i2_fputc+0+1),c,w
 10484  0023BA  5006               	addwfc	(??i2_fputc+2+1),c,w
 10485  0023BC  2008               	movwf	1+c:fsr2l
 10486  0023BE  6EDA               	movff	(c:i2fputc@c),indf2
 10487  0023C0  C001  FFDF         
 10488                           	line	17
 10489                           	lfsr	2,02h
 10490  0023C4  EE20 F002          	movf	((c:i2fputc@fp)),c,w
 10491  0023C8  5003               	addwf	fsr2l
 10492  0023CA  26D9               	movf	((c:i2fputc@fp+1)),c,w
 10493  0023CC  5004               	addwfc	fsr2h
 10494  0023CE  22DA               	incf	postinc2
 10495  0023D0  2ADE               	movlw	0
 10496  0023D2  0E00               	addwfc	postdec2
 10497  0023D4  22DD               	goto	i2l979
 10498  0023D6  EFF1  F011         	line	18
 10499                           	
 10500                           i2l976:
 10501  0023DA                     	goto	i2l979
 10502  0023DA  EFF1  F011         	line	19
 10503                           	
 10504                           i2l975:
 10505  0023DE                     	goto	i2l979
 10506  0023DE  EFF1  F011         	line	20
 10507                           	
 10508                           i2l2143:
 10509  0023E2                     	line	21
 10510                           ;	Return value of i2_fputc is never used
 10511                           	
 10512                           i2l979:
 10513  0023E2                     	return	;funcret
 10514  0023E2  0012               	opt stack 0
 10515                           GLOBAL	__end_ofi2_fputc
 10516                           	__end_ofi2_fputc:
 10517  0023E4                     	signat	i2_fputc,90
 10518                           	global	i2_putch
 10519                           
 10520 ;; *************** function i2_putch *****************
 10521 ;; Defined at:
 10522 ;;		line 7 in file "E:\ProgramasWindowns\Microchip\xc8\v2.00\pic\sources\c99\common\putch.c"
 10523 ;; Parameters:    Size  Location     Type
 10524 ;;  c               1    wreg     unsigned char 
 10525 ;; Auto vars:     Size  Location     Type
 10526 ;;  c               1  (no storage) unsigned char 
 10527 ;; Return value:  Size  Location     Type
 10528 ;;                  1    wreg      void 
 10529 ;; Registers used:
 10530 ;;		wreg
 10531 ;; Tracked objects:
 10532 ;;		On entry : 0/0
 10533 ;;		On exit  : 0/0
 10534 ;;		Unchanged: 0/0
 10535 ;; Data sizes:     COMRAM   BANK0   BANK1   BANK2   BANK3   BANK4   BANK5
 10536 ;;      Params:         0       0       0       0       0       0       0
 10537 ;;      Locals:         0       0       0       0       0       0       0
 10538 ;;      Temps:          0       0       0       0       0       0       0
 10539 ;;      Totals:         0       0       0       0       0       0       0
 10540 ;;Total ram usage:        0 bytes
 10541 ;; Hardware stack levels used:    1
 10542 ;; This function calls:
 10543 ;;		Nothing
 10544 ;; This function is called by:
 10545 ;;		i2_fputc
 10546 ;; This function uses a non-reentrant model
 10547 ;;
 10548                           psect	text34,class=CODE,space=0,reloc=2,group=0
 10549                           	file	"E:\ProgramasWindowns\Microchip\xc8\v2.00\pic\sources\c99\common\putch.c"
 10550                           	line	7
 10551                           global __ptext34
 10552                           __ptext34:
 10553  002D06                     psect	text34
 10554                           	file	"E:\ProgramasWindowns\Microchip\xc8\v2.00\pic\sources\c99\common\putch.c"
 10555                           	line	7
 10556                           	global	__size_ofi2_putch
 10557                           	__size_ofi2_putch	equ	__end_ofi2_putch-i2_putch
 10558  0000                     	
 10559                           i2_putch:
 10560  002D06                     ;incstack = 0
 10561                           	opt	stack 13
 10562                           	line	9
 10563                           	
 10564                           i2l997:
 10565  002D06                     	return	;funcret
 10566  002D06  0012               	opt stack 0
 10567                           GLOBAL	__end_ofi2_putch
 10568                           	__end_ofi2_putch:
 10569  002D08                     	signat	i2_putch,89
 10570                           	global	i2_abs
 10571                           
 10572 ;; *************** function i2_abs *****************
 10573 ;; Defined at:
 10574 ;;		line 1 in file "E:\ProgramasWindowns\Microchip\xc8\v2.00\pic\sources\c99\common\abs.c"
 10575 ;; Parameters:    Size  Location     Type
 10576 ;;  a               2   18[COMRAM] int 
 10577 ;; Auto vars:     Size  Location     Type
 10578 ;;		None
 10579 ;; Return value:  Size  Location     Type
 10580 ;;                  2   18[COMRAM] int 
 10581 ;; Registers used:
 10582 ;;		wreg, status,2, status,0
 10583 ;; Tracked objects:
 10584 ;;		On entry : 0/0
 10585 ;;		On exit  : 0/0
 10586 ;;		Unchanged: 0/0
 10587 ;; Data sizes:     COMRAM   BANK0   BANK1   BANK2   BANK3   BANK4   BANK5
 10588 ;;      Params:         2       0       0       0       0       0       0
 10589 ;;      Locals:         0       0       0       0       0       0       0
 10590 ;;      Temps:          2       0       0       0       0       0       0
 10591 ;;      Totals:         4       0       0       0       0       0       0
 10592 ;;Total ram usage:        4 bytes
 10593 ;; Hardware stack levels used:    1
 10594 ;; This function calls:
 10595 ;;		Nothing
 10596 ;; This function is called by:
 10597 ;;		i2_dtoa
 10598 ;; This function uses a non-reentrant model
 10599 ;;
 10600                           psect	text35,class=CODE,space=0,reloc=2,group=0
 10601                           	file	"E:\ProgramasWindowns\Microchip\xc8\v2.00\pic\sources\c99\common\abs.c"
 10602                           	line	1
 10603                           global __ptext35
 10604                           __ptext35:
 10605  002B40                     psect	text35
 10606                           	file	"E:\ProgramasWindowns\Microchip\xc8\v2.00\pic\sources\c99\common\abs.c"
 10607                           	line	1
 10608                           	global	__size_ofi2_abs
 10609                           	__size_ofi2_abs	equ	__end_ofi2_abs-i2_abs
 10610  0000                     	
 10611                           i2_abs:
 10612  002B40                     ;incstack = 0
 10613                           	opt	stack 13
 10614                           	line	3
 10615                           	
 10616                           i2l2389:
 10617  002B40                     	btfsc	((c:i2abs@a+1)),c,7
 10618  002B40  BE14               	goto	i2u213_40
 10619  002B42  EFAD  F015         	movf	((c:i2abs@a+1)),c,w
 10620  002B46  5014               	bnz	i2u213_41
 10621  002B48  E106               	decf	((c:i2abs@a)),c,w
 10622  002B4A  0413               	btfsc	status,0
 10623  002B4C  B0D8               	goto	i2u213_41
 10624  002B4E  EFAB  F015         	goto	i2u213_40
 10625  002B52  EFAD  F015         
 10626                           i2u213_41:
 10627  002B56                     	goto	i2l964
 10628  002B56  EFBB  F015         i2u213_40:
 10629  002B5A                     	
 10630                           i2l2391:
 10631  002B5A                     	movff	(c:i2abs@a),??i2_abs+0+0
 10632  002B5A  C013  F015         	movff	(c:i2abs@a+1),??i2_abs+0+0+1
 10633  002B5E  C014  F016         	comf	(??i2_abs+0+0),c
 10634  002B62  1E15               	comf	(??i2_abs+0+1),c
 10635  002B64  1E16               	infsnz	(??i2_abs+0+0),c
 10636  002B66  4A15               	incf	(??i2_abs+0+1),c
 10637  002B68  2A16               	movff	??i2_abs+0+0,(c:?i2_abs)
 10638  002B6A  C015  F013         	movff	??i2_abs+0+1,(c:?i2_abs+1)
 10639  002B6E  C016  F014         	goto	i2l967
 10640  002B72  EFC1  F015         	
 10641                           i2l964:
 10642  002B76                     	movff	(c:i2abs@a),(c:?i2_abs)
 10643  002B76  C013  F013         	movff	(c:i2abs@a+1),(c:?i2_abs+1)
 10644  002B7A  C014  F014         	goto	i2l967
 10645  002B7E  EFC1  F015         	
 10646                           i2l966:
 10647  002B82                     	line	4
 10648                           	
 10649                           i2l967:
 10650  002B82                     	return	;funcret
 10651  002B82  0012               	opt stack 0
 10652                           GLOBAL	__end_ofi2_abs
 10653                           	__end_ofi2_abs:
 10654  002B84                     	signat	i2_abs,90
 10655                           	global	i2___aomod
 10656                           
 10657 ;; *************** function i2___aomod *****************
 10658 ;; Defined at:
 10659 ;;		line 9 in file "E:\ProgramasWindowns\Microchip\xc8\v2.00\pic\sources\c99\common\aomod.c"
 10660 ;; Parameters:    Size  Location     Type
 10661 ;;  dividend        8    0[COMRAM] long long 
 10662 ;;  divisor         8    8[COMRAM] long long 
 10663 ;; Auto vars:     Size  Location     Type
 10664 ;;  __aomod         1   17[COMRAM] unsigned char 
 10665 ;;  __aomod         1   16[COMRAM] unsigned char 
 10666 ;; Return value:  Size  Location     Type
 10667 ;;                  8    0[COMRAM] long long 
 10668 ;; Registers used:
 10669 ;;		wreg, status,2, status,0
 10670 ;; Tracked objects:
 10671 ;;		On entry : 0/0
 10672 ;;		On exit  : 0/0
 10673 ;;		Unchanged: 0/0
 10674 ;; Data sizes:     COMRAM   BANK0   BANK1   BANK2   BANK3   BANK4   BANK5
 10675 ;;      Params:        16       0       0       0       0       0       0
 10676 ;;      Locals:         2       0       0       0       0       0       0
 10677 ;;      Temps:          0       0       0       0       0       0       0
 10678 ;;      Totals:        18       0       0       0       0       0       0
 10679 ;;Total ram usage:       18 bytes
 10680 ;; Hardware stack levels used:    1
 10681 ;; This function calls:
 10682 ;;		Nothing
 10683 ;; This function is called by:
 10684 ;;		i2_dtoa
 10685 ;; This function uses a non-reentrant model
 10686 ;;
 10687                           psect	text36,class=CODE,space=0,reloc=2,group=0
 10688                           	file	"E:\ProgramasWindowns\Microchip\xc8\v2.00\pic\sources\c99\common\aomod.c"
 10689                           	line	9
 10690                           global __ptext36
 10691                           __ptext36:
 10692  001E0E                     psect	text36
 10693                           	file	"E:\ProgramasWindowns\Microchip\xc8\v2.00\pic\sources\c99\common\aomod.c"
 10694                           	line	9
 10695                           	global	__size_ofi2___aomod
 10696                           	__size_ofi2___aomod	equ	__end_ofi2___aomod-i2___aomod
 10697  0000                     	
 10698                           i2___aomod:
 10699  001E0E                     ;incstack = 0
 10700                           	opt	stack 13
 10701                           	line	14
 10702                           	
 10703                           i2l2353:
 10704  001E0E                     	movlw	low(0)
 10705  001E0E  0E00               	movwf	((c:i2___aomod@sign)),c
 10706  001E10  6E12               	line	15
 10707                           	
 10708                           i2l2355:
 10709  001E12                     	btfsc	((c:i2___aomod@dividend+7)),c,7
 10710  001E12  BE08               	goto	i2u207_40
 10711  001E14  EF10  F00F         	goto	i2u207_41
 10712  001E18  EF0E  F00F         
 10713                           i2u207_41:
 10714  001E1C                     	goto	i2l2361
 10715  001E1C  EF24  F00F         i2u207_40:
 10716  001E20                     	line	16
 10717                           	
 10718                           i2l2357:
 10719  001E20                     	comf	((c:i2___aomod@dividend+7)),c
 10720  001E20  1E08               	comf	((c:i2___aomod@dividend+6)),c
 10721  001E22  1E07               	comf	((c:i2___aomod@dividend+5)),c
 10722  001E24  1E06               	comf	((c:i2___aomod@dividend+4)),c
 10723  001E26  1E05               	comf	((c:i2___aomod@dividend+3)),c
 10724  001E28  1E04               	comf	((c:i2___aomod@dividend+2)),c
 10725  001E2A  1E03               	comf	((c:i2___aomod@dividend+1)),c
 10726  001E2C  1E02               	negf	((c:i2___aomod@dividend)),c
 10727  001E2E  6C01               	movlw	0
 10728  001E30  0E00               	addwfc	((c:i2___aomod@dividend+1)),c
 10729  001E32  2202               	addwfc	((c:i2___aomod@dividend+2)),c
 10730  001E34  2203               	addwfc	((c:i2___aomod@dividend+3)),c
 10731  001E36  2204               	addwfc	((c:i2___aomod@dividend+4)),c
 10732  001E38  2205               	addwfc	((c:i2___aomod@dividend+5)),c
 10733  001E3A  2206               	addwfc	((c:i2___aomod@dividend+6)),c
 10734  001E3C  2207               	addwfc	((c:i2___aomod@dividend+7)),c
 10735  001E3E  2208               	line	17
 10736                           	
 10737                           i2l2359:
 10738  001E40                     	movlw	low(01h)
 10739  001E40  0E01               	movwf	((c:i2___aomod@sign)),c
 10740  001E42  6E12               	goto	i2l2361
 10741  001E44  EF24  F00F         	line	18
 10742                           	
 10743                           i2l406:
 10744  001E48                     	line	19
 10745                           	
 10746                           i2l2361:
 10747  001E48                     	btfsc	((c:i2___aomod@divisor+7)),c,7
 10748  001E48  BE10               	goto	i2u208_40
 10749  001E4A  EF2B  F00F         	goto	i2u208_41
 10750  001E4E  EF29  F00F         
 10751                           i2u208_41:
 10752  001E52                     	goto	i2l2365
 10753  001E52  EF3D  F00F         i2u208_40:
 10754  001E56                     	line	20
 10755                           	
 10756                           i2l2363:
 10757  001E56                     	comf	((c:i2___aomod@divisor+7)),c
 10758  001E56  1E10               	comf	((c:i2___aomod@divisor+6)),c
 10759  001E58  1E0F               	comf	((c:i2___aomod@divisor+5)),c
 10760  001E5A  1E0E               	comf	((c:i2___aomod@divisor+4)),c
 10761  001E5C  1E0D               	comf	((c:i2___aomod@divisor+3)),c
 10762  001E5E  1E0C               	comf	((c:i2___aomod@divisor+2)),c
 10763  001E60  1E0B               	comf	((c:i2___aomod@divisor+1)),c
 10764  001E62  1E0A               	negf	((c:i2___aomod@divisor)),c
 10765  001E64  6C09               	movlw	0
 10766  001E66  0E00               	addwfc	((c:i2___aomod@divisor+1)),c
 10767  001E68  220A               	addwfc	((c:i2___aomod@divisor+2)),c
 10768  001E6A  220B               	addwfc	((c:i2___aomod@divisor+3)),c
 10769  001E6C  220C               	addwfc	((c:i2___aomod@divisor+4)),c
 10770  001E6E  220D               	addwfc	((c:i2___aomod@divisor+5)),c
 10771  001E70  220E               	addwfc	((c:i2___aomod@divisor+6)),c
 10772  001E72  220F               	addwfc	((c:i2___aomod@divisor+7)),c
 10773  001E74  2210               	goto	i2l2365
 10774  001E76  EF3D  F00F         	
 10775                           i2l407:
 10776  001E7A                     	line	21
 10777                           	
 10778                           i2l2365:
 10779  001E7A                     	movf	((c:i2___aomod@divisor)),c,w
 10780  001E7A  5009               iorwf	((c:i2___aomod@divisor+1)),c,w
 10781  001E7C  100A               iorwf	((c:i2___aomod@divisor+2)),c,w
 10782  001E7E  100B               iorwf	((c:i2___aomod@divisor+3)),c,w
 10783  001E80  100C               iorwf	((c:i2___aomod@divisor+4)),c,w
 10784  001E82  100D               iorwf	((c:i2___aomod@divisor+5)),c,w
 10785  001E84  100E               iorwf	((c:i2___aomod@divisor+6)),c,w
 10786  001E86  100F               iorwf	((c:i2___aomod@divisor+7)),c,w
 10787  001E88  1010               	btfsc	status,2
 10788  001E8A  B4D8               	goto	i2u209_41
 10789  001E8C  EF4A  F00F         	goto	i2u209_40
 10790  001E90  EF4C  F00F         
 10791                           i2u209_41:
 10792  001E94                     	goto	i2l2381
 10793  001E94  EFA0  F00F         i2u209_40:
 10794  001E98                     	line	22
 10795                           	
 10796                           i2l2367:
 10797  001E98                     	movlw	low(01h)
 10798  001E98  0E01               	movwf	((c:i2___aomod@counter)),c
 10799  001E9A  6E11               	line	23
 10800                           	goto	i2l2371
 10801  001E9C  EF5C  F00F         	
 10802                           i2l410:
 10803  001EA0                     	line	24
 10804                           	
 10805                           i2l2369:
 10806  001EA0                     	bcf	status,0
 10807  001EA0  90D8               	rlcf	((c:i2___aomod@divisor)),c
 10808  001EA2  3609               	rlcf	((c:i2___aomod@divisor+1)),c
 10809  001EA4  360A               	rlcf	((c:i2___aomod@divisor+2)),c
 10810  001EA6  360B               	rlcf	((c:i2___aomod@divisor+3)),c
 10811  001EA8  360C               	rlcf	((c:i2___aomod@divisor+4)),c
 10812  001EAA  360D               	rlcf	((c:i2___aomod@divisor+5)),c
 10813  001EAC  360E               	rlcf	((c:i2___aomod@divisor+6)),c
 10814  001EAE  360F               	rlcf	((c:i2___aomod@divisor+7)),c
 10815  001EB0  3610               	line	25
 10816                           	incf	((c:i2___aomod@counter)),c
 10817  001EB2  2A11               	goto	i2l2371
 10818  001EB4  EF5C  F00F         	line	26
 10819                           	
 10820                           i2l409:
 10821  001EB8                     	line	23
 10822                           	
 10823                           i2l2371:
 10824  001EB8                     	
 10825                           	btfss	((c:i2___aomod@divisor+7)),c,(63)&7
 10826  001EB8  AE10               	goto	i2u210_41
 10827  001EBA  EF61  F00F         	goto	i2u210_40
 10828  001EBE  EF63  F00F         i2u210_41:
 10829  001EC2                     	goto	i2l2369
 10830  001EC2  EF50  F00F         i2u210_40:
 10831  001EC6                     	goto	i2l2373
 10832  001EC6  EF67  F00F         	
 10833                           i2l411:
 10834  001ECA                     	goto	i2l2373
 10835  001ECA  EF67  F00F         	line	27
 10836                           	
 10837                           i2l412:
 10838  001ECE                     	line	28
 10839                           	
 10840                           i2l2373:
 10841  001ECE                     		movf	((c:i2___aomod@divisor)),c,w
 10842  001ECE  5009               	subwf	((c:i2___aomod@dividend)),c,w
 10843  001ED0  5C01               	movf	((c:i2___aomod@divisor+1)),c,w
 10844  001ED2  500A               	subwfb	((c:i2___aomod@dividend+1)),c,w
 10845  001ED4  5802               	movf	((c:i2___aomod@divisor+2)),c,w
 10846  001ED6  500B               	subwfb	((c:i2___aomod@dividend+2)),c,w
 10847  001ED8  5803               	movf	((c:i2___aomod@divisor+3)),c,w
 10848  001EDA  500C               	subwfb	((c:i2___aomod@dividend+3)),c,w
 10849  001EDC  5804               	movf	((c:i2___aomod@divisor+4)),c,w
 10850  001EDE  500D               	subwfb	((c:i2___aomod@dividend+4)),c,w
 10851  001EE0  5805               	movf	((c:i2___aomod@divisor+5)),c,w
 10852  001EE2  500E               	subwfb	((c:i2___aomod@dividend+5)),c,w
 10853  001EE4  5806               	movf	((c:i2___aomod@divisor+6)),c,w
 10854  001EE6  500F               	subwfb	((c:i2___aomod@dividend+6)),c,w
 10855  001EE8  5807               	movf	((c:i2___aomod@divisor+7)),c,w
 10856  001EEA  5010               	subwfb	((c:i2___aomod@dividend+7)),c,w
 10857  001EEC  5808               	btfss	status,0
 10858  001EEE  A0D8               	goto	i2u211_41
 10859  001EF0  EF7C  F00F         	goto	i2u211_40
 10860  001EF4  EF7E  F00F         
 10861                           i2u211_41:
 10862  001EF8                     	goto	i2l2377
 10863  001EF8  EF90  F00F         i2u211_40:
 10864  001EFC                     	line	29
 10865                           	
 10866                           i2l2375:
 10867  001EFC                     	movf	((c:i2___aomod@divisor)),c,w
 10868  001EFC  5009               	subwf	((c:i2___aomod@dividend)),c
 10869  001EFE  5E01               	movf	((c:i2___aomod@divisor+1)),c,w
 10870  001F00  500A               	subwfb	((c:i2___aomod@dividend+1)),c
 10871  001F02  5A02               	movf	((c:i2___aomod@divisor+2)),c,w
 10872  001F04  500B               	subwfb	((c:i2___aomod@dividend+2)),c
 10873  001F06  5A03               	movf	((c:i2___aomod@divisor+3)),c,w
 10874  001F08  500C               	subwfb	((c:i2___aomod@dividend+3)),c
 10875  001F0A  5A04               	movf	((c:i2___aomod@divisor+4)),c,w
 10876  001F0C  500D               	subwfb	((c:i2___aomod@dividend+4)),c
 10877  001F0E  5A05               	movf	((c:i2___aomod@divisor+5)),c,w
 10878  001F10  500E               	subwfb	((c:i2___aomod@dividend+5)),c
 10879  001F12  5A06               	movf	((c:i2___aomod@divisor+6)),c,w
 10880  001F14  500F               	subwfb	((c:i2___aomod@dividend+6)),c
 10881  001F16  5A07               	movf	((c:i2___aomod@divisor+7)),c,w
 10882  001F18  5010               	subwfb	((c:i2___aomod@dividend+7)),c
 10883  001F1A  5A08               	goto	i2l2377
 10884  001F1C  EF90  F00F         	
 10885                           i2l413:
 10886  001F20                     	line	30
 10887                           	
 10888                           i2l2377:
 10889  001F20                     	bcf	status,0
 10890  001F20  90D8               	rrcf	((c:i2___aomod@divisor+7)),c
 10891  001F22  3210               	rrcf	((c:i2___aomod@divisor+6)),c
 10892  001F24  320F               	rrcf	((c:i2___aomod@divisor+5)),c
 10893  001F26  320E               	rrcf	((c:i2___aomod@divisor+4)),c
 10894  001F28  320D               	rrcf	((c:i2___aomod@divisor+3)),c
 10895  001F2A  320C               	rrcf	((c:i2___aomod@divisor+2)),c
 10896  001F2C  320B               	rrcf	((c:i2___aomod@divisor+1)),c
 10897  001F2E  320A               	rrcf	((c:i2___aomod@divisor)),c
 10898  001F30  3209               	line	31
 10899                           	
 10900                           i2l2379:
 10901  001F32                     	decfsz	((c:i2___aomod@counter)),c
 10902  001F32  2E11               	
 10903                           	goto	i2l2373
 10904  001F34  EF67  F00F         	goto	i2l2381
 10905  001F38  EFA0  F00F         	
 10906                           i2l414:
 10907  001F3C                     	goto	i2l2381
 10908  001F3C  EFA0  F00F         	line	32
 10909                           	
 10910                           i2l408:
 10911  001F40                     	line	33
 10912                           	
 10913                           i2l2381:
 10914  001F40                     	movf	((c:i2___aomod@sign)),c,w
 10915  001F40  5012               	btfsc	status,2
 10916  001F42  B4D8               	goto	i2u212_41
 10917  001F44  EFA6  F00F         	goto	i2u212_40
 10918  001F48  EFA8  F00F         i2u212_41:
 10919  001F4C                     	goto	i2l2385
 10920  001F4C  EFBA  F00F         i2u212_40:
 10921  001F50                     	line	34
 10922                           	
 10923                           i2l2383:
 10924  001F50                     	comf	((c:i2___aomod@dividend+7)),c
 10925  001F50  1E08               	comf	((c:i2___aomod@dividend+6)),c
 10926  001F52  1E07               	comf	((c:i2___aomod@dividend+5)),c
 10927  001F54  1E06               	comf	((c:i2___aomod@dividend+4)),c
 10928  001F56  1E05               	comf	((c:i2___aomod@dividend+3)),c
 10929  001F58  1E04               	comf	((c:i2___aomod@dividend+2)),c
 10930  001F5A  1E03               	comf	((c:i2___aomod@dividend+1)),c
 10931  001F5C  1E02               	negf	((c:i2___aomod@dividend)),c
 10932  001F5E  6C01               	movlw	0
 10933  001F60  0E00               	addwfc	((c:i2___aomod@dividend+1)),c
 10934  001F62  2202               	addwfc	((c:i2___aomod@dividend+2)),c
 10935  001F64  2203               	addwfc	((c:i2___aomod@dividend+3)),c
 10936  001F66  2204               	addwfc	((c:i2___aomod@dividend+4)),c
 10937  001F68  2205               	addwfc	((c:i2___aomod@dividend+5)),c
 10938  001F6A  2206               	addwfc	((c:i2___aomod@dividend+6)),c
 10939  001F6C  2207               	addwfc	((c:i2___aomod@dividend+7)),c
 10940  001F6E  2208               	goto	i2l2385
 10941  001F70  EFBA  F00F         	
 10942                           i2l415:
 10943  001F74                     	line	35
 10944                           	
 10945                           i2l2385:
 10946  001F74                     	movff	(c:i2___aomod@dividend),(c:?i2___aomod)
 10947  001F74  C001  F001         	movff	(c:i2___aomod@dividend+1),(c:?i2___aomod+1)
 10948  001F78  C002  F002         	movff	(c:i2___aomod@dividend+2),(c:?i2___aomod+2)
 10949  001F7C  C003  F003         	movff	(c:i2___aomod@dividend+3),(c:?i2___aomod+3)
 10950  001F80  C004  F004         	movff	(c:i2___aomod@dividend+4),(c:?i2___aomod+4)
 10951  001F84  C005  F005         	movff	(c:i2___aomod@dividend+5),(c:?i2___aomod+5)
 10952  001F88  C006  F006         	movff	(c:i2___aomod@dividend+6),(c:?i2___aomod+6)
 10953  001F8C  C007  F007         	movff	(c:i2___aomod@dividend+7),(c:?i2___aomod+7)
 10954  001F90  C008  F008         	goto	i2l416
 10955  001F94  EFCC  F00F         	
 10956                           i2l2387:
 10957  001F98                     	line	36
 10958                           	
 10959                           i2l416:
 10960  001F98                     	return	;funcret
 10961  001F98  0012               	opt stack 0
 10962                           GLOBAL	__end_ofi2___aomod
 10963                           	__end_ofi2___aomod:
 10964  001F9A                     	signat	i2___aomod,95
 10965                           	global	i2___aodiv
 10966                           
 10967 ;; *************** function i2___aodiv *****************
 10968 ;; Defined at:
 10969 ;;		line 9 in file "E:\ProgramasWindowns\Microchip\xc8\v2.00\pic\sources\c99\common\aodiv.c"
 10970 ;; Parameters:    Size  Location     Type
 10971 ;;  dividend        8    0[COMRAM] long long 
 10972 ;;  divisor         8    8[COMRAM] long long 
 10973 ;; Auto vars:     Size  Location     Type
 10974 ;;  __aodiv         8   18[COMRAM] long long 
 10975 ;;  __aodiv         1   17[COMRAM] unsigned char 
 10976 ;;  __aodiv         1   16[COMRAM] unsigned char 
 10977 ;; Return value:  Size  Location     Type
 10978 ;;                  8    0[COMRAM] long long 
 10979 ;; Registers used:
 10980 ;;		wreg, fsr2l, fsr2h, status,2, status,0
 10981 ;; Tracked objects:
 10982 ;;		On entry : 0/0
 10983 ;;		On exit  : 0/0
 10984 ;;		Unchanged: 0/0
 10985 ;; Data sizes:     COMRAM   BANK0   BANK1   BANK2   BANK3   BANK4   BANK5
 10986 ;;      Params:        16       0       0       0       0       0       0
 10987 ;;      Locals:        10       0       0       0       0       0       0
 10988 ;;      Temps:          0       0       0       0       0       0       0
 10989 ;;      Totals:        26       0       0       0       0       0       0
 10990 ;;Total ram usage:       26 bytes
 10991 ;; Hardware stack levels used:    1
 10992 ;; This function calls:
 10993 ;;		Nothing
 10994 ;; This function is called by:
 10995 ;;		i2_dtoa
 10996 ;; This function uses a non-reentrant model
 10997 ;;
 10998                           psect	text37,class=CODE,space=0,reloc=2,group=0
 10999                           	file	"E:\ProgramasWindowns\Microchip\xc8\v2.00\pic\sources\c99\common\aodiv.c"
 11000                           	line	9
 11001                           global __ptext37
 11002                           __ptext37:
 11003  001AD0                     psect	text37
 11004                           	file	"E:\ProgramasWindowns\Microchip\xc8\v2.00\pic\sources\c99\common\aodiv.c"
 11005                           	line	9
 11006                           	global	__size_ofi2___aodiv
 11007                           	__size_ofi2___aodiv	equ	__end_ofi2___aodiv-i2___aodiv
 11008  0000                     	
 11009                           i2___aodiv:
 11010  001AD0                     ;incstack = 0
 11011                           	opt	stack 13
 11012                           	line	15
 11013                           	
 11014                           i2l2309:
 11015  001AD0                     	movlw	low(0)
 11016  001AD0  0E00               	movwf	((c:i2___aodiv@sign)),c
 11017  001AD2  6E12               	line	16
 11018                           	
 11019                           i2l2311:
 11020  001AD4                     	btfsc	((c:i2___aodiv@divisor+7)),c,7
 11021  001AD4  BE10               	goto	i2u200_40
 11022  001AD6  EF71  F00D         	goto	i2u200_41
 11023  001ADA  EF6F  F00D         
 11024                           i2u200_41:
 11025  001ADE                     	goto	i2l2317
 11026  001ADE  EF85  F00D         i2u200_40:
 11027  001AE2                     	line	17
 11028                           	
 11029                           i2l2313:
 11030  001AE2                     	comf	((c:i2___aodiv@divisor+7)),c
 11031  001AE2  1E10               	comf	((c:i2___aodiv@divisor+6)),c
 11032  001AE4  1E0F               	comf	((c:i2___aodiv@divisor+5)),c
 11033  001AE6  1E0E               	comf	((c:i2___aodiv@divisor+4)),c
 11034  001AE8  1E0D               	comf	((c:i2___aodiv@divisor+3)),c
 11035  001AEA  1E0C               	comf	((c:i2___aodiv@divisor+2)),c
 11036  001AEC  1E0B               	comf	((c:i2___aodiv@divisor+1)),c
 11037  001AEE  1E0A               	negf	((c:i2___aodiv@divisor)),c
 11038  001AF0  6C09               	movlw	0
 11039  001AF2  0E00               	addwfc	((c:i2___aodiv@divisor+1)),c
 11040  001AF4  220A               	addwfc	((c:i2___aodiv@divisor+2)),c
 11041  001AF6  220B               	addwfc	((c:i2___aodiv@divisor+3)),c
 11042  001AF8  220C               	addwfc	((c:i2___aodiv@divisor+4)),c
 11043  001AFA  220D               	addwfc	((c:i2___aodiv@divisor+5)),c
 11044  001AFC  220E               	addwfc	((c:i2___aodiv@divisor+6)),c
 11045  001AFE  220F               	addwfc	((c:i2___aodiv@divisor+7)),c
 11046  001B00  2210               	line	18
 11047                           	
 11048                           i2l2315:
 11049  001B02                     	movlw	low(01h)
 11050  001B02  0E01               	movwf	((c:i2___aodiv@sign)),c
 11051  001B04  6E12               	goto	i2l2317
 11052  001B06  EF85  F00D         	line	19
 11053                           	
 11054                           i2l393:
 11055  001B0A                     	line	20
 11056                           	
 11057                           i2l2317:
 11058  001B0A                     	btfsc	((c:i2___aodiv@dividend+7)),c,7
 11059  001B0A  BE08               	goto	i2u201_40
 11060  001B0C  EF8C  F00D         	goto	i2u201_41
 11061  001B10  EF8A  F00D         
 11062                           i2u201_41:
 11063  001B14                     	goto	i2l2323
 11064  001B14  EFA0  F00D         i2u201_40:
 11065  001B18                     	line	21
 11066                           	
 11067                           i2l2319:
 11068  001B18                     	comf	((c:i2___aodiv@dividend+7)),c
 11069  001B18  1E08               	comf	((c:i2___aodiv@dividend+6)),c
 11070  001B1A  1E07               	comf	((c:i2___aodiv@dividend+5)),c
 11071  001B1C  1E06               	comf	((c:i2___aodiv@dividend+4)),c
 11072  001B1E  1E05               	comf	((c:i2___aodiv@dividend+3)),c
 11073  001B20  1E04               	comf	((c:i2___aodiv@dividend+2)),c
 11074  001B22  1E03               	comf	((c:i2___aodiv@dividend+1)),c
 11075  001B24  1E02               	negf	((c:i2___aodiv@dividend)),c
 11076  001B26  6C01               	movlw	0
 11077  001B28  0E00               	addwfc	((c:i2___aodiv@dividend+1)),c
 11078  001B2A  2202               	addwfc	((c:i2___aodiv@dividend+2)),c
 11079  001B2C  2203               	addwfc	((c:i2___aodiv@dividend+3)),c
 11080  001B2E  2204               	addwfc	((c:i2___aodiv@dividend+4)),c
 11081  001B30  2205               	addwfc	((c:i2___aodiv@dividend+5)),c
 11082  001B32  2206               	addwfc	((c:i2___aodiv@dividend+6)),c
 11083  001B34  2207               	addwfc	((c:i2___aodiv@dividend+7)),c
 11084  001B36  2208               	line	22
 11085                           	
 11086                           i2l2321:
 11087  001B38                     	movlw	(01h)&0ffh
 11088  001B38  0E01               	xorwf	((c:i2___aodiv@sign)),c
 11089  001B3A  1A12               	goto	i2l2323
 11090  001B3C  EFA0  F00D         	line	23
 11091                           	
 11092                           i2l394:
 11093  001B40                     	line	24
 11094                           	
 11095                           i2l2323:
 11096  001B40                     	lfsr	2,(i2___aodiv@quotient)
 11097  001B40  EE20  F013         	movlw	8-1
 11098  001B44  0E07               i2u202_41:
 11099  001B46                     	clrf	postinc2
 11100  001B46  6ADE               	decf	wreg
 11101  001B48  06E8               	bc	i2u202_41
 11102  001B4A  E2FD               	line	25
 11103                           	
 11104                           i2l2325:
 11105  001B4C                     	movf	((c:i2___aodiv@divisor)),c,w
 11106  001B4C  5009               iorwf	((c:i2___aodiv@divisor+1)),c,w
 11107  001B4E  100A               iorwf	((c:i2___aodiv@divisor+2)),c,w
 11108  001B50  100B               iorwf	((c:i2___aodiv@divisor+3)),c,w
 11109  001B52  100C               iorwf	((c:i2___aodiv@divisor+4)),c,w
 11110  001B54  100D               iorwf	((c:i2___aodiv@divisor+5)),c,w
 11111  001B56  100E               iorwf	((c:i2___aodiv@divisor+6)),c,w
 11112  001B58  100F               iorwf	((c:i2___aodiv@divisor+7)),c,w
 11113  001B5A  1010               	btfsc	status,2
 11114  001B5C  B4D8               	goto	i2u203_41
 11115  001B5E  EFB3  F00D         	goto	i2u203_40
 11116  001B62  EFB5  F00D         
 11117                           i2u203_41:
 11118  001B66                     	goto	i2l2345
 11119  001B66  EF13  F00E         i2u203_40:
 11120  001B6A                     	line	26
 11121                           	
 11122                           i2l2327:
 11123  001B6A                     	movlw	low(01h)
 11124  001B6A  0E01               	movwf	((c:i2___aodiv@counter)),c
 11125  001B6C  6E11               	line	27
 11126                           	goto	i2l2331
 11127  001B6E  EFC5  F00D         	
 11128                           i2l397:
 11129  001B72                     	line	28
 11130                           	
 11131                           i2l2329:
 11132  001B72                     	bcf	status,0
 11133  001B72  90D8               	rlcf	((c:i2___aodiv@divisor)),c
 11134  001B74  3609               	rlcf	((c:i2___aodiv@divisor+1)),c
 11135  001B76  360A               	rlcf	((c:i2___aodiv@divisor+2)),c
 11136  001B78  360B               	rlcf	((c:i2___aodiv@divisor+3)),c
 11137  001B7A  360C               	rlcf	((c:i2___aodiv@divisor+4)),c
 11138  001B7C  360D               	rlcf	((c:i2___aodiv@divisor+5)),c
 11139  001B7E  360E               	rlcf	((c:i2___aodiv@divisor+6)),c
 11140  001B80  360F               	rlcf	((c:i2___aodiv@divisor+7)),c
 11141  001B82  3610               	line	29
 11142                           	incf	((c:i2___aodiv@counter)),c
 11143  001B84  2A11               	goto	i2l2331
 11144  001B86  EFC5  F00D         	line	30
 11145                           	
 11146                           i2l396:
 11147  001B8A                     	line	27
 11148                           	
 11149                           i2l2331:
 11150  001B8A                     	
 11151                           	btfss	((c:i2___aodiv@divisor+7)),c,(63)&7
 11152  001B8A  AE10               	goto	i2u204_41
 11153  001B8C  EFCA  F00D         	goto	i2u204_40
 11154  001B90  EFCC  F00D         i2u204_41:
 11155  001B94                     	goto	i2l2329
 11156  001B94  EFB9  F00D         i2u204_40:
 11157  001B98                     	goto	i2l2333
 11158  001B98  EFD0  F00D         	
 11159                           i2l398:
 11160  001B9C                     	goto	i2l2333
 11161  001B9C  EFD0  F00D         	line	31
 11162                           	
 11163                           i2l399:
 11164  001BA0                     	line	32
 11165                           	
 11166                           i2l2333:
 11167  001BA0                     	bcf	status,0
 11168  001BA0  90D8               	rlcf	((c:i2___aodiv@quotient)),c
 11169  001BA2  3613               	rlcf	((c:i2___aodiv@quotient+1)),c
 11170  001BA4  3614               	rlcf	((c:i2___aodiv@quotient+2)),c
 11171  001BA6  3615               	rlcf	((c:i2___aodiv@quotient+3)),c
 11172  001BA8  3616               	rlcf	((c:i2___aodiv@quotient+4)),c
 11173  001BAA  3617               	rlcf	((c:i2___aodiv@quotient+5)),c
 11174  001BAC  3618               	rlcf	((c:i2___aodiv@quotient+6)),c
 11175  001BAE  3619               	rlcf	((c:i2___aodiv@quotient+7)),c
 11176  001BB0  361A               	line	33
 11177                           	
 11178                           i2l2335:
 11179  001BB2                     		movf	((c:i2___aodiv@divisor)),c,w
 11180  001BB2  5009               	subwf	((c:i2___aodiv@dividend)),c,w
 11181  001BB4  5C01               	movf	((c:i2___aodiv@divisor+1)),c,w
 11182  001BB6  500A               	subwfb	((c:i2___aodiv@dividend+1)),c,w
 11183  001BB8  5802               	movf	((c:i2___aodiv@divisor+2)),c,w
 11184  001BBA  500B               	subwfb	((c:i2___aodiv@dividend+2)),c,w
 11185  001BBC  5803               	movf	((c:i2___aodiv@divisor+3)),c,w
 11186  001BBE  500C               	subwfb	((c:i2___aodiv@dividend+3)),c,w
 11187  001BC0  5804               	movf	((c:i2___aodiv@divisor+4)),c,w
 11188  001BC2  500D               	subwfb	((c:i2___aodiv@dividend+4)),c,w
 11189  001BC4  5805               	movf	((c:i2___aodiv@divisor+5)),c,w
 11190  001BC6  500E               	subwfb	((c:i2___aodiv@dividend+5)),c,w
 11191  001BC8  5806               	movf	((c:i2___aodiv@divisor+6)),c,w
 11192  001BCA  500F               	subwfb	((c:i2___aodiv@dividend+6)),c,w
 11193  001BCC  5807               	movf	((c:i2___aodiv@divisor+7)),c,w
 11194  001BCE  5010               	subwfb	((c:i2___aodiv@dividend+7)),c,w
 11195  001BD0  5808               	btfss	status,0
 11196  001BD2  A0D8               	goto	i2u205_41
 11197  001BD4  EFEE  F00D         	goto	i2u205_40
 11198  001BD8  EFF0  F00D         
 11199                           i2u205_41:
 11200  001BDC                     	goto	i2l2341
 11201  001BDC  EF03  F00E         i2u205_40:
 11202  001BE0                     	line	34
 11203                           	
 11204                           i2l2337:
 11205  001BE0                     	movf	((c:i2___aodiv@divisor)),c,w
 11206  001BE0  5009               	subwf	((c:i2___aodiv@dividend)),c
 11207  001BE2  5E01               	movf	((c:i2___aodiv@divisor+1)),c,w
 11208  001BE4  500A               	subwfb	((c:i2___aodiv@dividend+1)),c
 11209  001BE6  5A02               	movf	((c:i2___aodiv@divisor+2)),c,w
 11210  001BE8  500B               	subwfb	((c:i2___aodiv@dividend+2)),c
 11211  001BEA  5A03               	movf	((c:i2___aodiv@divisor+3)),c,w
 11212  001BEC  500C               	subwfb	((c:i2___aodiv@dividend+3)),c
 11213  001BEE  5A04               	movf	((c:i2___aodiv@divisor+4)),c,w
 11214  001BF0  500D               	subwfb	((c:i2___aodiv@dividend+4)),c
 11215  001BF2  5A05               	movf	((c:i2___aodiv@divisor+5)),c,w
 11216  001BF4  500E               	subwfb	((c:i2___aodiv@dividend+5)),c
 11217  001BF6  5A06               	movf	((c:i2___aodiv@divisor+6)),c,w
 11218  001BF8  500F               	subwfb	((c:i2___aodiv@dividend+6)),c
 11219  001BFA  5A07               	movf	((c:i2___aodiv@divisor+7)),c,w
 11220  001BFC  5010               	subwfb	((c:i2___aodiv@dividend+7)),c
 11221  001BFE  5A08               	line	35
 11222                           	
 11223                           i2l2339:
 11224  001C00                     	bsf	(0+(0/8)+(c:i2___aodiv@quotient)),c,(0)&7
 11225  001C00  8013               	goto	i2l2341
 11226  001C02  EF03  F00E         	line	36
 11227                           	
 11228                           i2l400:
 11229  001C06                     	line	37
 11230                           	
 11231                           i2l2341:
 11232  001C06                     	bcf	status,0
 11233  001C06  90D8               	rrcf	((c:i2___aodiv@divisor+7)),c
 11234  001C08  3210               	rrcf	((c:i2___aodiv@divisor+6)),c
 11235  001C0A  320F               	rrcf	((c:i2___aodiv@divisor+5)),c
 11236  001C0C  320E               	rrcf	((c:i2___aodiv@divisor+4)),c
 11237  001C0E  320D               	rrcf	((c:i2___aodiv@divisor+3)),c
 11238  001C10  320C               	rrcf	((c:i2___aodiv@divisor+2)),c
 11239  001C12  320B               	rrcf	((c:i2___aodiv@divisor+1)),c
 11240  001C14  320A               	rrcf	((c:i2___aodiv@divisor)),c
 11241  001C16  3209               	line	38
 11242                           	
 11243                           i2l2343:
 11244  001C18                     	decfsz	((c:i2___aodiv@counter)),c
 11245  001C18  2E11               	
 11246                           	goto	i2l2333
 11247  001C1A  EFD0  F00D         	goto	i2l2345
 11248  001C1E  EF13  F00E         	
 11249                           i2l401:
 11250  001C22                     	goto	i2l2345
 11251  001C22  EF13  F00E         	line	39
 11252                           	
 11253                           i2l395:
 11254  001C26                     	line	40
 11255                           	
 11256                           i2l2345:
 11257  001C26                     	movf	((c:i2___aodiv@sign)),c,w
 11258  001C26  5012               	btfsc	status,2
 11259  001C28  B4D8               	goto	i2u206_41
 11260  001C2A  EF19  F00E         	goto	i2u206_40
 11261  001C2E  EF1B  F00E         i2u206_41:
 11262  001C32                     	goto	i2l2349
 11263  001C32  EF2D  F00E         i2u206_40:
 11264  001C36                     	line	41
 11265                           	
 11266                           i2l2347:
 11267  001C36                     	comf	((c:i2___aodiv@quotient+7)),c
 11268  001C36  1E1A               	comf	((c:i2___aodiv@quotient+6)),c
 11269  001C38  1E19               	comf	((c:i2___aodiv@quotient+5)),c
 11270  001C3A  1E18               	comf	((c:i2___aodiv@quotient+4)),c
 11271  001C3C  1E17               	comf	((c:i2___aodiv@quotient+3)),c
 11272  001C3E  1E16               	comf	((c:i2___aodiv@quotient+2)),c
 11273  001C40  1E15               	comf	((c:i2___aodiv@quotient+1)),c
 11274  001C42  1E14               	negf	((c:i2___aodiv@quotient)),c
 11275  001C44  6C13               	movlw	0
 11276  001C46  0E00               	addwfc	((c:i2___aodiv@quotient+1)),c
 11277  001C48  2214               	addwfc	((c:i2___aodiv@quotient+2)),c
 11278  001C4A  2215               	addwfc	((c:i2___aodiv@quotient+3)),c
 11279  001C4C  2216               	addwfc	((c:i2___aodiv@quotient+4)),c
 11280  001C4E  2217               	addwfc	((c:i2___aodiv@quotient+5)),c
 11281  001C50  2218               	addwfc	((c:i2___aodiv@quotient+6)),c
 11282  001C52  2219               	addwfc	((c:i2___aodiv@quotient+7)),c
 11283  001C54  221A               	goto	i2l2349
 11284  001C56  EF2D  F00E         	
 11285                           i2l402:
 11286  001C5A                     	line	42
 11287                           	
 11288                           i2l2349:
 11289  001C5A                     	movff	(c:i2___aodiv@quotient),(c:?i2___aodiv)
 11290  001C5A  C013  F001         	movff	(c:i2___aodiv@quotient+1),(c:?i2___aodiv+1)
 11291  001C5E  C014  F002         	movff	(c:i2___aodiv@quotient+2),(c:?i2___aodiv+2)
 11292  001C62  C015  F003         	movff	(c:i2___aodiv@quotient+3),(c:?i2___aodiv+3)
 11293  001C66  C016  F004         	movff	(c:i2___aodiv@quotient+4),(c:?i2___aodiv+4)
 11294  001C6A  C017  F005         	movff	(c:i2___aodiv@quotient+5),(c:?i2___aodiv+5)
 11295  001C6E  C018  F006         	movff	(c:i2___aodiv@quotient+6),(c:?i2___aodiv+6)
 11296  001C72  C019  F007         	movff	(c:i2___aodiv@quotient+7),(c:?i2___aodiv+7)
 11297  001C76  C01A  F008         	goto	i2l403
 11298  001C7A  EF3F  F00E         	
 11299                           i2l2351:
 11300  001C7E                     	line	43
 11301                           	
 11302                           i2l403:
 11303  001C7E                     	return	;funcret
 11304  001C7E  0012               	opt stack 0
 11305                           GLOBAL	__end_ofi2___aodiv
 11306                           	__end_ofi2___aodiv:
 11307  001C80                     	signat	i2___aodiv,95
 11308                           	global	i2_escreve2
 11309                           
 11310 ;; *************** function i2_escreve2 *****************
 11311 ;; Defined at:
 11312 ;;		line 251 in file "comunica.c"
 11313 ;; Parameters:    Size  Location     Type
 11314 ;;		None
 11315 ;; Auto vars:     Size  Location     Type
 11316 ;;		None
 11317 ;; Return value:  Size  Location     Type
 11318 ;;                  1    wreg      void 
 11319 ;; Registers used:
 11320 ;;		wreg, fsr1l, fsr1h, status,2, status,0, tblptrl, tblptrh, tblptru, cstack
 11321 ;; Tracked objects:
 11322 ;;		On entry : 0/0
 11323 ;;		On exit  : 0/0
 11324 ;;		Unchanged: 0/0
 11325 ;; Data sizes:     COMRAM   BANK0   BANK1   BANK2   BANK3   BANK4   BANK5
 11326 ;;      Params:         0       0       0       0       0       0       0
 11327 ;;      Locals:         0       0       0       0       0       0       0
 11328 ;;      Temps:          0       0       0       0       0       0       0
 11329 ;;      Totals:         0       0       0       0       0       0       0
 11330 ;;Total ram usage:        0 bytes
 11331 ;; Hardware stack levels used:    1
 11332 ;; Hardware stack levels required when called:    2
 11333 ;; This function calls:
 11334 ;;		i2_lcd_clear
 11335 ;;		i2_lcd_goto
 11336 ;;		i2_lcd_puts
 11337 ;; This function is called by:
 11338 ;;		i2_tempo1
 11339 ;; This function uses a non-reentrant model
 11340 ;;
 11341                           psect	text38,class=CODE,space=0,reloc=2,group=0
 11342                           	file	"comunica.c"
 11343                           	line	251
 11344                           global __ptext38
 11345                           __ptext38:
 11346  002BC6                     psect	text38
 11347                           	file	"comunica.c"
 11348                           	line	251
 11349                           	global	__size_ofi2_escreve2
 11350                           	__size_ofi2_escreve2	equ	__end_ofi2_escreve2-i2_escreve2
 11351  0000                     	
 11352                           i2_escreve2:
 11353  002BC6                     ;incstack = 0
 11354                           	opt	stack 15
 11355                           	line	254
 11356                           	
 11357                           i2l2695:
 11358  002BC6                     ;comunica.c: 254:     lcd_clear();
 11359                           	call	i2_lcd_clear	;wreg free
 11360  002BC6  EC51  F016         	line	255
 11361                           	
 11362                           i2l2697:
 11363  002BCA                     ;comunica.c: 255:     lcd_goto (0);
 11364                           	movlw	(0)&0ffh
 11365  002BCA  0E00               	
 11366                           	call	i2_lcd_goto
 11367  002BCC  EC7B  F016         	line	256
 11368                           	
 11369                           i2l2699:
 11370  002BD0                     ;comunica.c: 256:     lcd_puts ( "Estado:");
 11371                           		movlw	low(STR_13)
 11372  002BD0  0E1D               	movwf	((c:i2lcd_puts@s)),c
 11373  002BD2  6E02               	movlw	high(STR_13)
 11374  002BD4  0E06               	movwf	((c:i2lcd_puts@s+1)),c
 11375  002BD6  6E03               
 11376                           	call	i2_lcd_puts	;wreg free
 11377  002BD8  ECC0  F013         	line	257
 11378                           	
 11379                           i2l2701:
 11380  002BDC                     ;comunica.c: 257:     lcd_puts (estadoMes);
 11381                           		movlw	low(_estadoMes)
 11382  002BDC  0E20               	movwf	((c:i2lcd_puts@s)),c
 11383  002BDE  6E02               	movlw	high(_estadoMes)
 11384  002BE0  0E01               	movwf	((c:i2lcd_puts@s+1)),c
 11385  002BE2  6E03               
 11386                           	call	i2_lcd_puts	;wreg free
 11387  002BE4  ECC0  F013         	line	258
 11388                           	
 11389                           i2l2703:
 11390  002BE8                     ;comunica.c: 258:     lcd_goto (40);
 11391                           	movlw	(028h)&0ffh
 11392  002BE8  0E28               	
 11393                           	call	i2_lcd_goto
 11394  002BEA  EC7B  F016         	line	259
 11395                           	
 11396                           i2l2705:
 11397  002BEE                     ;comunica.c: 259:     lcd_puts ("Tempo:");
 11398                           		movlw	low(STR_14)
 11399  002BEE  0E25               	movwf	((c:i2lcd_puts@s)),c
 11400  002BF0  6E02               	movlw	high(STR_14)
 11401  002BF2  0E06               	movwf	((c:i2lcd_puts@s+1)),c
 11402  002BF4  6E03               
 11403                           	call	i2_lcd_puts	;wreg free
 11404  002BF6  ECC0  F013         	line	260
 11405                           	
 11406                           i2l2707:
 11407  002BFA                     ;comunica.c: 260:     lcd_puts (tempoDis);
 11408                           		movlw	low(_tempoDis)
 11409  002BFA  0EF8               	movwf	((c:i2lcd_puts@s)),c
 11410  002BFC  6E02               	movlw	high(_tempoDis)
 11411  002BFE  0E00               	movwf	((c:i2lcd_puts@s+1)),c
 11412  002C00  6E03               
 11413                           	call	i2_lcd_puts	;wreg free
 11414  002C02  ECC0  F013         	line	262
 11415                           	
 11416                           i2l214:
 11417  002C06                     	return	;funcret
 11418  002C06  0012               	opt stack 0
 11419                           GLOBAL	__end_ofi2_escreve2
 11420                           	__end_ofi2_escreve2:
 11421  002C08                     	signat	i2_escreve2,89
 11422                           	global	i2_escreve
 11423                           
 11424 ;; *************** function i2_escreve *****************
 11425 ;; Defined at:
 11426 ;;		line 242 in file "comunica.c"
 11427 ;; Parameters:    Size  Location     Type
 11428 ;;		None
 11429 ;; Auto vars:     Size  Location     Type
 11430 ;;		None
 11431 ;; Return value:  Size  Location     Type
 11432 ;;                  1    wreg      void 
 11433 ;; Registers used:
 11434 ;;		wreg, fsr1l, fsr1h, status,2, status,0, tblptrl, tblptrh, tblptru, cstack
 11435 ;; Tracked objects:
 11436 ;;		On entry : 0/0
 11437 ;;		On exit  : 0/0
 11438 ;;		Unchanged: 0/0
 11439 ;; Data sizes:     COMRAM   BANK0   BANK1   BANK2   BANK3   BANK4   BANK5
 11440 ;;      Params:         0       0       0       0       0       0       0
 11441 ;;      Locals:         0       0       0       0       0       0       0
 11442 ;;      Temps:          0       0       0       0       0       0       0
 11443 ;;      Totals:         0       0       0       0       0       0       0
 11444 ;;Total ram usage:        0 bytes
 11445 ;; Hardware stack levels used:    1
 11446 ;; Hardware stack levels required when called:    2
 11447 ;; This function calls:
 11448 ;;		i2_lcd_clear
 11449 ;;		i2_lcd_goto
 11450 ;;		i2_lcd_puts
 11451 ;; This function is called by:
 11452 ;;		i2_estadosMaquina
 11453 ;; This function uses a non-reentrant model
 11454 ;;
 11455                           psect	text39,class=CODE,space=0,reloc=2,group=0
 11456                           	line	242
 11457                           global __ptext39
 11458                           __ptext39:
 11459  002C62                     psect	text39
 11460                           	file	"comunica.c"
 11461                           	line	242
 11462                           	global	__size_ofi2_escreve
 11463                           	__size_ofi2_escreve	equ	__end_ofi2_escreve-i2_escreve
 11464  0000                     	
 11465                           i2_escreve:
 11466  002C62                     ;incstack = 0
 11467                           	opt	stack 16
 11468                           	line	245
 11469                           	
 11470                           i2l2765:
 11471  002C62                     ;comunica.c: 245:     lcd_clear();
 11472                           	call	i2_lcd_clear	;wreg free
 11473  002C62  EC51  F016         	line	246
 11474                           	
 11475                           i2l2767:
 11476  002C66                     ;comunica.c: 246:     lcd_goto (0);
 11477                           	movlw	(0)&0ffh
 11478  002C66  0E00               	
 11479                           	call	i2_lcd_goto
 11480  002C68  EC7B  F016         	line	247
 11481                           	
 11482                           i2l2769:
 11483  002C6C                     ;comunica.c: 247:     lcd_puts ( "Estado:");
 11484                           		movlw	low(STR_12)
 11485  002C6C  0E1D               	movwf	((c:i2lcd_puts@s)),c
 11486  002C6E  6E02               	movlw	high(STR_12)
 11487  002C70  0E06               	movwf	((c:i2lcd_puts@s+1)),c
 11488  002C72  6E03               
 11489                           	call	i2_lcd_puts	;wreg free
 11490  002C74  ECC0  F013         	line	248
 11491                           	
 11492                           i2l2771:
 11493  002C78                     ;comunica.c: 248:     lcd_puts (estadoMes);
 11494                           		movlw	low(_estadoMes)
 11495  002C78  0E20               	movwf	((c:i2lcd_puts@s)),c
 11496  002C7A  6E02               	movlw	high(_estadoMes)
 11497  002C7C  0E01               	movwf	((c:i2lcd_puts@s+1)),c
 11498  002C7E  6E03               
 11499                           	call	i2_lcd_puts	;wreg free
 11500  002C80  ECC0  F013         	line	250
 11501                           	
 11502                           i2l211:
 11503  002C84                     	return	;funcret
 11504  002C84  0012               	opt stack 0
 11505                           GLOBAL	__end_ofi2_escreve
 11506                           	__end_ofi2_escreve:
 11507  002C86                     	signat	i2_escreve,89
 11508                           	global	i2_lcd_puts
 11509                           
 11510 ;; *************** function i2_lcd_puts *****************
 11511 ;; Defined at:
 11512 ;;		line 62 in file "lcd.c"
 11513 ;; Parameters:    Size  Location     Type
 11514 ;;  s               2    1[COMRAM] PTR const unsigned char 
 11515 ;;		 -> STR_14(7), STR_13(8), STR_12(8), estadoMes(15), 
 11516 ;;		 -> tempoDis(5), 
 11517 ;; Auto vars:     Size  Location     Type
 11518 ;;		None
 11519 ;; Return value:  Size  Location     Type
 11520 ;;                  1    wreg      void 
 11521 ;; Registers used:
 11522 ;;		wreg, fsr1l, fsr1h, status,2, status,0, tblptrl, tblptrh, tblptru, cstack
 11523 ;; Tracked objects:
 11524 ;;		On entry : 0/0
 11525 ;;		On exit  : 0/0
 11526 ;;		Unchanged: 0/0
 11527 ;; Data sizes:     COMRAM   BANK0   BANK1   BANK2   BANK3   BANK4   BANK5
 11528 ;;      Params:         2       0       0       0       0       0       0
 11529 ;;      Locals:         0       0       0       0       0       0       0
 11530 ;;      Temps:          0       0       0       0       0       0       0
 11531 ;;      Totals:         2       0       0       0       0       0       0
 11532 ;;Total ram usage:        2 bytes
 11533 ;; Hardware stack levels used:    1
 11534 ;; Hardware stack levels required when called:    1
 11535 ;; This function calls:
 11536 ;;		i2_lcd_write
 11537 ;; This function is called by:
 11538 ;;		i2_escreve
 11539 ;;		i2_escreve2
 11540 ;; This function uses a non-reentrant model
 11541 ;;
 11542                           psect	text40,class=CODE,space=0,reloc=2,group=0
 11543                           	file	"lcd.c"
 11544                           	line	62
 11545                           global __ptext40
 11546                           __ptext40:
 11547  002780                     psect	text40
 11548                           	file	"lcd.c"
 11549                           	line	62
 11550                           	global	__size_ofi2_lcd_puts
 11551                           	__size_ofi2_lcd_puts	equ	__end_ofi2_lcd_puts-i2_lcd_puts
 11552  0000                     	
 11553                           i2_lcd_puts:
 11554  002780                     ;incstack = 0
 11555                           	opt	stack 15
 11556                           	line	64
 11557                           	
 11558                           i2l2649:
 11559  002780                     ;lcd.c: 62: lcd_puts(const char * s);lcd.c: 63: {;lcd.c: 64:  LE0 = 1;
 11560                           	bsf	c:(31848/8),(31848)&7	;volatile
 11561  002780  808D               	line	65
 11562                           ;lcd.c: 65:  while(*s)
 11563                           	goto	i2l2655
 11564  002782  EFD9  F013         	
 11565                           i2l18:
 11566  002786                     	line	66
 11567                           	
 11568                           i2l2651:
 11569  002786                     ;lcd.c: 66:   lcd_write(*s++);
 11570                           	movff	(c:i2lcd_puts@s),tblptrl
 11571  002786  C002  FFF6         	movff	(c:i2lcd_puts@s+1),tblptrh
 11572  00278A  C003  FFF7         	clrf	tblptru
 11573  00278E  6AF8               	
 11574                           	movlw	high __ramtop-1
 11575  002790  0E05               	cpfsgt	tblptrh
 11576  002792  64F7               	bra	i2u256_47
 11577  002794  D003               	tblrd	*
 11578  002796  0008               	
 11579                           	movf	tablat,w
 11580  002798  50F5               	bra	i2u256_40
 11581  00279A  D005               i2u256_47:
 11582  00279C                     	movff	tblptrl,fsr1l
 11583  00279C  CFF6 FFE1          	movff	tblptrh,fsr1h
 11584  0027A0  CFF7 FFE2          	movf	indf1,w
 11585  0027A4  50E7               i2u256_40:
 11586  0027A6                     	
 11587                           	call	i2_lcd_write
 11588  0027A6  EC68  F016         	
 11589                           i2l2653:
 11590  0027AA                     	infsnz	((c:i2lcd_puts@s)),c
 11591  0027AA  4A02               	incf	((c:i2lcd_puts@s+1)),c
 11592  0027AC  2A03               	goto	i2l2655
 11593  0027AE  EFD9  F013         	
 11594                           i2l17:
 11595  0027B2                     	line	65
 11596                           	
 11597                           i2l2655:
 11598  0027B2                     ;lcd.c: 65:  while(*s)
 11599                           	movff	(c:i2lcd_puts@s),tblptrl
 11600  0027B2  C002  FFF6         	movff	(c:i2lcd_puts@s+1),tblptrh
 11601  0027B6  C003  FFF7         	clrf	tblptru
 11602  0027BA  6AF8               	
 11603                           	movlw	high __ramtop-1
 11604  0027BC  0E05               	cpfsgt	tblptrh
 11605  0027BE  64F7               	bra	i2u257_47
 11606  0027C0  D003               	tblrd	*
 11607  0027C2  0008               	
 11608                           	movf	tablat,w
 11609  0027C4  50F5               	bra	i2u257_40
 11610  0027C6  D005               i2u257_47:
 11611  0027C8                     	movff	tblptrl,fsr1l
 11612  0027C8  CFF6 FFE1          	movff	tblptrh,fsr1h
 11613  0027CC  CFF7 FFE2          	movf	indf1,w
 11614  0027D0  50E7               i2u257_40:
 11615  0027D2                     	iorlw	0
 11616  0027D2  0900               	btfss	status,2
 11617  0027D4  A4D8               	goto	i2u258_41
 11618  0027D6  EFEF  F013         	goto	i2u258_40
 11619  0027DA  EFF1  F013         i2u258_41:
 11620  0027DE                     	goto	i2l2651
 11621  0027DE  EFC3  F013         i2u258_40:
 11622  0027E2                     	goto	i2l20
 11623  0027E2  EFF3  F013         	
 11624                           i2l19:
 11625  0027E6                     	line	67
 11626                           	
 11627                           i2l20:
 11628  0027E6                     	return	;funcret
 11629  0027E6  0012               	opt stack 0
 11630                           GLOBAL	__end_ofi2_lcd_puts
 11631                           	__end_ofi2_lcd_puts:
 11632  0027E8                     	signat	i2_lcd_puts,89
 11633                           	global	i2_lcd_goto
 11634                           
 11635 ;; *************** function i2_lcd_goto *****************
 11636 ;; Defined at:
 11637 ;;		line 84 in file "lcd.c"
 11638 ;; Parameters:    Size  Location     Type
 11639 ;;  pos             1    wreg     unsigned char 
 11640 ;; Auto vars:     Size  Location     Type
 11641 ;;  pos             1    1[COMRAM] unsigned char 
 11642 ;; Return value:  Size  Location     Type
 11643 ;;                  1    wreg      void 
 11644 ;; Registers used:
 11645 ;;		wreg, status,2, status,0, cstack
 11646 ;; Tracked objects:
 11647 ;;		On entry : 0/0
 11648 ;;		On exit  : 0/0
 11649 ;;		Unchanged: 0/0
 11650 ;; Data sizes:     COMRAM   BANK0   BANK1   BANK2   BANK3   BANK4   BANK5
 11651 ;;      Params:         0       0       0       0       0       0       0
 11652 ;;      Locals:         1       0       0       0       0       0       0
 11653 ;;      Temps:          0       0       0       0       0       0       0
 11654 ;;      Totals:         1       0       0       0       0       0       0
 11655 ;;Total ram usage:        1 bytes
 11656 ;; Hardware stack levels used:    1
 11657 ;; Hardware stack levels required when called:    1
 11658 ;; This function calls:
 11659 ;;		i2_lcd_write
 11660 ;; This function is called by:
 11661 ;;		i2_escreve
 11662 ;;		i2_escreve2
 11663 ;; This function uses a non-reentrant model
 11664 ;;
 11665                           psect	text41,class=CODE,space=0,reloc=2,group=0
 11666                           	line	84
 11667                           global __ptext41
 11668                           __ptext41:
 11669  002CF6                     psect	text41
 11670                           	file	"lcd.c"
 11671                           	line	84
 11672                           	global	__size_ofi2_lcd_goto
 11673                           	__size_ofi2_lcd_goto	equ	__end_ofi2_lcd_goto-i2_lcd_goto
 11674  0000                     	
 11675                           i2_lcd_goto:
 11676  002CF6                     ;incstack = 0
 11677                           	opt	stack 15
 11678                           ;i2lcd_goto@pos stored from wreg
 11679                           	movwf	((c:i2lcd_goto@pos)),c
 11680  002CF6  6E02               	line	86
 11681                           	
 11682                           i2l2657:
 11683  002CF8                     ;lcd.c: 84: lcd_goto(unsigned char pos);lcd.c: 85: {;lcd.c: 86:  LE0 = 0;
 11684                           	bcf	c:(31848/8),(31848)&7	;volatile
 11685  002CF8  908D               	line	87
 11686                           	
 11687                           i2l2659:
 11688  002CFA                     ;lcd.c: 87:  lcd_write(0x80+pos);
 11689                           	movf	((c:i2lcd_goto@pos)),c,w
 11690  002CFA  5002               	addlw	low(080h)
 11691  002CFC  0F80               	
 11692                           	call	i2_lcd_write
 11693  002CFE  EC68  F016         	line	88
 11694                           	
 11695                           i2l26:
 11696  002D02                     	return	;funcret
 11697  002D02  0012               	opt stack 0
 11698                           GLOBAL	__end_ofi2_lcd_goto
 11699                           	__end_ofi2_lcd_goto:
 11700  002D04                     	signat	i2_lcd_goto,89
 11701                           	global	i2_lcd_clear
 11702                           
 11703 ;; *************** function i2_lcd_clear *****************
 11704 ;; Defined at:
 11705 ;;		line 52 in file "lcd.c"
 11706 ;; Parameters:    Size  Location     Type
 11707 ;;		None
 11708 ;; Auto vars:     Size  Location     Type
 11709 ;;		None
 11710 ;; Return value:  Size  Location     Type
 11711 ;;                  1    wreg      void 
 11712 ;; Registers used:
 11713 ;;		wreg, status,2, cstack
 11714 ;; Tracked objects:
 11715 ;;		On entry : 0/0
 11716 ;;		On exit  : 0/0
 11717 ;;		Unchanged: 0/0
 11718 ;; Data sizes:     COMRAM   BANK0   BANK1   BANK2   BANK3   BANK4   BANK5
 11719 ;;      Params:         0       0       0       0       0       0       0
 11720 ;;      Locals:         0       0       0       0       0       0       0
 11721 ;;      Temps:          1       0       0       0       0       0       0
 11722 ;;      Totals:         1       0       0       0       0       0       0
 11723 ;;Total ram usage:        1 bytes
 11724 ;; Hardware stack levels used:    1
 11725 ;; Hardware stack levels required when called:    1
 11726 ;; This function calls:
 11727 ;;		i2_lcd_write
 11728 ;; This function is called by:
 11729 ;;		i2_escreve
 11730 ;;		i2_escreve2
 11731 ;; This function uses a non-reentrant model
 11732 ;;
 11733                           psect	text42,class=CODE,space=0,reloc=2,group=0
 11734                           	line	52
 11735                           global __ptext42
 11736                           __ptext42:
 11737  002CA2                     psect	text42
 11738                           	file	"lcd.c"
 11739                           	line	52
 11740                           	global	__size_ofi2_lcd_clear
 11741                           	__size_ofi2_lcd_clear	equ	__end_ofi2_lcd_clear-i2_lcd_clear
 11742  0000                     	
 11743                           i2_lcd_clear:
 11744  002CA2                     ;incstack = 0
 11745                           	opt	stack 15
 11746                           	line	54
 11747                           	
 11748                           i2l2643:
 11749  002CA2                     ;lcd.c: 54:  LE0 = 0;
 11750                           	bcf	c:(31848/8),(31848)&7	;volatile
 11751  002CA2  908D               	line	55
 11752                           	
 11753                           i2l2645:
 11754  002CA4                     ;lcd.c: 55:  lcd_write(0x01);
 11755                           	movlw	(01h)&0ffh
 11756  002CA4  0E01               	
 11757                           	call	i2_lcd_write
 11758  002CA6  EC68  F016         	line	56
 11759                           	
 11760                           i2l2647:
 11761  002CAA                     ;lcd.c: 56:  _delay((unsigned long)((2)*(4000000/4000.0)));
 11762                           	opt asmopt_push
 11763                           opt asmopt_off
 11764                           movlw	3
 11765  002CAA  0E03               movwf	(??i2_lcd_clear+0+0)&0ffh,c,f
 11766  002CAC  6E02               	movlw	152
 11767  002CAE  0E98               i2u351_47:
 11768  002CB0                     decfsz	wreg,f
 11769  002CB0  2EE8               	bra	i2u351_47
 11770  002CB2  D7FE               	decfsz	(??i2_lcd_clear+0+0)&0ffh,c,f
 11771  002CB4  2E02               	bra	i2u351_47
 11772  002CB6  D7FC               opt asmopt_pop
 11773                           
 11774                           	line	57
 11775                           	
 11776                           i2l14:
 11777  002CB8                     	return	;funcret
 11778  002CB8  0012               	opt stack 0
 11779                           GLOBAL	__end_ofi2_lcd_clear
 11780                           	__end_ofi2_lcd_clear:
 11781  002CBA                     	signat	i2_lcd_clear,89
 11782                           	global	i2_lcd_write
 11783                           
 11784 ;; *************** function i2_lcd_write *****************
 11785 ;; Defined at:
 11786 ;;		line 38 in file "lcd.c"
 11787 ;; Parameters:    Size  Location     Type
 11788 ;;  c               1    wreg     unsigned char 
 11789 ;; Auto vars:     Size  Location     Type
 11790 ;;  c               1    0[COMRAM] unsigned char 
 11791 ;; Return value:  Size  Location     Type
 11792 ;;                  1    wreg      void 
 11793 ;; Registers used:
 11794 ;;		wreg, status,2, cstack
 11795 ;; Tracked objects:
 11796 ;;		On entry : 0/0
 11797 ;;		On exit  : 0/0
 11798 ;;		Unchanged: 0/0
 11799 ;; Data sizes:     COMRAM   BANK0   BANK1   BANK2   BANK3   BANK4   BANK5
 11800 ;;      Params:         0       0       0       0       0       0       0
 11801 ;;      Locals:         1       0       0       0       0       0       0
 11802 ;;      Temps:          0       0       0       0       0       0       0
 11803 ;;      Totals:         1       0       0       0       0       0       0
 11804 ;;Total ram usage:        1 bytes
 11805 ;; Hardware stack levels used:    1
 11806 ;; This function calls:
 11807 ;;		Nothing
 11808 ;; This function is called by:
 11809 ;;		i2_lcd_clear
 11810 ;;		i2_lcd_puts
 11811 ;;		i2_lcd_goto
 11812 ;; This function uses a non-reentrant model
 11813 ;;
 11814                           psect	text43,class=CODE,space=0,reloc=2,group=0
 11815                           	line	38
 11816                           global __ptext43
 11817                           __ptext43:
 11818  002CD0                     psect	text43
 11819                           	file	"lcd.c"
 11820                           	line	38
 11821                           	global	__size_ofi2_lcd_write
 11822                           	__size_ofi2_lcd_write	equ	__end_ofi2_lcd_write-i2_lcd_write
 11823  0000                     	
 11824                           i2_lcd_write:
 11825  002CD0                     ;incstack = 0
 11826                           	opt	stack 15
 11827                           ;i2lcd_write@c stored from wreg
 11828                           	movwf	((c:i2lcd_write@c)),c
 11829  002CD0  6E01               	line	40
 11830                           	
 11831                           i2l2567:
 11832  002CD2                     ;lcd.c: 38: lcd_write(unsigned char c);lcd.c: 39: {;lcd.c: 40:  _delay((unsigned long)((
                                 1)*(4000000/4000.0)));
 11833                           	opt asmopt_push
 11834                           opt asmopt_off
 11835                           	movlw	200
 11836  002CD2  0EC8               i2u352_47:
 11837  002CD4                     	nop2
 11838  002CD4  D000               decfsz	wreg,f
 11839  002CD6  2EE8               	bra	i2u352_47
 11840  002CD8  D7FD               opt asmopt_pop
 11841                           
 11842                           	line	41
 11843                           	
 11844                           i2l2569:
 11845  002CDA                     ;lcd.c: 41:     PORTD = ( c );
 11846                           	movff	(c:i2lcd_write@c),(c:3971)	;volatile
 11847  002CDA  C001  FF83         	line	42
 11848                           	
 11849                           i2l2571:
 11850  002CDE                     ;lcd.c: 42:  ((LE1 = 1),(LE1=0));
 11851                           	bsf	c:(31849/8),(31849)&7	;volatile
 11852  002CDE  828D               	
 11853                           i2l2573:
 11854  002CE0                     	bcf	c:(31849/8),(31849)&7	;volatile
 11855  002CE0  928D               	line	45
 11856                           	
 11857                           i2l11:
 11858  002CE2                     	return	;funcret
 11859  002CE2  0012               	opt stack 0
 11860                           GLOBAL	__end_ofi2_lcd_write
 11861                           	__end_ofi2_lcd_write:
 11862  002CE4                     	signat	i2_lcd_write,89
 11863                           psect	smallconst
 11864                           	db 0	; dummy byte at the end
 11865  000644  00                 	global	__smallconst
 11866                           	global	__mediumconst
 11867                           	GLOBAL	__activetblptr
 11868                           __activetblptr	EQU	2
 11869  0000                     	psect	intsave_regs,class=BIGRAM,space=1,noexec
 11870                           	PSECT	rparam,class=COMRAM,space=1,noexec
 11871                           	GLOBAL	__Lrparam
 11872                           	FNCONF	rparam,??,?
 11873                           	GLOBAL	___rparam_used
 11874                           	___rparam_used EQU 1
 11875  0000                     	GLOBAL	___param_bank
 11876                           	___param_bank EQU 0
 11877  0000                     GLOBAL	__Lparam, __Hparam
 11878                           GLOBAL	__Lrparam, __Hrparam
 11879                           __Lparam	EQU	__Lrparam
 11880  0000                     __Hparam	EQU	__Hrparam
 11881  0000                            psect   temp,common,ovrld,class=COMRAM,space=1
 11882                           	global	btemp
 11883                           btemp:
 11884  00007C                     	ds	1
 11885  00007C                     	global	int$flags
 11886                           	int$flags	set btemp
 11887  0000                     	global	wtemp8
 11888                           	wtemp8 set btemp+1
 11889  0000                     	global	ttemp5
 11890                           	ttemp5 set btemp+1
 11891  0000                     	global	ttemp6
 11892                           	ttemp6 set btemp+4
 11893  0000                     	global	ttemp7
 11894                           	ttemp7 set btemp+8
 11895  0000                     	end


Data Sizes:
    Strings     67
    Constant    0
    Data        0
    BSS         72
    Persistent  0
    Stack       0

Auto Spaces:
    Space          Size  Autos    Used
    COMRAM          126    115     123
    BANK0           128    108     125
    BANK1           256      0      47
    BANK2           256      0       0
    BANK3           256      0       0
    BANK4           256      0       0
    BANK5           256      0       0

Pointer List with Targets:

    i2sprintf@f.buffer	PTR unsigned char  size(2) Largest target is 0
		 -> estadoMes(BANK1[15]), tempoDis(BANK0[5]), 

    strlen@s	PTR const unsigned char  size(2) Largest target is 32
		 -> dbuf(BANK1[32]), 

    strlen@a	PTR const unsigned char  size(2) Largest target is 32
		 -> dbuf(BANK1[32]), 

    sprintf@fmt	PTR const unsigned char  size(2) Largest target is 10
		 -> STR_11(CODE[10]), STR_10(CODE[9]), STR_9(CODE[7]), STR_8(CODE[7]), 
		 -> STR_7(CODE[9]), STR_6(CODE[9]), STR_5(CODE[7]), STR_4(CODE[7]), 
		 -> STR_3(CODE[7]), STR_2(CODE[10]), STR_1(CODE[3]), 

    sprintf@s	PTR unsigned char  size(2) Largest target is 15
		 -> estadoMes(BANK1[15]), tempoDis(BANK0[5]), 

    sprintf@ap	PTR void [1] size(2) Largest target is 2
		 -> ?_sprintf(BANK0[2]), 

    f.buffer	PTR unsigned char  size(2) Largest target is 15
		 -> estadoMes(BANK1[15]), tempoDis(BANK0[5]), 

    fputs@s	PTR const unsigned char  size(2) Largest target is 32
		 -> dbuf(BANK1[32]), 

    fputs@fp	PTR struct _IO_FILE size(2) Largest target is 7
		 -> sprintf@f(BANK0[6]), 

    S808_IO_FILE$buffer	PTR unsigned char  size(2) Largest target is 15
		 -> estadoMes(BANK1[15]), tempoDis(BANK0[5]), 

    fputc@fp.buffer	PTR unsigned char  size(2) Largest target is 15
		 -> estadoMes(BANK1[15]), tempoDis(BANK0[5]), 

    fputc@fp	PTR struct _IO_FILE size(2) Largest target is 7
		 -> sprintf@f(BANK0[6]), 

    vfprintf@ap	PTR PTR void  size(2) Largest target is 2
		 -> sprintf@ap(BANK0[2]), 

    vfprintf@fp	PTR struct _IO_FILE size(2) Largest target is 7
		 -> sprintf@f(BANK0[6]), 

    vfprintf@fmt	PTR const unsigned char  size(2) Largest target is 10
		 -> STR_11(CODE[10]), STR_10(CODE[9]), STR_9(CODE[7]), STR_8(CODE[7]), 
		 -> STR_7(CODE[9]), STR_6(CODE[9]), STR_5(CODE[7]), STR_4(CODE[7]), 
		 -> STR_3(CODE[7]), STR_2(CODE[10]), STR_1(CODE[3]), 

    vfprintf@cfmt	PTR unsigned char  size(2) Largest target is 10
		 -> STR_11(CODE[10]), STR_10(CODE[9]), STR_9(CODE[7]), STR_8(CODE[7]), 
		 -> STR_7(CODE[9]), STR_6(CODE[9]), STR_5(CODE[7]), STR_4(CODE[7]), 
		 -> STR_3(CODE[7]), STR_2(CODE[10]), STR_1(CODE[3]), 

    vfpfcnvrt@fp	PTR struct _IO_FILE size(2) Largest target is 7
		 -> sprintf@f(BANK0[6]), 

    vfpfcnvrt@ap	PTR PTR void  size(2) Largest target is 2
		 -> sprintf@ap(BANK0[2]), 

    vfpfcnvrt@fmt	PTR PTR unsigned char  size(2) Largest target is 2
		 -> vfprintf@cfmt(BANK0[2]), 

    dtoa@fp	PTR struct _IO_FILE size(2) Largest target is 7
		 -> sprintf@f(BANK0[6]), 

    pad@fp	PTR struct _IO_FILE size(2) Largest target is 7
		 -> sprintf@f(BANK0[6]), 

    pad@buf	PTR unsigned char  size(2) Largest target is 32
		 -> dbuf(BANK1[32]), 

    lcd_puts@s	PTR const unsigned char  size(2) Largest target is 15
		 -> STR_14(CODE[7]), STR_13(CODE[8]), STR_12(CODE[8]), estadoMes(BANK1[15]), 
		 -> tempoDis(BANK0[5]), 


Critical Paths under _main in COMRAM

    None.

Critical Paths under _tmr in COMRAM

    _tmr->i2_estadosMaquina
    i2_estadosMaquina->i2_tempo1
    i2_tempo1->i2_sprintf
    i2_sprintf->i2_vfprintf
    i2_vfprintf->i2_vfpfcnvrt
    i2_vfpfcnvrt->i2_dtoa
    i2_dtoa->i2_pad
    i2_pad->i2_fputs
    i2_fputs->i2_fputc
    i2_abs->i2___aomod
    i2_escreve2->i2_lcd_puts
    i2_escreve->i2_lcd_puts
    i2_lcd_puts->i2_lcd_write
    i2_lcd_goto->i2_lcd_write
    i2_lcd_clear->i2_lcd_write

Critical Paths under _main in BANK0

    _main->_estadosMaquina
    _lcd_init->_lcd_clear
    _estadosMaquina->_tempo1
    _tempo1->_sprintf
    _sprintf->_vfprintf
    _vfprintf->_vfpfcnvrt
    _vfpfcnvrt->_dtoa
    _dtoa->_pad
    _pad->_fputs
    _fputs->_fputc
    _abs->___aomod
    _escreve2->_lcd_puts
    _escreve->_lcd_puts
    _lcd_puts->_lcd_write
    _lcd_goto->_lcd_write
    _lcd_clear->_lcd_write

Critical Paths under _tmr in BANK0

    None.

Critical Paths under _main in BANK1

    None.

Critical Paths under _tmr in BANK1

    None.

Critical Paths under _main in BANK2

    None.

Critical Paths under _tmr in BANK2

    None.

Critical Paths under _main in BANK3

    None.

Critical Paths under _tmr in BANK3

    None.

Critical Paths under _main in BANK4

    None.

Critical Paths under _tmr in BANK4

    None.

Critical Paths under _main in BANK5

    None.

Critical Paths under _tmr in BANK5

    None.

Call Graph Tables:

 ---------------------------------------------------------------------------------
 (Depth) Function   	        Calls       Base Space   Used Autos Params    Refs
 ---------------------------------------------------------------------------------
 (0) _main                                                 1     1      0   17245
                                            107 BANK0      1     1      0
                             _config
                     _estadosMaquina
                           _lcd_init
 ---------------------------------------------------------------------------------
 (1) _lcd_init                                             2     2      0      67
                                              2 BANK0      2     2      0
                          _lcd_clear
                          _lcd_write
 ---------------------------------------------------------------------------------
 (1) _estadosMaquina                                       2     2      0   17178
                                            105 BANK0      2     2      0
                            _escreve
                            _sprintf
                             _tempo1
 ---------------------------------------------------------------------------------
 (2) _tempo1                                               2     2      0    8589
                                            103 BANK0      2     2      0
                           _escreve2
                            _sprintf
 ---------------------------------------------------------------------------------
 (3) _sprintf                                             16    10      6    8000
                                             87 BANK0     16    10      6
                           _vfprintf
 ---------------------------------------------------------------------------------
 (4) _vfprintf                                             8     2      6    6120
                                             79 BANK0      8     2      6
                          _vfpfcnvrt
 ---------------------------------------------------------------------------------
 (5) _vfpfcnvrt                                           42    36      6    5751
                                             63 BANK0     16    10      6
                               _dtoa
                              _fputc
 ---------------------------------------------------------------------------------
 (6) _dtoa                                                36    26     10    4358
                                             27 BANK0     36    26     10
                            ___aodiv
                            ___aomod
                                _abs
                                _pad
 ---------------------------------------------------------------------------------
 (7) _pad                                                 11     5      6    2709
                                             16 BANK0     11     5      6
                              _fputc
                              _fputs
                             _strlen
 ---------------------------------------------------------------------------------
 (8) _strlen                                               6     4      2     166
                                              0 BANK0      6     4      2
 ---------------------------------------------------------------------------------
 (8) _fputs                                                7     3      4    1235
                                              9 BANK0      7     3      4
                              _fputc
 ---------------------------------------------------------------------------------
 (6) _fputc                                                9     5      4     834
                                              0 BANK0      9     5      4
                              _putch
 ---------------------------------------------------------------------------------
 (7) _putch                                                1     1      0       0
 ---------------------------------------------------------------------------------
 (7) _abs                                                  4     2      2     142
                                             18 BANK0      4     2      2
                            ___aomod (ARG)
 ---------------------------------------------------------------------------------
 (7) ___aomod                                             18     2     16     448
                                              0 BANK0     18     2     16
 ---------------------------------------------------------------------------------
 (7) ___aodiv                                             26    10     16     452
                                              0 BANK0     26    10     16
 ---------------------------------------------------------------------------------
 (3) _escreve2                                             0     0      0     589
                          _lcd_clear
                           _lcd_goto
                           _lcd_puts
 ---------------------------------------------------------------------------------
 (2) _escreve                                              0     0      0     589
                          _lcd_clear
                           _lcd_goto
                           _lcd_puts
 ---------------------------------------------------------------------------------
 (4) _lcd_puts                                             2     0      2     523
                                              1 BANK0      2     0      2
                          _lcd_write
 ---------------------------------------------------------------------------------
 (4) _lcd_goto                                             1     1      0      44
                                              1 BANK0      1     1      0
                          _lcd_write
 ---------------------------------------------------------------------------------
 (2) _lcd_clear                                            1     1      0      22
                                              1 BANK0      1     1      0
                          _lcd_write
 ---------------------------------------------------------------------------------
 (2) _lcd_write                                            1     1      0      22
                                              0 BANK0      1     1      0
 ---------------------------------------------------------------------------------
 (1) _config                                               0     0      0       0
 ---------------------------------------------------------------------------------
 Estimated maximum stack depth 8
 ---------------------------------------------------------------------------------
 (Depth) Function   	        Calls       Base Space   Used Autos Params    Refs
 ---------------------------------------------------------------------------------
 (11) _tmr                                                 8     8      0    9830
                                            107 COMRAM     8     8      0
                   i2_estadosMaquina
 ---------------------------------------------------------------------------------
 (12) i2_estadosMaquina                                    2     2      0    9830
                                            105 COMRAM     2     2      0
                          i2_escreve
                          i2_sprintf
                           i2_tempo1
 ---------------------------------------------------------------------------------
 (13) i2_tempo1                                            2     2      0    4915
                                            103 COMRAM     2     2      0
                         i2_escreve2
                          i2_sprintf
 ---------------------------------------------------------------------------------
 (14) i2_sprintf                                          16    10      6    4626
                                             87 COMRAM    16    10      6
                         i2_vfprintf
 ---------------------------------------------------------------------------------
 (15) i2_vfprintf                                          8     2      6    3855
                                             79 COMRAM     8     2      6
                        i2_vfpfcnvrt
 ---------------------------------------------------------------------------------
 (16) i2_vfpfcnvrt                                        42    36      6    3651
                                             63 COMRAM    16    10      6
                             i2_dtoa
                            i2_fputc
 ---------------------------------------------------------------------------------
 (17) i2_dtoa                                             36    26     10    2808
                                             27 COMRAM    36    26     10
                          i2___aodiv
                          i2___aomod
                              i2_abs
                              i2_pad
 ---------------------------------------------------------------------------------
 (18) i2_pad                                              11     5      6    1509
                                             16 COMRAM    11     5      6
                            i2_fputc
                            i2_fputs
                           i2_strlen
 ---------------------------------------------------------------------------------
 (19) i2_strlen                                            6     4      2     116
                                              0 COMRAM     6     4      2
 ---------------------------------------------------------------------------------
 (19) i2_fputs                                             7     3      4     635
                                              9 COMRAM     7     3      4
                            i2_fputc
 ---------------------------------------------------------------------------------
 (17) i2_fputc                                             9     5      4     434
                                              0 COMRAM     9     5      4
                            i2_putch
 ---------------------------------------------------------------------------------
 (18) i2_putch                                             1     1      0       0
 ---------------------------------------------------------------------------------
 (18) i2_abs                                               4     2      2      92
                                             18 COMRAM     4     2      2
                          i2___aomod (ARG)
 ---------------------------------------------------------------------------------
 (18) i2___aomod                                          18     2     16     348
                                              0 COMRAM    18     2     16
 ---------------------------------------------------------------------------------
 (18) i2___aodiv                                          26    10     16     352
                                              0 COMRAM    26    10     16
 ---------------------------------------------------------------------------------
 (14) i2_escreve2                                          0     0      0     289
                        i2_lcd_clear
                         i2_lcd_goto
                         i2_lcd_puts
 ---------------------------------------------------------------------------------
 (13) i2_escreve                                           0     0      0     289
                        i2_lcd_clear
                         i2_lcd_goto
                         i2_lcd_puts
 ---------------------------------------------------------------------------------
 (15) i2_lcd_puts                                          2     0      2     223
                                              1 COMRAM     2     0      2
                        i2_lcd_write
 ---------------------------------------------------------------------------------
 (15) i2_lcd_goto                                          1     1      0      44
                                              1 COMRAM     1     1      0
                        i2_lcd_write
 ---------------------------------------------------------------------------------
 (15) i2_lcd_clear                                         1     1      0      22
                                              1 COMRAM     1     1      0
                        i2_lcd_write
 ---------------------------------------------------------------------------------
 (16) i2_lcd_write                                         1     1      0      22
                                              0 COMRAM     1     1      0
 ---------------------------------------------------------------------------------
 Estimated maximum stack depth 19
 ---------------------------------------------------------------------------------

 Call Graph Graphs:

 _main (ROOT)
   _config
   _estadosMaquina
     _escreve
       _lcd_clear
         _lcd_write
       _lcd_goto
         _lcd_write
       _lcd_puts
         _lcd_write
     _sprintf
       _vfprintf
         _vfpfcnvrt
           _dtoa
             ___aodiv
             ___aomod
             _abs
               ___aomod (ARG)
             _pad
               _fputc
                 _putch
               _fputs
                 _fputc
                   _putch
               _strlen
           _fputc
             _putch
     _tempo1
       _escreve2
         _lcd_clear
           _lcd_write
         _lcd_goto
           _lcd_write
         _lcd_puts
           _lcd_write
       _sprintf
         _vfprintf
           _vfpfcnvrt
             _dtoa
               ___aodiv
               ___aomod
               _abs
                 ___aomod (ARG)
               _pad
                 _fputc
                   _putch
                 _fputs
                   _fputc
                     _putch
                 _strlen
             _fputc
               _putch
   _lcd_init
     _lcd_clear
       _lcd_write
     _lcd_write

 _tmr (ROOT)
   i2_estadosMaquina
     i2_escreve
       i2_lcd_clear
         i2_lcd_write
       i2_lcd_goto
         i2_lcd_write
       i2_lcd_puts
         i2_lcd_write
     i2_sprintf
       i2_vfprintf
         i2_vfpfcnvrt
           i2_dtoa
             i2___aodiv
             i2___aomod
             i2_abs
               i2___aomod (ARG)
             i2_pad
               i2_fputc
                 i2_putch
               i2_fputs
                 i2_fputc
                   i2_putch
               i2_strlen
           i2_fputc
             i2_putch
     i2_tempo1
       i2_escreve2
         i2_lcd_clear
           i2_lcd_write
         i2_lcd_goto
           i2_lcd_write
         i2_lcd_puts
           i2_lcd_write
       i2_sprintf
         i2_vfprintf
           i2_vfpfcnvrt
             i2_dtoa
               i2___aodiv
               i2___aomod
               i2_abs
                 i2___aomod (ARG)
               i2_pad
                 i2_fputc
                   i2_putch
                 i2_fputs
                   i2_fputc
                     i2_putch
                 i2_strlen
             i2_fputc
               i2_putch

 Address spaces:
Name               Size   Autos  Total    Cost      Usage
BIGRAM             5FF      0       0      17        0.0%
EEDATA             100      0       0       0        0.0%
BITBANK5           100      0       0      16        0.0%
BANK5              100      0       0      14        0.0%
BITBANK4           100      0       0      12        0.0%
BANK4              100      0       0      13        0.0%
BITBANK3           100      0       0      10        0.0%
BANK3              100      0       0      11        0.0%
BITBANK2           100      0       0       8        0.0%
BANK2              100      0       0       9        0.0%
BITBANK1           100      0       0       6        0.0%
BANK1              100      0      2F       7       18.4%
BITBANK0            80      0       0       4        0.0%
BANK0               80     6C      7D       5       97.7%
BITCOMRAM           7E      0       0       0        0.0%
COMRAM              7E     73      7B       1       97.6%
BITSFR               0      0       0     200        0.0%
SFR                  0      0       0     200        0.0%
STACK                0      0       0       2        0.0%
NULL                 0      0       0       0        0.0%
ABS                  0      0     127      15        0.0%
DATA                 0      0     127       3        0.0%
CODE                 0      0       0       0        0.0%


Microchip Technology PIC18 Macro Assembler V2.00 build -1524193055 
Symbol Table                                                                                   Fri Nov 29 08:38:59 2019

                       l11 2CCE                         l20 277E                         l14 2CA0  
                       l17 274A                         l26 2CF4                         l18 271C  
                       l19 277E                         l29 2714                __CFG_BORV$3 000000  
             __CFG_CP0$OFF 000000               __CFG_CP1$OFF 000000               __CFG_CP2$OFF 000000  
             __CFG_CP3$OFF 000000                        l104 2BC4                        l200 0AB8  
                      l201 0A56                        l130 217A                        l211 2C60  
                      l203 0A1E                        l131 21FC                        l123 2108  
                      l204 0AB4                        l140 2220                        l132 21F8  
                      l124 2186                        l205 0AB0                        l133 21BA  
                      l125 2182                        l214 2AF8                        l134 21BA  
                      l126 213C                        l207 0A7E                        l135 21CC  
                      l127 213C                        l400 1A56                        l208 0AD4  
                      l136 21F0                        l128 214E                        l401 1A72  
                      l241 2430                        l137 2218                        l129 216E  
                      l402 1AAA                        l410 1D14                        l242 245A  
                      l250 0FC2                        l138 221C                        l403 1ACE  
                      l411 1D3E                        l243 243C                        l163 25B4  
                      l171 066C                        l139 2220                        l412 1D42  
                      l244 2478                        l252 0FE8                        l164 2620  
                      l172 0AD4                        l180 0ACC                        l413 1D94  
                      l245 249E                        l237 240C                        l261 11C4  
                      l165 2606                        l181 07FA                        l173 06F6  
                      l414 1DB0                        l406 1CBC                        l246 24BC  
                      l254 0FF0                        l166 2620                        l415 1DE8  
                      l407 1CEE                        l239 2428                        l271 121C  
                      l263 11C0                        l255 1026                        l191 0890  
                      l183 07AA                        l175 06C0                        l416 1E0C  
                      l408 1DB4                        l272 125C                        l264 11C8  
                      l280 16EE                        l176 0AD0                        l184 0AC8  
                      l192 0AC0                        l409 1D2C                        l265 1230  
                      l257 101C                        l249 0FAE                        l193 0970  
                      l185 0868                        l177 0782                        l169 0696  
                      l258 1140                        l267 11EC                        l259 1042  
                      l275 170E                        l283 2828                        l195 091A  
                      l187 0822                        l179 071E                        l276 1694  
                      l284 27FE                        l188 0AC4                        l196 0ABC  
                      l269 1210                        l285 2844                        l197 09E8  
                      l189 08E4                        l278 1610                        l286 284C  
                      l279 1750                        l199 0998                        l393 195A  
                      l394 1990                        l395 1A76                        l396 19DA  
                      l397 19C2                        l398 19EC                        l399 19F0  
                      _LE0 007C68                        _LE1 007C69                        l964 2B32  
                      l972 2258                        l966 2B3E                        l974 224E  
                      l967 2B3E                        l975 2300                        l976 22FC  
                      l984 2A3E                        l985 2A22                        l978 22B2  
                      l986 2A62                        l994 2910                        l979 2304  
                      l987 2A62                        l997 2D04               __CFG_CPB$OFF 000000  
             __CFG_CPD$OFF 000000         i2___aodiv@quotient 0013                        _abs 2AFA  
                      _pad 23E4                        _tmr 0008                lcd_goto@pos 0081  
                      wreg 000FE8        __end_ofi2_vfpfcnvrt 191E                 i2_dtoa$347 002E  
             __CFG_LVP$OFF 000000               __CFG_WDT$OFF 000000                 i2_lcd_goto 2CF6  
                     l1000 2982                       l1001 2978                       l1002 299E  
                     l1003 29C0                       ?_abs 0092                       l2121 224E  
                     l2201 24BC                       l2211 1932                       l2203 2AFA  
                     l2123 2258                       l2221 1990                       l2213 1952  
                     l2205 2B16                       l2125 2278                       l2117 2224  
                     l2231 19F0                       l2223 199C                       l2215 195A  
                     l2207 191E                       l2127 22B2                       l2119 2238  
                     l2151 2A3E                       l2241 1A68                       l2233 1A02  
                     l2225 19BA                       l2217 1968                       l2209 1924  
                     l2129 2304                       l2145 2A14                       l2161 29C0  
                     l2153 296C                       l2401 0FBC                       l2235 1A30  
                     l2227 19C2                       l2243 1A76                       l2219 1988  
                     l2251 1C80                       l2147 2A22                       l2155 2978  
                     l2411 101C                       l2403 0FC2                       l2245 1A86  
                     l2237 1A50                       l2229 19DA                       l2261 1CCA  
                     l2253 1C86                       l2149 2A34                       l2157 2982  
                     l2181 23E4                       l2421 10CC                       l2413 1026  
                     l2405 0FDC                       l2247 1AAA                       l2239 1A56  
                     l2271 1D42                       l2263 1CEE                       l2255 1C94  
                     l2159 299E                       l2191 243C                       l2183 23F4  
                     l2431 117A                       l2423 10D2                       l2415 102E  
                     l2407 0FF8                       l3151 20F0                       l2521 2CCA  
                     l2249 1ACE                       l2281 1DC4                       l2273 1D70  
                     l2265 1D0C                       l2257 1CB4                       l2193 2450  
                     l2185 240C                       l2441 11EC                       l2433 1194  
                     l2425 10D8                       l2417 1042                       l2409 100A  
                     l3161 2116                       l3153 20F4                       l2523 2CCC  
                     l2283 1DE8                       l2275 1D94                       l2267 1D14  
                     l2259 1CBC                       l2195 245A                       l2187 241C  
                     l2443 11F2                       l2451 1230                       l2435 11AE  
                     l2419 1048                       l2427 1140                       l2531 15C0  
                     l3171 216E                       l3163 2126                       l3155 20F8  
                     l3147 20E4                       l2517 2CBE                       l2621 2C8E  
                     l2285 1E0C                       l2277 1DA6                       l2269 1D2C  
                     l2197 2486                       l2189 2428                       l2453 125C  
                     l2445 1204                       l2429 115C                       l2437 11C8  
                     l2541 1690                       l2533 15C4                       l2525 157C  
                     l3181 21B6                       l3173 217A                       l3165 2138  
                     l3157 2100                       l3149 20EC                       l2519 2CC6  
                     l2631 2CE8                       l2623 2716                       l2279 1DB4  
                     l2199 249E                       l2447 1210                       l2439 11DA  
                     l2551 16EA                       l2543 1694                       l2535 15E8  
                     l2527 15A0                       l3191 2210                       l3183 21CC  
                     l3167 214E                       l3175 2186                       l3159 2108  
                     l2617 2C86                       l2633 2CEA                       l2625 271C  
                     l2449 121C                       l2393 0F40                       l2561 1734  
                     l2545 16B8                       l2553 16EE                       l2537 1610  
                     l2529 15AE                       l2641 2828                       l2721 2594  
                     l2801 26FA                       l3185 21E0                       l3177 2194  
                     l3169 2162                       l2619 2C88                       l2627 2740  
                     l2395 0F60                       l2563 1742                       l2555 16FC  
                     l2547 16C6                       l2539 1658                       l2635 27E8  
                     l2731 25E0                       l2723 259E                       l2811 2710  
                     l2803 26FC                       l3187 21F0                       l3179 21A4  
                     l2821 2BC2                       l2813 2B84                       l2629 274A  
                     l2741 2C3E                       l2397 0F8A                       l2565 1750  
                     l2557 170A                       l2549 16DC                       l2637 27F0  
                     l2733 25FE                       l2725 25B0                       l2901 0868  
                     l2805 26FE                       l3189 21FC                       l2815 2B8C  
                     l2743 2C44                       l2399 0FAE                       l2559 170E  
                     l2639 27FE                       l2671 28C6                       l2735 2606  
                     l2727 25B4                       l2911 08B4                       l2903 087A  
                     l2831 068E                       l2823 0646                       l2807 2704  
                     l2817 2B9A                       l2745 2C52                       l2681 2AB0  
                     l2673 28CE                       l2737 260E                       l2729 25C6  
                     l2921 08F6                       l2913 08CA                       l2905 0896  
                     l2841 06D8                       l2833 0696                       l2825 0658  
                     l2809 270A                       l2819 2BC0                       l2739 2C3A  
                     l2691 2ADC                       l2683 2AB4                       l2675 28D6  
                     l2931 093C                       l2923 090C                       l2915 08CE  
                     l2907 08B0                       l2843 06DA                       l2851 06F6  
                     l2835 06A8                       l2827 0674                       l2693 2AEA  
                     l2685 2ABA                       l2677 28FA                       l2669 28B4  
                     l2933 0952                       l2925 091E                       l2941 0970  
                     l2917 08DC                       l2909 08B2                       l2861 074E  
                     l2853 0708                       l2845 06DC                       l2837 06C0  
                     l2829 0678                       l2781 26C6                       l2773 26AA  
                     ?_pad 0090                       l2687 2AC8                       l2679 2910  
                     l2951 09CE                       l2943 0982                       l2935 0956  
                     l2927 0938                       l2919 08E4                       l2863 0764  
                     l2855 072C                       l2871 0782                       l2847 06E0  
                     l2839 06D6                       l2791 26E0                       l2783 26CA  
                     l2775 26B0                       l2689 2AD6                       l2961 0A10  
                     l2953 09D2                       l2945 099C                       l2937 095A  
                     l2929 093A                       l2881 07E0                       l2873 0794  
                     l2865 0768                       l2857 0732                       l2849 06EE  
                     l2793 26E2                       l2785 26CC                       l2777 26B2  
                     l2963 0A22                       l2971 0A56                       l2955 09E0  
                     l2947 09B6                       l2939 0968                       l2891 0830  
                     l2883 07E4                       l2875 07AE                       l2867 076C  
                     l2859 074C                       l2795 26EA                       l2787 26CE  
                     l2779 26B4                       l2981 0AA8                       l2973 0A68  
                     l2965 0A3C                       l2949 09B8                       l2957 09E8  
                     l2893 0834                       l2885 07F2                       l2877 07C8  
                     l2869 077A                       l2797 26EC                       l2789 26DE  
                     l2975 0A84                       l2967 0A40                       l2959 09FA  
                     l2895 084E                       l2879 07CA                       l2887 07FA  
                     l2799 26EE                       l2977 0A92                       l2969 0A4E  
                     l2897 0852                       l2889 080C                       l2979 0AA6  
                     l2899 0860                 i2_lcd_puts 2780                       ?_tmr 0001  
                     STR_1 0641                       STR_2 0601                       STR_3 063A  
                     STR_4 0633                       STR_5 062C                       STR_6 060B  
                     STR_7 0614                       STR_8 0633                       STR_9 062C  
                     u2200 1018                       u2201 1014                       u2210 115C  
                     u2211 1158                       u2220 117A                       u2140 0F72  
                     u2221 1176                       u2141 0F6C                       u2230 1194  
                     u2150 0F74                       u2231 1190                       u2240 11AE  
                     u2160 0F8A                       u3200 21C8                       u2241 11AA  
                     u2161 0F86                       u3201 21C4                       u2250 11BC  
                     u2170 0FBC                       u3210 21E0                       u2251 11B8  
                     u2171 0FB8                       u3211 21DC                       u2260 11DA  
                     u2180 0FDC                       u3220 2210                       u3140 2116  
                     u2261 11D6                       u2181 0FD8                       u3221 220C  
                     u3141 2112                       u2270 11E8                       u2190 100A  
                     u3150 2134                       u2271 11E4                       u2191 1006  
                     u3151 2130                       u2520 273C                       u1800 2478  
                     u2280 1204                       u2440 15A0                       u2600 25AC  
                     u3160 214A                       u1801 2474                       u2281 1200  
                     u2441 159C                       u2601 25A8                       u3161 2146  
                     u2530 276A                       u1810 2486                       u2450 15E8  
                     u2610 25C6                       u3170 2162                       u1811 2482  
                     u2451 15E4                       u2611 25C2                       u3171 215E  
                     u2540 277A                       u1900 1C94                       u1820 2B16  
                     u1660 2238                       u1740 2A5E                       u2460 160C  
                     u2620 261C                       u2700 0708                       u3180 2194  
                     u2541 2776                       u1901 1C90                       u1821 2B12  
                     u1661 2234                       u1741 2A5A                       u2461 1608  
                     u2621 2618                       u2701 0704                       u3181 2190  
                     u3317 211E                       u1830 1932                       u1910 1CCA  
                     u1670 224A                       u1750 299A                       u2470 16B8  
                     u2550 2844                       u2710 071E                       u3190 21B2  
                     u2527 2732                       u1831 192E                       u1911 1CC6  
                     u1671 2246                       u1751 2996                       u2471 16B4  
                     u2551 2840                       u3407 092A                       u2711 071A  
                     u3191 21AE                       u3327 219C                       u1840 1968  
                     u1920 1D0C                       u1680 2278                       u2800 08F6  
                     u2720 072C                       _IPEN 007E87                       u2537 2760  
                     u1841 1964                       u1921 1D08                       u1681 2274  
                     u3417 09A8                       u2801 08F2                       u2721 0728  
                     u3337 26BC                       u1930 1D3A                       u1690 22AE  
                     u2810 090C                       u2730 0794                       u1851 1996  
                     u1931 1D36                       u1691 22AA                       u3427 25D2  
                     u2811 0908                       u2731 0790                       u3347 26D6  
                     u1860 19BA                       u1940 1D70                       u1780 23F4  
                     u2820 091A                       u2740 07AA                       u2660 0658  
                     u3437 2C96                       u1861 19B6                       u1941 1D6C  
                     u1781 23F0                       u2821 0916                       u2741 07A6  
                     u2661 0654                       u3357 26E4                       u1870 19E8  
                     u1950 1DC4                       u1790 241C                       u2830 0982  
                     u2750 080C                       u2670 066C                       u3447 2CC0  
                     u1871 19E4                       u1951 1DC0                       u1791 2418  
                     u2831 097E                       u2751 0808                       u2671 0668  
                     u3367 26F0                       u1880 1A30                       u2840 0998  
                     u2760 0822                       u2680 06A8                       u1881 1A2C  
                     u2841 0994                       u2761 081E                       u3377 073E  
                     u2681 06A4                       u1890 1A86                       u2850 09FA  
                     u2770 0830                       u2690 06BC                       u1891 1A82  
                     u2851 09F6                       u2771 082C                       u3387 07BA  
                     u2691 06B8                       u2860 0A10                       u2780 087A  
                     u2861 0A0C                       u3397 08A2                       u2781 0876  
                     u2870 0A1E                       u2790 0890                       u2871 0A1A  
                     u2791 088C                       u2880 0A68                       u2881 0A64  
                     u2890 0A7E                       i2l11 2CE2                       u2891 0A7A  
                     _RCIE 007CED                       i2l20 27E6                       _RCIF 007CF5  
                     i2l14 2CB8                       i2l17 27B2                       i2l26 2D02  
                     i2l18 2786                       i2l19 27E6                       _RCIP 007CFD  
                     _TMR0 000FD6                 i2_escreve2 2BC6                       abs@a 0092  
                     _dbuf 0100                       _bits 0078                       _main 20E4  
                     _dtoa 0F40                       _prec 00F0                       _nout 00EC  
                     pad@i 0097                       pad@p 0094                       fsr1h 000FE2  
                     fsr2h 000FDA                       indf1 000FE7                       indf2 000FDF  
                     fsr1l 000FE1                       pad@w 0099                       fsr2l 000FD9  
                     btemp 007C                       start 000E              __CFG_IESO$OFF 000000  
          __end_ofi2_fputc 23E4            __end_ofi2_fputs 2AB0            __end_ofi2_putch 2D08  
            __CFG_MCLRE$ON 000000               ___param_bank 000000                      ??_abs 0094  
                    ??_pad 0096                      ??_tmr 006C                 i2_vfprintf 284E  
              i2_lcd_clear 2CA2            __end_of___aodiv 1AD0                      ?_main 0001  
                    ?_dtoa 009B            __end_of___aomod 1E0E                      STR_10 060B  
                    STR_11 0601                      STR_12 061D                      STR_13 061D  
                    STR_14 0625                i2_lcd_write 2CD0                      _T0CON 000FD5  
                    i2l200 0F22                      i2l201 0EC0                      i2l211 2C84  
                    i2l203 0E8A                      i2l204 0F1E                      i2l205 0F1A  
                    i2l214 2C06                      i2l150 20BC                      i2l207 0EE8  
                    i2l151 201E                      i2l400 1C06                      i2l208 0F3E  
                    i2l152 20B8                      i2l160 20C0                      i2l401 1C22  
                    i2l241 2508                      i2l145 20C0                      i2l153 2038  
                    i2l402 1C5A                      i2l410 1EA0                      i2l242 2530  
                    i2l250 12E0                      i2l154 20B4                      i2l146 2004  
                    i2l403 1C7E                      i2l411 1ECA                      i2l243 2514  
                    i2l163 2642                      i2l171 0AFC                      i2l155 205C  
                    i2l147 1FEA                      i2l412 1ECE                      i2l244 254E  
                    i2l252 1306                      i2l164 26A8                      i2l172 0F3E  
                    i2l180 0F36                      i2l156 20B0                      i2l148 1FE6  
                    i2l413 1F20                      i2l245 2576                      i2l237 24E6  
                    i2l261 14E0                      i2l165 268E                      i2l181 0C7A  
                    i2l173 0B82                      i2l157 2080                      i2l149 2000  
                    i2l414 1F3C                      i2l406 1E48                      i2l246 2592  
                    i2l254 130E                      i2l166 26A8                      i2l158 20AC  
                    i2l415 1F74                      i2l407 1E7A                      i2l239 2500  
                    i2l271 153A                      i2l263 14DC                      i2l255 1344  
                    i2l191 0D0E                      i2l183 0C30                      i2l175 0B4E  
                    i2l159 20A8                      i2l416 1F98                      i2l408 1F40  
                    i2l272 157A                      i2l264 14E4                      i2l280 18C0  
                    i2l176 0F3A                      i2l184 0F32                      i2l192 0F2A  
                    i2l409 1EB8                      i2l265 154E                      i2l257 133A  
                    i2l249 12CA                      i2l193 0DE2                      i2l185 0CE6  
                    i2l177 0C08                      i2l169 0B24                      i2l258 145C  
                    i2l267 150A                      i2l259 1360                      i2l275 18DE  
                    i2l283 288E                      i2l195 0D92                      i2l187 0CA2  
                    i2l179 0BAA                      i2l276 186A                      i2l284 2864  
                    i2l188 0F2E                      i2l196 0F26                      i2l269 152E  
                    i2l285 28AA                      i2l197 0E54                      i2l189 0D5C  
                    i2l278 17E6                      i2l286 28B2                      i2l279 191C  
                    i2l199 0E0A                      i2l393 1B0A                      i2l394 1B40  
                    i2l395 1C26                      i2l396 1B8A                      i2l397 1B72  
                    i2l398 1B9C                      i2l399 1BA0                      i2l964 2B76  
                    i2l972 2338                      i2l966 2B82                      i2l974 232E  
                    i2l967 2B82                      i2l975 23DE                      i2l976 23DA  
                    i2l984 2A8A                      i2l985 2A70                      i2l978 2390  
                    i2l986 2AAE                      i2l994 296A                      i2l979 23E2  
                    i2l987 2AAE                      i2l997 2D06                      _RCREG 000FAE  
                    _RCSTA 000FAB               vfpfcnvrt@fmt 00C1                      _SPBRG 000FAF  
                    _PORTB 000F81                      _PORTD 000F83                      _PORTE 000F84  
                    _TRISA 000F92                      _TRISB 000F93                      _TRISC 000F94  
                    _TRISD 000F95                      _TRISE 000F96                      i2_abs 2B40  
                    _TXREG 000FAD                      _TXSTA 000FAC                      i2_pad 24BE  
            __CFG_PWRT$OFF 000000              __CFG_WRT0$OFF 000000              __CFG_WRT1$OFF 000000  
            __CFG_WRT2$OFF 000000              __CFG_WRT3$OFF 000000             __CFG_EBTR0$OFF 000000  
           __CFG_FCMEN$OFF 000000             __CFG_EBTR1$OFF 000000             __CFG_EBTR2$OFF 000000  
           __CFG_EBTR3$OFF 000000              __CFG_WRTB$OFF 000000              __CFG_WRTC$OFF 000000  
            __CFG_WRTD$OFF 000000             __CFG_EBTRB$OFF 000000            __end_of_escreve 2C62  
                    _flags 00F2                      _fputc 2224                      _fputs 2A14  
                    _tempo 00F6                      pad@fp 0090                      _width 00EE  
                    _putch 2D04                      dtoa@d 009D                      dtoa@i 00BD  
                    dtoa@n 00B5                      dtoa@p 00AF                      dtoa@s 00B3  
                    dtoa@w 00B1                      _volts 0074                      tablat 000FF5  
                    ttemp5 007D                      ttemp6 0080                      ttemp7 0084  
                    status 000FD8                      wtemp8 007D            __end_of_sprintf 2912  
       __size_ofi2___aodiv 01B0         __size_ofi2___aomod 018C           __end_ofi2_tempo1 26AA  
         __end_ofi2_strlen 2A14            __initialization 2C08               __end_of_main 2224  
             __end_of_dtoa 125E         __size_ofi2_escreve 0024                i2_vfpfcnvrt 1752  
            i2vfpfcnvrt@ap 0044              i2vfpfcnvrt@fp 0040              i2vfpfcnvrt@ll 0048  
__size_ofi2_estadosMaquina 046A                     ??_main 00EB                     ??_dtoa 00A5  
            __activetblptr 000002                 i2sprintf@f 0062                 i2sprintf@s 0058  
       __size_ofi2_sprintf 005A                     ?i2_abs 0013                     ?i2_pad 0011  
              i2lcd_puts@s 0002                     _ADCON0 000FC2                     _ADCON1 000FC1  
                   _ADCON2 000FC0                     ?_fputc 0080                     ?_fputs 0089  
              ?i2_lcd_goto 0001                     ?_putch 0001                ?i2_lcd_puts 0002  
                   i2l1000 29D6                     i2l1001 29CE                     i2l1002 29F2  
                   i2l1003 2A12                     i2l3001 0B64                     i2l2131 2306  
                   i2l3003 0B66                     i2l3011 0B82                     i2l2141 2390  
                   i2l2133 2318                     i2l2301 2530                     i2l3101 0DE2  
                   i2l3021 0BD6                     i2l3013 0B94                     i2l3005 0B68  
                   i2l2311 1AD4                     i2l2143 23E2                     i2l2135 232E  
                   i2l2303 255E                     i2l3111 0E3A                     i2l3103 0DF4  
                   i2l3023 0BEA                     i2l3015 0BB8                     i2l3031 0C08  
                   i2l3007 0B6C                     i2l2321 1B38                     i2l2313 1AE2  
                   i2l2137 2338                     i2l2305 2576                     i2l3121 0E7C  
                   i2l3113 0E3E                     i2l3105 0E0E                     i2l3041 0C60  
                   i2l3033 0C1A                     i2l3025 0BEE                     i2l3017 0BBE  
                   i2l3009 0B7A                     i2l3201 1FEA                     i2l2331 1B8A  
                   i2l2323 1B40                     i2l2315 1B02                     i2l2139 2356  
                   i2l2163 2A64                     i2l2171 29C2                     i2l2307 2592  
                   i2l3123 0E8E                     i2l3131 0EC0                     i2l3115 0E4C  
                   i2l3107 0E24                     i2l3051 0CB0                     i2l3043 0C64  
                   i2l3035 0C34                     i2l3027 0BF2                     i2l3019 0BD4  
                   i2l3211 2038                     i2l3203 2004                     i2l2341 1C06  
                   i2l2333 1BA0                     i2l2325 1B4C                     i2l2317 1B0A  
                   i2l2309 1AD0                     i2l2165 2A70                     i2l2173 29CE  
                   i2l2501 14F6                     i2l3141 0F12                     i2l3133 0ED2  
                   i2l3125 0EA6                     i2l3109 0E26                     i2l3117 0E54  
                   i2l3053 0CB4                     i2l3061 0CE6                     i2l3045 0C72  
                   i2l3037 0C4A                     i2l3029 0C00                     i2l3221 2078  
                   i2l3213 204A                     i2l3205 2016                     i2l2351 1C7E  
                   i2l2343 1C18                     i2l2335 1BB2                     i2l2327 1B6A  
                   i2l2319 1B18                     i2l2167 2A82                     i2l2175 29D6  
                   i2l2511 153A                     i2l2503 150A                     i2l3135 0EEE  
                   i2l3127 0EAA                     i2l3119 0E66                     i2l3071 0D2E  
                   i2l3063 0CF8                     i2l3055 0CCC                     i2l3039 0C4C  
                   i2l3047 0C7A                     i2l3223 2080                     i2l3215 2054  
                   i2l3207 201E                     i2l2337 1BE0                     i2l2329 1B72  
                   i2l2345 1C26                     i2l2361 1E48                     i2l2353 1E0E  
                   i2l2169 2A8A                     i2l2177 29F2                     i2l2505 1510  
                   i2l2513 154E                     i2l2601 18BC                     i2l3137 0EFC  
                   i2l3129 0EB8                     i2l3081 0D6E                     i2l3073 0D42  
                   i2l3065 0D14                     i2l3057 0CD0                     i2l3049 0C8C  
                   i2l3225 2092                     i2l3217 205C                     i2l3209 2030  
                   i2l2347 1C36                     i2l2339 1C00                     i2l2371 1EB8  
                   i2l2363 1E56                     i2l2355 1E12                     i2l2179 2A12  
                   i2l2291 24E6                     i2l2515 157A                     i2l2507 1522  
                   i2l2611 1902                     i2l2603 18C0                     i2l3139 0F10  
                   i2l3091 0DB0                     i2l3083 0D84                     i2l3075 0D46  
                   i2l3067 0D2A                     i2l3059 0CDE                     i2l3227 20A0  
                   i2l3219 206E                ?i2_escreve2 0001                     i2l2701 2BDC  
                   i2l2349 1C5A                     i2l2373 1ECE                     i2l2381 1F40  
                   i2l2365 1E7A                     i2l2357 1E20                     i2l2293 24F4  
                   i2l2509 152E                     i2l2461 12CA                     i2l2613 1910  
                   i2l2605 18CE                     i2l3093 0DC4                     i2l3085 0D96  
                   i2l3077 0D54                     i2l3069 0D2C                     i2l2703 2BE8  
                   i2l2383 1F50                     i2l2375 1EFC                     i2l2367 1E98  
                   i2l2359 1E40                     i2l2391 2B5A                     i2l2295 2500  
                   i2l2287 24BE                     i2l2471 1328                     i2l2463 12DA  
                   i2l2455 125E                     i2l2615 191C                     i2l2607 18DA  
                   i2l2711 2922                     i2l3095 0DC8                     i2l3087 0DAC  
                   i2l3079 0D5C                     i2l2705 2BEE                     i2l2385 1F74  
                   i2l2377 1F20                     i2l2369 1EA0                     i2l2297 2514  
                   i2l2289 24CE                     i2l2481 1366                     i2l2473 133A  
                   i2l2465 12E0                     i2l2457 127E                     i2l2609 18DE  
                   i2l2713 292A                     i2l3097 0DCC                     i2l3089 0DAE  
                   i2l3193 1FBC                     i2l2571 2CDE                     i2l2643 2CA2  
                   i2l2651 2786                     i2l2707 2BFA                     i2l2387 1F98  
                   i2l2379 1F32                     i2l2299 2528                     i2l2491 1476  
                   i2l2483 13E8                     i2l2475 1344                     i2l2467 12FA  
                   i2l2459 12A6                     i2l2715 2932                     i2l3099 0DDA  
                   i2l3195 1FCA                     i2l2573 2CE0                     i2l2645 2CA4  
                   i2l2653 27AA                     i2l2389 2B40                     i2l2493 1494  
                   i2l2485 13EE                     i2l2477 134C                     i2l2469 1316  
                   i2l2581 1796                     i2l2661 284E                     i2l2717 2956  
                   i2l2709 2912                     i2l3197 1FCC                     i2l2567 2CD2  
                   i2l2647 2CAA                     i2l2655 27B2                     i2l2495 14AE  
                   i2l2487 13F4                     i2l2479 1360                     i2l2591 1866  
                   i2l2583 179A                     i2l2575 1752                     i2l2663 2856  
                   i2l2719 296A                     i2l2751 263E                     i2l3199 1FE2  
                   i2l2569 2CDA                     i2l2657 2CF8                     i2l2649 2780  
                   i2l2497 14C8                     i2l2489 145C                     i2l2593 186A  
                   i2l2585 17BE                     i2l2577 1776                     i2l2665 2864  
                   i2l2761 268E                     i2l2753 2642                     i2l2659 2CFA  
                   i2l2771 2C78                     i2l2499 14E4                     i2l2595 188E  
                   i2l2587 17E6                     i2l2579 1784                     i2l2667 288E  
                   i2l2763 2696                     i2l2755 2654                     i2l2747 2622  
                   i2l2765 2C62                     i2l2597 189C                     i2l2589 182E  
                   i2l2757 266A                     i2l2749 262C                     i2l2767 2C66  
                   i2l2695 2BC6                     i2l2599 18B0                     i2l2759 2686  
                   i2l2769 2C6C                     i2l2697 2BCA                     i2l2699 2BD0  
                   i2l2991 0B1C                     i2l2983 0AD6                     _INTCON 000FF2  
                   i2l2993 0B24                     i2l2985 0AE8                     i2l2995 0B36  
                   i2l2987 0B04                     i2l2997 0B4E                     i2l2989 0B08  
                   i2l2999 0B62                  ??i2_fputc 0005                  ??i2_fputs 000E  
                   _OSCCON 000FD3                  ??i2_putch 0001             i2___aodiv@sign 0012  
                   i2abs@a 0013                     i2_dtoa 125E                     i2pad@i 0018  
                   i2pad@p 0015                     i2pad@w 001A             __CFG_XINST$OFF 000000  
             vfprintf@cfmt 00D5           __end_of_lcd_init 2716           __end_of_lcd_goto 2CF6  
         __end_of_lcd_puts 2780             i2___aomod@sign 0012                  ??___aodiv 0090  
            i2vfprintf@fmt 0052                  ??___aomod 0090             __CFG_STVREN$ON 000000  
         __end_of_escreve2 2AFA                     _config 2B84                ?i2_vfprintf 0050  
                   _estado 00F4                     clear_0 2C0E                     clear_1 2C1A  
                   clear_2 2C26                     _tempo1 2594                     pad@buf 0092  
                   dtoa@fp 009B                     _strlen 296C                  ??_escreve 0083  
                   fputc@c 0080                     fputs@c 008D                     fputs@i 008E  
        __end_ofi2___aodiv 1C80                     fputs@s 0089          __end_ofi2___aomod 1F9A  
             __mediumconst 0000                     tblptrh 000FF7                     tblptrl 000FF6  
                   tblptru 000FF8                     putch@c 0001         i2___aomod@dividend 0001  
         __end_of_vfprintf 284E                  ??_sprintf 00DD          __end_ofi2_escreve 2C86  
               __accesstop 0080    __end_of__initialization 2C2C            __CFG_PBADEN$OFF 000000  
            ___rparam_used 000001          __end_ofi2_sprintf 296C              __end_ofi2_abs 2B84  
            __end_ofi2_pad 2594             __pcstackCOMRAM 0001              __end_of_fputc 2306  
            __end_of_fputs 2A64              __end_of_putch 2D06        __size_ofi2_lcd_goto 000E  
      __size_ofi2_lcd_puts 0068        __size_ofi2_escreve2 0042                    ??i2_abs 0015  
                  ??i2_pad 0017         __size_of_lcd_clear 001C                  ?i2_tempo1 0001  
           i2vfpfcnvrt@fmt 0042                  ?i2_strlen 0001         __size_of_lcd_write 0016  
                  ??_fputc 0084                    ??_fputs 008D                    ??_putch 0080  
               __pbssBANK0 00EC                 __pbssBANK1 0100                i2sprintf@ap 0060  
      __size_ofi2_vfprintf 0066    __size_of_estadosMaquina 0490                    ?i2_dtoa 001C  
             i2lcd_write@c 0001                    ?_config 0001                    _BAUDCON 000FB8  
             ?i2_lcd_clear 0001                    ?_tempo1 0001           i2_estadosMaquina 0AD6  
             ?i2_lcd_write 0001                    ?_strlen 0080                 ??i2_tempo1 0068  
       __size_of_vfpfcnvrt 01D6                 ??i2_strlen 0003                  ?_lcd_init 0001  
                ?_lcd_goto 0001                  ?_lcd_puts 0081                  ?_escreve2 0001  
                  i2_fputc 2306                    i2_fputs 2A64                    i2pad@fp 0011  
                  i2_putch 2D06                    i2dtoa@d 001E                    i2dtoa@i 003E  
                  i2dtoa@n 0036                    i2dtoa@p 0030                    i2dtoa@s 0034  
                  i2dtoa@w 0032            __size_ofi2_dtoa 031E                    __Hparam 0000  
                  __Lparam 0000          __end_of_lcd_clear 2CA2                    ___aodiv 191E  
                  ___aomod 1C80          __end_of_lcd_write 2CD0                  ?_vfprintf 00CF  
           i2vfprintf@cfmt 0056               __psmallconst 0600            __size_of_config 0042  
             ?i2_vfpfcnvrt 0040                    __pcinit 2C08                    __ramtop 0600  
          __size_of_tempo1 008E                    __ptext0 20E4                    __ptext1 26AA  
                  __ptext2 0646                    __ptext3 2594                    __ptext4 28B4  
                  __ptext5 27E8                    __ptext6 157C                    __ptext7 0F40  
                  __ptext8 23E4                    __ptext9 296C            __size_of_strlen 0056  
                  _escreve 2C3A               __size_of_abs 0046               __size_of_pad 00DA  
             __size_of_tmr 20DC                    _sprintf 28B4               ??i2_lcd_goto 0002  
               ??_lcd_init 0082                 ??_lcd_goto 0081               ??i2_lcd_puts 0004  
           __pintcode_body 1F9A                 ??_lcd_puts 0083       end_of_initialization 2C2C  
             ??i2_escreve2 0004                 ??_escreve2 0083                    fputc@fp 0082  
            __Lmediumconst 0000                    int_func 1F9A                    fputs@fp 008B  
        __end_of_vfpfcnvrt 1752                    postdec2 000FDD                    postinc0 000FEE  
                  postinc1 000FE6                    postinc2 000FDE               ??i2_vfprintf 0056  
               ??_vfprintf 00D5                    strlen@a 0084                    strlen@s 0080  
       __end_ofi2_lcd_goto 2D04         __end_ofi2_lcd_puts 27E8                  _PORTBbits 000F81  
                _PORTCbits 000F82         __end_ofi2_escreve2 2C08          i2___aodiv@divisor 0009  
        i2___aodiv@counter 0011                  i2___aodiv 1AD0                  i2___aomod 1E0E  
           _estadosMaquina 0646         __end_ofi2_vfprintf 28B4                  i2_escreve 2C62  
           __end_ofi2_dtoa 157C                 lcd_write@c 0080                  i2_sprintf 2912  
              vfpfcnvrt@ap 00C3                vfpfcnvrt@fp 00BF                vfpfcnvrt@ll 00C7  
           __end_of_config 2BC6                  i2fputc@fp 0003                  i2fputs@fp 000C  
           __end_of_tempo1 2622       __size_ofi2_lcd_clear 0018             __end_of_strlen 29C2  
      start_initialization 2C08       __size_ofi2_lcd_write 0014                __end_of_abs 2B40  
              __end_of_pad 24BE                __end_of_tmr 20E4                 ?i2___aodiv 0001  
               ?i2___aomod 0001     __end_of_estadosMaquina 0AD6          __size_ofi2_tempo1 0088  
       lcd_init@init_value 0083          __size_ofi2_strlen 0052                  i2strlen@a 0005  
                i2strlen@s 0001   __end_ofi2_estadosMaquina 0F40           __CFG_OSC$INTIO67 000000  
                 ??i2_dtoa 0026                 ?i2_escreve 0001                vfprintf@fmt 00D1  
             i2vfprintf@ap 0054               i2vfprintf@fp 0050                 ?i2_sprintf 0058  
                 ??_config 0080           __CFG_LPT1OSC$OFF 000000                   ??_tempo1 00E7  
        i2___aomod@divisor 0009                   ??_strlen 0082          i2___aomod@counter 0011  
     __size_ofi2_vfpfcnvrt 01CC               i2sprintf@fmt 005A                __pbssCOMRAM 0074  
             i2sprintf@ret 005E              __pcstackBANK0 0080           ___aodiv@dividend 0080  
            i2lcd_goto@pos 0002            ?_estadosMaquina 0001                   ?i2_fputc 0001  
                 ?i2_fputs 000A          __size_of_lcd_init 006C          __size_of_lcd_goto 0012  
                 ?i2_putch 0001          __size_of_lcd_puts 006A          __size_of_escreve2 004A  
        __CFG_CCP2MX$PORTC 000000                  __pintcode 0008                   ?___aodiv 0080  
                 ?___aomod 0080           ___aodiv@quotient 0092                  _lcd_clear 2C86  
        __size_of_vfprintf 0066                  _lcd_write 2CBA                   ?_escreve 0001  
              __smallconst 0600             __size_ofi2_abs 0044             __size_ofi2_pad 00D6  
                _estadoMes 0120                ??i2___aodiv 0011                ??i2___aomod 0011  
                 ?_sprintf 00D7             __size_of_fputc 00E2             __size_of_fputs 0050  
           __size_of_putch 0002                ??i2_escreve 0004                   i2u200_40 1AE2  
                 i2u200_41 1ADE                   i2u201_40 1B18                   i2u201_41 1B14  
                 i2u210_40 1EC6                   i2u202_41 1B46                   i2u210_41 1EC2  
                 i2u203_40 1B6A                   i2u211_40 1EFC                   i2u203_41 1B66  
                 i2u211_41 1EF8                   i2u204_40 1B98                   i2u212_40 1F50  
                 i2u300_40 0CA2                   i2u204_41 1B94                   i2u212_41 1F4C  
                 i2u300_41 0C9E                   i2u205_40 1BE0                   i2u213_40 2B5A  
                 i2u301_40 0CB0                   i2u205_41 1BDC                   i2u213_41 2B56  
                 i2u301_41 0CAC                   i2u206_40 1C36                   i2u230_40 1290  
                 i2u310_40 0E7C                   i2u302_40 0CF8                   i2u206_41 1C32  
                 i2u310_41 0E78                   i2u302_41 0CF4                   i2u207_40 1E20  
                 i2u231_40 12A6                   i2u311_40 0E8A                   i2u303_40 0D0E  
                 i2u207_41 1E1C                   i2u231_41 12A2                   i2u311_41 0E86  
                 i2u303_41 0D0A                   i2u208_40 1E56                   i2u240_40 14D8  
                 i2u232_40 12DA                   i2u312_40 0ED2                   i2u304_40 0D6E  
                 i2u208_41 1E52                   i2u240_41 14D4                   i2u232_41 12D6  
                 i2u312_41 0ECE                   i2u304_41 0D6A                   i2u209_40 1E98  
                 i2u241_40 14F6                   i2u233_40 12FA                   i2u313_40 0EE8  
                 i2u305_40 0D84                   i2u209_41 1E94                   i2u241_41 14F2  
                 i2u233_41 12F6                   i2u313_41 0EE4                   i2u305_41 0D80  
                 i2u170_40 2318                   i2u242_40 1506                   i2u234_40 1328  
                 i2u250_40 17E2                   i2u306_40 0D92                   i2u330_40 2092  
                 i2u170_41 2314                   i2u242_41 1502                   i2u234_41 1324  
                 i2u250_41 17DE                   i2u306_41 0D8E                   i2u330_41 208E  
                 i2u171_40 232A                   i2u243_40 1522                   i2u235_40 1336  
                 i2u251_40 188E                   i2u307_40 0DF4                   i2u323_40 1FCA  
                 i2u171_41 2326                   i2u243_41 151E                   i2u235_41 1332  
                 i2u251_41 188A                   i2u307_41 0DF0                   i2u323_41 1FC6  
                 i2u172_40 2356                   i2u236_40 1476                   i2u308_40 0E0A  
                 i2u324_40 1FDE                   i2u172_41 2352                   i2u236_41 1472  
                 i2u308_41 0E06                   i2u324_41 1FDA                   i2u173_40 238C  
                 i2u237_40 1494                   i2u229_40 128E                   i2u309_40 0E66  
                 i2u325_40 1FFC                   i2u173_41 2388                   i2u237_41 1490  
                 i2u229_41 1288                   i2u309_41 0E62                   i2u325_41 1FF8  
                 i2u238_40 14AE                   i2u326_40 2016                   i2u238_41 14AA  
                 i2u326_41 2012                   i2u350_47 265E                   i2u239_40 14C8  
                 i2u263_40 263A                   i2u327_40 2030                   i2u239_41 14C4  
                 i2u263_41 2636                   i2u327_41 202C                   i2u351_47 2CB0  
                 i2u256_40 27A6                   i2u176_40 2AAA                   i2u248_40 1776  
                 i2u264_40 2654                   i2u328_40 204A                   i2u176_41 2AA6  
                 i2u248_41 1772                   i2u264_41 2650                   i2u328_41 2046  
                 i2u352_47 2CD4                   i2u256_47 279C                   i2u257_40 27D2  
                 i2u177_40 29EE                   i2u249_40 17BE                   i2u265_40 26A4  
                 i2u329_40 206E                   i2u177_41 29EA                   i2u249_41 17BA  
                 i2u265_41 26A0                   i2u329_41 206A                   i2u257_47 27C8  
                 i2u345_47 0BC8                   i2u258_40 27E2                   i2u290_40 0AE8  
                 i2u258_41 27DE                   i2u290_41 0AE4                   i2u346_47 0C3E  
                 i2u259_40 28AA                   i2u291_40 0AFC                   i2u259_41 28A6  
                 i2u291_41 0AF8                   i2u347_47 0D1E                   i2u196_40 24CE  
                 i2u292_40 0B36                   i2u196_41 24CA                   i2u292_41 0B32  
                 i2u348_47 0DA0                   i2u197_40 24F4                   i2u293_40 0B4A  
                 i2u197_41 24F0                   i2u293_41 0B46                   i2u349_47 0E18  
                 i2u198_40 254E                   i2u294_40 0B94                   i2u198_41 254A  
                 i2u294_41 0B90                   i2u199_40 255E                   i2u295_40 0BAA  
                 i2u199_41 255A                   i2u295_41 0BA6                   i2u296_40 0BB8  
                 i2u296_41 0BB4                   i2u297_40 0C1A                   i2u297_41 0C16  
                 i2u298_40 0C30                   i2u298_41 0C2C                   i2u299_40 0C8C  
                 i2u299_41 0C88           __CFG_WDTPS$32768 000000                ??i2_sprintf 005E  
               ?_lcd_clear 0001                  _vfpfcnvrt 157C                 ?_lcd_write 0001  
                lcd_puts@s 0081                   i2_tempo1 2622                   i2pad@buf 0013  
                 i2dtoa@fp 001C                   i2_strlen 29C2                   i2fputc@c 0001  
                 i2fputs@c 000E                   i2fputs@i 000F                   i2fputs@s 000A  
         __size_ofi2_fputc 00DE           __size_ofi2_fputs 004C           __size_ofi2_putch 0002  
                 __Hrparam 0000                 vfprintf@ap 00D3                   __Lrparam 0000  
               vfprintf@fp 00CF         __CFG_BOREN$SBORDIS 000000           __size_of___aodiv 01B2  
         __size_of___aomod 018E                 ?_vfpfcnvrt 00BF            ___aodiv@divisor 0088  
          ___aodiv@counter 0090                 sprintf@fmt 00D9                 sprintf@ret 00DD  
         __size_of_escreve 0028                   _dtoa$347 00AD                   __ptext10 2A14  
                 __ptext11 2224                   __ptext20 2C86                   __ptext12 2D04  
                 __ptext21 2CBA                   __ptext13 2AFA                   __ptext30 24BE  
                 __ptext22 2B84                   __ptext14 1C80                   __ptext31 29C2  
                 __ptext15 191E                   __ptext40 2780                   __ptext32 2A64  
                 __ptext24 0AD6                   __ptext16 2AB0                   __ptext41 2CF6  
                 __ptext33 2306                   __ptext25 2622                   __ptext17 2C3A  
                 __ptext42 2CA2                   __ptext34 2D06                   __ptext26 2912  
                 __ptext18 2716                   __ptext43 2CD0                   __ptext35 2B40  
                 __ptext27 284E                   __ptext19 2CE4                   __ptext36 1E0E  
                 __ptext28 1752                   __ptext37 1AD0                   __ptext29 125E  
                 __ptext38 2BC6                   __ptext39 2C62                   _lcd_init 26AA  
                 _lcd_goto 2CE4                   _lcd_puts 2716                   _contador 007A  
         __size_of_sprintf 005E                   _escreve2 2AB0              __size_of_main 0140  
            __size_of_dtoa 031E          ?i2_estadosMaquina 0001         ??i2_estadosMaquina 006A  
                 _tempoDis 00F8                   int$flags 007C                   _vfprintf 27E8  
            ??i2_lcd_clear 0002                ??_lcd_clear 0081              ??i2_lcd_write 0001  
              ??_lcd_write 0080           ___aomod@dividend 0080           ??_estadosMaquina 00E9  
                 intlevel2 0000                  sprintf@ap 00DF            ___aomod@divisor 0088  
            ??i2_vfpfcnvrt 0046                ??_vfpfcnvrt 00C5            ___aomod@counter 0090  
                 sprintf@f 00E1                   sprintf@s 00D7        __end_ofi2_lcd_clear 2CBA  
      __end_ofi2_lcd_write 2CE4               ___aodiv@sign 0091         i2___aodiv@dividend 0001  
             ___aomod@sign 0091  
