

Microchip Technology PIC18 LITE Macro Assembler V2.00 build -1524193055 
                                                                                               Fri Nov 29 09:50:11 2019

Microchip Technology Omniscient Code Generator v2.00 (Free mode) build 20180527130849
     1  0000                     
     2                           ; Version 2.00
     3                           ; Generated 27/05/2018 GMT
     4                           
     5                           ; 
     6                           ; Copyright © 2018, Microchip Technology Inc. and its subsidiaries ("Microchip")
     7                           ; All rights reserved.
     8                           ; 
     9                           ; This software is developed by Microchip Technology Inc. and its subsidiaries ("Microch
                                 ip").
    10                           ; 
    11                           ; Redistribution and use in source and binary forms, with or without modification, are
    12                           ; permitted provided that the following conditions are met:
    13                           ; 
    14                           ;     1. Redistributions of source code must retain the above copyright notice, this lis
                                 t of
    15                           ;        conditions and the following disclaimer.
    16                           ; 
    17                           ;     2. Redistributions in binary form must reproduce the above copyright notice, this 
                                 list
    18                           ;        of conditions and the following disclaimer in the documentation and/or other
    19                           ;        materials provided with the distribution.
    20                           ; 
    21                           ;     3. Microchip's name may not be used to endorse or promote products derived from th
                                 is
    22                           ;        software without specific prior written permission.
    23                           ; 
    24                           ; THIS SOFTWARE IS PROVIDED BY MICROCHIP "AS IS" AND ANY EXPRESS OR IMPLIED WARRANTIES,

    25                           ; INCLUDING, BUT NOT LIMITED TO, THE IMPLIED WARRANTIES OF MERCHANTABILITY AND FITNESS F
                                 OR
    26                           ; PURPOSE ARE DISCLAIMED.  IN NO EVENT SHALL MICROCHIP BE LIABLE FOR ANY DIRECT, INDIREC
                                 T,
    27                           ; INCIDENTAL, SPECIAL, EXEMPLARY, OR CONSEQUENTIAL DAMAGES (INCLUDING BUT NOT LIMITED TO
                                 
    28                           ; PROCUREMENT OF SUBSTITUTE GOODS OR SERVICES; LOSS OF USE, DATA OR PROFITS; OR BUSINESS
                                 
    29                           ; INTERRUPTION) HOWSOEVER CAUSED AND ON ANY THEORY OF LIABILITY, WHETHER IN CONTRACT, ST
                                 RICT
    30                           ; LIABILITY, OR TORT (INCLUDING NEGLIGENCE OR OTHERWISE) ARISING IN ANY WAY OUT OF THE U
                                 SE OF
    31                           ; THIS SOFTWARE, EVEN IF ADVISED OF THE POSSIBILITY OF SUCH DAMAGE.
    32                           ; 
    33                           
    34                           
    35                           ; 
    36                           ; Code-generator required, PIC18F4520 Definitions
    37                           ; 
    38  0000                     fsr0 equ 0FE9h
    39  0000                     fsr0h equ 0FEAh
    40  0000                     fsr0l equ 0FE9h
    41  0000                     fsr1 equ 0FE1h
    42  0000                     fsr1h equ 0FE2h
    43  0000                     fsr1l equ 0FE1h
    44  0000                     fsr2 equ 0FD9h
    45  0000                     fsr2h equ 0FDAh
    46  0000                     fsr2l equ 0FD9h
    47  0000                     indf0 equ 0FEFh
    48  0000                     indf1 equ 0FE7h
    49  0000                     indf2 equ 0FDFh
    50  0000                     intcon equ 0FF2h
    51  0000                     nvmcon equ 00h
    52  0000                     pcl equ 0FF9h
    53  0000                     pclath equ 0FFAh
    54  0000                     pclatu equ 0FFBh
    55  0000                     plusw0 equ 0FEBh
    56  0000                     plusw1 equ 0FE3h
    57  0000                     plusw2 equ 0FDBh
    58  0000                     postdec0 equ 0FEDh
    59  0000                     postdec1 equ 0FE5h
    60  0000                     postdec2 equ 0FDDh
    61  0000                     postinc0 equ 0FEEh
    62  0000                     postinc1 equ 0FE6h
    63  0000                     postinc2 equ 0FDEh
    64  0000                     preinc0 equ 0FECh
    65  0000                     preinc1 equ 0FE4h
    66  0000                     preinc2 equ 0FDCh
    67  0000                     prod equ 0FF3h
    68  0000                     prodh equ 0FF4h
    69  0000                     prodl equ 0FF3h
    70  0000                     status equ 0FD8h
    71  0000                     tablat equ 0FF5h
    72  0000                     tblptr equ 0FF6h
    73  0000                     tblptrh equ 0FF7h
    74  0000                     tblptrl equ 0FF6h
    75  0000                     tblptru equ 0FF8h
    76  0000                     tosl equ 0FFDh
    77  0000                     wreg equ 0FE8h
    78  0000                     
     2                           opt pagewidth 120
     3  0000                     byte0	macro	val
     4                           	(getbyte(val,0))
     5                           endm
     6  0000                     byte1	macro	val
     7                           	(getbyte(val,1))
     8                           endm
     9  0000                     byte2	macro	val
    10                           	(getbyte(val,2))
    11                           endm
    12  0000                     byte3	macro	val
    13                           	(getbyte(val,3))
    14                           endm
    15  0000                     byte4	macro	val
    16                           	(getbyte(val,4))
    17                           endm
    18  0000                     byte5	macro	val
    19                           	(getbyte(val,5))
    20                           endm
    21  0000                     byte6	macro	val
    22                           	(getbyte(val,6))
    23                           endm
    24  0000                     byte7	macro	val
    25                           	(getbyte(val,7))
    26                           endm
    27  0000                     getword	macro	val,pos
    28                           	(((val) >> (8 * pos)) and 0xffff)
    29                           endm
    30  0000                     word0	macro	val
    31                           	(getword(val,0))
    32                           endm
    33  0000                     word1	macro	val
    34                           	(getword(val,2))
    35                           endm
    36  0000                     word2	macro	val
    37                           	(getword(val,4))
    38                           endm
    39  0000                     word3	macro	val
    40                           	(getword(val,6))
    41                           endm
    42  0000                     gettword	macro	val,pos
    43                           	(((val) >> (8 * pos)) and 0xffffff)
    44                           endm
    45  0000                     tword0	macro	val
    46                           	(gettword(val,0))
    47                           endm
    48  0000                     tword1	macro	val
    49                           	(gettword(val,3))
    50                           endm
    51  0000                     tword2	macro	val
    52                           	(gettword(val,6))
    53                           endm
    54  0000                     getdword	macro	val,pos
    55                           	(((val) >> (8 * pos)) and 0xffffffff)
    56                           endm
    57  0000                     dword0	macro	val
    58                           	(getdword(val,0))
    59                           endm
    60  0000                     dword1	macro	val
    61                           	(getdword(val,4))
    62                           endm
    63  0000                     clrc   macro
    64                           	bcf	status,0
    65                           endm
    66  0000                     setc   macro
    67                           	bsf	status,0
    68                           endm
    69  0000                     clrz   macro
    70                           	bcf	status,2
    71                           endm
    72  0000                     setz   macro
    73                           	bsf	status,2
    74                           endm
    75  0000                     skipnz macro
    76                           	btfsc	status,2
    77                           endm
    78  0000                     skipz  macro
    79                           	btfss	status,2
    80                           endm
    81  0000                     skipnc macro
    82                           	btfsc	status,0
    83                           endm
    84  0000                     skipc  macro
    85                           	btfss	status,0
    86                           endm
    87  0000                     pushw macro
    88                           	movwf postinc1
    89                           endm
    90  0000                     pushf macro arg1
    91                           	movff arg1, postinc1
    92                           endm
    93  0000                     popw macro
    94                           	movf postdec1,f
    95                           	movf indf1,w
    96                           endm
    97  0000                     popf macro arg1
    98                           	movf postdec1,f
    99                           	movff indf1,arg1
   100                           endm
   101  0000                     popfc macro arg1
   102                           	movff plusw1,arg1
   103                           	decfsz fsr1,f
   104                           endm
   105  0000                     	global	__ramtop
   106                           	global	__accesstop
   107                           # 54 "E:\ProgramasWindowns\Microchip\xc8\v2.00\pic\include\pic18f4520.h"
   108                           PORTA equ 0F80h ;# 
   109  0000                     # 273 "E:\ProgramasWindowns\Microchip\xc8\v2.00\pic\include\pic18f4520.h"
   110                           PORTB equ 0F81h ;# 
   111  0000                     # 452 "E:\ProgramasWindowns\Microchip\xc8\v2.00\pic\include\pic18f4520.h"
   112                           PORTC equ 0F82h ;# 
   113  0000                     # 634 "E:\ProgramasWindowns\Microchip\xc8\v2.00\pic\include\pic18f4520.h"
   114                           PORTD equ 0F83h ;# 
   115  0000                     # 776 "E:\ProgramasWindowns\Microchip\xc8\v2.00\pic\include\pic18f4520.h"
   116                           PORTE equ 0F84h ;# 
   117  0000                     # 979 "E:\ProgramasWindowns\Microchip\xc8\v2.00\pic\include\pic18f4520.h"
   118                           LATA equ 0F89h ;# 
   119  0000                     # 1091 "E:\ProgramasWindowns\Microchip\xc8\v2.00\pic\include\pic18f4520.h"
   120                           LATB equ 0F8Ah ;# 
   121  0000                     # 1203 "E:\ProgramasWindowns\Microchip\xc8\v2.00\pic\include\pic18f4520.h"
   122                           LATC equ 0F8Bh ;# 
   123  0000                     # 1315 "E:\ProgramasWindowns\Microchip\xc8\v2.00\pic\include\pic18f4520.h"
   124                           LATD equ 0F8Ch ;# 
   125  0000                     # 1427 "E:\ProgramasWindowns\Microchip\xc8\v2.00\pic\include\pic18f4520.h"
   126                           LATE equ 0F8Dh ;# 
   127  0000                     # 1479 "E:\ProgramasWindowns\Microchip\xc8\v2.00\pic\include\pic18f4520.h"
   128                           TRISA equ 0F92h ;# 
   129  0000                     # 1484 "E:\ProgramasWindowns\Microchip\xc8\v2.00\pic\include\pic18f4520.h"
   130                           DDRA equ 0F92h ;# 
   131  0000                     # 1701 "E:\ProgramasWindowns\Microchip\xc8\v2.00\pic\include\pic18f4520.h"
   132                           TRISB equ 0F93h ;# 
   133  0000                     # 1706 "E:\ProgramasWindowns\Microchip\xc8\v2.00\pic\include\pic18f4520.h"
   134                           DDRB equ 0F93h ;# 
   135  0000                     # 1923 "E:\ProgramasWindowns\Microchip\xc8\v2.00\pic\include\pic18f4520.h"
   136                           TRISC equ 0F94h ;# 
   137  0000                     # 1928 "E:\ProgramasWindowns\Microchip\xc8\v2.00\pic\include\pic18f4520.h"
   138                           DDRC equ 0F94h ;# 
   139  0000                     # 2145 "E:\ProgramasWindowns\Microchip\xc8\v2.00\pic\include\pic18f4520.h"
   140                           TRISD equ 0F95h ;# 
   141  0000                     # 2150 "E:\ProgramasWindowns\Microchip\xc8\v2.00\pic\include\pic18f4520.h"
   142                           DDRD equ 0F95h ;# 
   143  0000                     # 2367 "E:\ProgramasWindowns\Microchip\xc8\v2.00\pic\include\pic18f4520.h"
   144                           TRISE equ 0F96h ;# 
   145  0000                     # 2372 "E:\ProgramasWindowns\Microchip\xc8\v2.00\pic\include\pic18f4520.h"
   146                           DDRE equ 0F96h ;# 
   147  0000                     # 2531 "E:\ProgramasWindowns\Microchip\xc8\v2.00\pic\include\pic18f4520.h"
   148                           OSCTUNE equ 0F9Bh ;# 
   149  0000                     # 2596 "E:\ProgramasWindowns\Microchip\xc8\v2.00\pic\include\pic18f4520.h"
   150                           PIE1 equ 0F9Dh ;# 
   151  0000                     # 2673 "E:\ProgramasWindowns\Microchip\xc8\v2.00\pic\include\pic18f4520.h"
   152                           PIR1 equ 0F9Eh ;# 
   153  0000                     # 2750 "E:\ProgramasWindowns\Microchip\xc8\v2.00\pic\include\pic18f4520.h"
   154                           IPR1 equ 0F9Fh ;# 
   155  0000                     # 2827 "E:\ProgramasWindowns\Microchip\xc8\v2.00\pic\include\pic18f4520.h"
   156                           PIE2 equ 0FA0h ;# 
   157  0000                     # 2893 "E:\ProgramasWindowns\Microchip\xc8\v2.00\pic\include\pic18f4520.h"
   158                           PIR2 equ 0FA1h ;# 
   159  0000                     # 2959 "E:\ProgramasWindowns\Microchip\xc8\v2.00\pic\include\pic18f4520.h"
   160                           IPR2 equ 0FA2h ;# 
   161  0000                     # 3025 "E:\ProgramasWindowns\Microchip\xc8\v2.00\pic\include\pic18f4520.h"
   162                           EECON1 equ 0FA6h ;# 
   163  0000                     # 3091 "E:\ProgramasWindowns\Microchip\xc8\v2.00\pic\include\pic18f4520.h"
   164                           EECON2 equ 0FA7h ;# 
   165  0000                     # 3098 "E:\ProgramasWindowns\Microchip\xc8\v2.00\pic\include\pic18f4520.h"
   166                           EEDATA equ 0FA8h ;# 
   167  0000                     # 3105 "E:\ProgramasWindowns\Microchip\xc8\v2.00\pic\include\pic18f4520.h"
   168                           EEADR equ 0FA9h ;# 
   169  0000                     # 3112 "E:\ProgramasWindowns\Microchip\xc8\v2.00\pic\include\pic18f4520.h"
   170                           RCSTA equ 0FABh ;# 
   171  0000                     # 3117 "E:\ProgramasWindowns\Microchip\xc8\v2.00\pic\include\pic18f4520.h"
   172                           RCSTA1 equ 0FABh ;# 
   173  0000                     # 3322 "E:\ProgramasWindowns\Microchip\xc8\v2.00\pic\include\pic18f4520.h"
   174                           TXSTA equ 0FACh ;# 
   175  0000                     # 3327 "E:\ProgramasWindowns\Microchip\xc8\v2.00\pic\include\pic18f4520.h"
   176                           TXSTA1 equ 0FACh ;# 
   177  0000                     # 3578 "E:\ProgramasWindowns\Microchip\xc8\v2.00\pic\include\pic18f4520.h"
   178                           TXREG equ 0FADh ;# 
   179  0000                     # 3583 "E:\ProgramasWindowns\Microchip\xc8\v2.00\pic\include\pic18f4520.h"
   180                           TXREG1 equ 0FADh ;# 
   181  0000                     # 3590 "E:\ProgramasWindowns\Microchip\xc8\v2.00\pic\include\pic18f4520.h"
   182                           RCREG equ 0FAEh ;# 
   183  0000                     # 3595 "E:\ProgramasWindowns\Microchip\xc8\v2.00\pic\include\pic18f4520.h"
   184                           RCREG1 equ 0FAEh ;# 
   185  0000                     # 3602 "E:\ProgramasWindowns\Microchip\xc8\v2.00\pic\include\pic18f4520.h"
   186                           SPBRG equ 0FAFh ;# 
   187  0000                     # 3607 "E:\ProgramasWindowns\Microchip\xc8\v2.00\pic\include\pic18f4520.h"
   188                           SPBRG1 equ 0FAFh ;# 
   189  0000                     # 3614 "E:\ProgramasWindowns\Microchip\xc8\v2.00\pic\include\pic18f4520.h"
   190                           SPBRGH equ 0FB0h ;# 
   191  0000                     # 3621 "E:\ProgramasWindowns\Microchip\xc8\v2.00\pic\include\pic18f4520.h"
   192                           T3CON equ 0FB1h ;# 
   193  0000                     # 3733 "E:\ProgramasWindowns\Microchip\xc8\v2.00\pic\include\pic18f4520.h"
   194                           TMR3 equ 0FB2h ;# 
   195  0000                     # 3740 "E:\ProgramasWindowns\Microchip\xc8\v2.00\pic\include\pic18f4520.h"
   196                           TMR3L equ 0FB2h ;# 
   197  0000                     # 3747 "E:\ProgramasWindowns\Microchip\xc8\v2.00\pic\include\pic18f4520.h"
   198                           TMR3H equ 0FB3h ;# 
   199  0000                     # 3754 "E:\ProgramasWindowns\Microchip\xc8\v2.00\pic\include\pic18f4520.h"
   200                           CMCON equ 0FB4h ;# 
   201  0000                     # 3844 "E:\ProgramasWindowns\Microchip\xc8\v2.00\pic\include\pic18f4520.h"
   202                           CVRCON equ 0FB5h ;# 
   203  0000                     # 3923 "E:\ProgramasWindowns\Microchip\xc8\v2.00\pic\include\pic18f4520.h"
   204                           ECCP1AS equ 0FB6h ;# 
   205  0000                     # 3928 "E:\ProgramasWindowns\Microchip\xc8\v2.00\pic\include\pic18f4520.h"
   206                           ECCPAS equ 0FB6h ;# 
   207  0000                     # 4085 "E:\ProgramasWindowns\Microchip\xc8\v2.00\pic\include\pic18f4520.h"
   208                           PWM1CON equ 0FB7h ;# 
   209  0000                     # 4090 "E:\ProgramasWindowns\Microchip\xc8\v2.00\pic\include\pic18f4520.h"
   210                           ECCP1DEL equ 0FB7h ;# 
   211  0000                     # 4223 "E:\ProgramasWindowns\Microchip\xc8\v2.00\pic\include\pic18f4520.h"
   212                           BAUDCON equ 0FB8h ;# 
   213  0000                     # 4228 "E:\ProgramasWindowns\Microchip\xc8\v2.00\pic\include\pic18f4520.h"
   214                           BAUDCTL equ 0FB8h ;# 
   215  0000                     # 4403 "E:\ProgramasWindowns\Microchip\xc8\v2.00\pic\include\pic18f4520.h"
   216                           CCP2CON equ 0FBAh ;# 
   217  0000                     # 4482 "E:\ProgramasWindowns\Microchip\xc8\v2.00\pic\include\pic18f4520.h"
   218                           CCPR2 equ 0FBBh ;# 
   219  0000                     # 4489 "E:\ProgramasWindowns\Microchip\xc8\v2.00\pic\include\pic18f4520.h"
   220                           CCPR2L equ 0FBBh ;# 
   221  0000                     # 4496 "E:\ProgramasWindowns\Microchip\xc8\v2.00\pic\include\pic18f4520.h"
   222                           CCPR2H equ 0FBCh ;# 
   223  0000                     # 4503 "E:\ProgramasWindowns\Microchip\xc8\v2.00\pic\include\pic18f4520.h"
   224                           CCP1CON equ 0FBDh ;# 
   225  0000                     # 4600 "E:\ProgramasWindowns\Microchip\xc8\v2.00\pic\include\pic18f4520.h"
   226                           CCPR1 equ 0FBEh ;# 
   227  0000                     # 4607 "E:\ProgramasWindowns\Microchip\xc8\v2.00\pic\include\pic18f4520.h"
   228                           CCPR1L equ 0FBEh ;# 
   229  0000                     # 4614 "E:\ProgramasWindowns\Microchip\xc8\v2.00\pic\include\pic18f4520.h"
   230                           CCPR1H equ 0FBFh ;# 
   231  0000                     # 4621 "E:\ProgramasWindowns\Microchip\xc8\v2.00\pic\include\pic18f4520.h"
   232                           ADCON2 equ 0FC0h ;# 
   233  0000                     # 4692 "E:\ProgramasWindowns\Microchip\xc8\v2.00\pic\include\pic18f4520.h"
   234                           ADCON1 equ 0FC1h ;# 
   235  0000                     # 4777 "E:\ProgramasWindowns\Microchip\xc8\v2.00\pic\include\pic18f4520.h"
   236                           ADCON0 equ 0FC2h ;# 
   237  0000                     # 4896 "E:\ProgramasWindowns\Microchip\xc8\v2.00\pic\include\pic18f4520.h"
   238                           ADRES equ 0FC3h ;# 
   239  0000                     # 4903 "E:\ProgramasWindowns\Microchip\xc8\v2.00\pic\include\pic18f4520.h"
   240                           ADRESL equ 0FC3h ;# 
   241  0000                     # 4910 "E:\ProgramasWindowns\Microchip\xc8\v2.00\pic\include\pic18f4520.h"
   242                           ADRESH equ 0FC4h ;# 
   243  0000                     # 4917 "E:\ProgramasWindowns\Microchip\xc8\v2.00\pic\include\pic18f4520.h"
   244                           SSPCON2 equ 0FC5h ;# 
   245  0000                     # 5012 "E:\ProgramasWindowns\Microchip\xc8\v2.00\pic\include\pic18f4520.h"
   246                           SSPCON1 equ 0FC6h ;# 
   247  0000                     # 5082 "E:\ProgramasWindowns\Microchip\xc8\v2.00\pic\include\pic18f4520.h"
   248                           SSPSTAT equ 0FC7h ;# 
   249  0000                     # 5303 "E:\ProgramasWindowns\Microchip\xc8\v2.00\pic\include\pic18f4520.h"
   250                           SSPADD equ 0FC8h ;# 
   251  0000                     # 5310 "E:\ProgramasWindowns\Microchip\xc8\v2.00\pic\include\pic18f4520.h"
   252                           SSPBUF equ 0FC9h ;# 
   253  0000                     # 5317 "E:\ProgramasWindowns\Microchip\xc8\v2.00\pic\include\pic18f4520.h"
   254                           T2CON equ 0FCAh ;# 
   255  0000                     # 5415 "E:\ProgramasWindowns\Microchip\xc8\v2.00\pic\include\pic18f4520.h"
   256                           PR2 equ 0FCBh ;# 
   257  0000                     # 5420 "E:\ProgramasWindowns\Microchip\xc8\v2.00\pic\include\pic18f4520.h"
   258                           MEMCON equ 0FCBh ;# 
   259  0000                     # 5525 "E:\ProgramasWindowns\Microchip\xc8\v2.00\pic\include\pic18f4520.h"
   260                           TMR2 equ 0FCCh ;# 
   261  0000                     # 5532 "E:\ProgramasWindowns\Microchip\xc8\v2.00\pic\include\pic18f4520.h"
   262                           T1CON equ 0FCDh ;# 
   263  0000                     # 5635 "E:\ProgramasWindowns\Microchip\xc8\v2.00\pic\include\pic18f4520.h"
   264                           TMR1 equ 0FCEh ;# 
   265  0000                     # 5642 "E:\ProgramasWindowns\Microchip\xc8\v2.00\pic\include\pic18f4520.h"
   266                           TMR1L equ 0FCEh ;# 
   267  0000                     # 5649 "E:\ProgramasWindowns\Microchip\xc8\v2.00\pic\include\pic18f4520.h"
   268                           TMR1H equ 0FCFh ;# 
   269  0000                     # 5656 "E:\ProgramasWindowns\Microchip\xc8\v2.00\pic\include\pic18f4520.h"
   270                           RCON equ 0FD0h ;# 
   271  0000                     # 5789 "E:\ProgramasWindowns\Microchip\xc8\v2.00\pic\include\pic18f4520.h"
   272                           WDTCON equ 0FD1h ;# 
   273  0000                     # 5817 "E:\ProgramasWindowns\Microchip\xc8\v2.00\pic\include\pic18f4520.h"
   274                           HLVDCON equ 0FD2h ;# 
   275  0000                     # 5822 "E:\ProgramasWindowns\Microchip\xc8\v2.00\pic\include\pic18f4520.h"
   276                           LVDCON equ 0FD2h ;# 
   277  0000                     # 6087 "E:\ProgramasWindowns\Microchip\xc8\v2.00\pic\include\pic18f4520.h"
   278                           OSCCON equ 0FD3h ;# 
   279  0000                     # 6170 "E:\ProgramasWindowns\Microchip\xc8\v2.00\pic\include\pic18f4520.h"
   280                           T0CON equ 0FD5h ;# 
   281  0000                     # 6253 "E:\ProgramasWindowns\Microchip\xc8\v2.00\pic\include\pic18f4520.h"
   282                           TMR0 equ 0FD6h ;# 
   283  0000                     # 6260 "E:\ProgramasWindowns\Microchip\xc8\v2.00\pic\include\pic18f4520.h"
   284                           TMR0L equ 0FD6h ;# 
   285  0000                     # 6267 "E:\ProgramasWindowns\Microchip\xc8\v2.00\pic\include\pic18f4520.h"
   286                           TMR0H equ 0FD7h ;# 
   287  0000                     # 6274 "E:\ProgramasWindowns\Microchip\xc8\v2.00\pic\include\pic18f4520.h"
   288                           STATUS equ 0FD8h ;# 
   289  0000                     # 6345 "E:\ProgramasWindowns\Microchip\xc8\v2.00\pic\include\pic18f4520.h"
   290                           FSR2 equ 0FD9h ;# 
   291  0000                     # 6352 "E:\ProgramasWindowns\Microchip\xc8\v2.00\pic\include\pic18f4520.h"
   292                           FSR2L equ 0FD9h ;# 
   293  0000                     # 6359 "E:\ProgramasWindowns\Microchip\xc8\v2.00\pic\include\pic18f4520.h"
   294                           FSR2H equ 0FDAh ;# 
   295  0000                     # 6366 "E:\ProgramasWindowns\Microchip\xc8\v2.00\pic\include\pic18f4520.h"
   296                           PLUSW2 equ 0FDBh ;# 
   297  0000                     # 6373 "E:\ProgramasWindowns\Microchip\xc8\v2.00\pic\include\pic18f4520.h"
   298                           PREINC2 equ 0FDCh ;# 
   299  0000                     # 6380 "E:\ProgramasWindowns\Microchip\xc8\v2.00\pic\include\pic18f4520.h"
   300                           POSTDEC2 equ 0FDDh ;# 
   301  0000                     # 6387 "E:\ProgramasWindowns\Microchip\xc8\v2.00\pic\include\pic18f4520.h"
   302                           POSTINC2 equ 0FDEh ;# 
   303  0000                     # 6394 "E:\ProgramasWindowns\Microchip\xc8\v2.00\pic\include\pic18f4520.h"
   304                           INDF2 equ 0FDFh ;# 
   305  0000                     # 6401 "E:\ProgramasWindowns\Microchip\xc8\v2.00\pic\include\pic18f4520.h"
   306                           BSR equ 0FE0h ;# 
   307  0000                     # 6408 "E:\ProgramasWindowns\Microchip\xc8\v2.00\pic\include\pic18f4520.h"
   308                           FSR1 equ 0FE1h ;# 
   309  0000                     # 6415 "E:\ProgramasWindowns\Microchip\xc8\v2.00\pic\include\pic18f4520.h"
   310                           FSR1L equ 0FE1h ;# 
   311  0000                     # 6422 "E:\ProgramasWindowns\Microchip\xc8\v2.00\pic\include\pic18f4520.h"
   312                           FSR1H equ 0FE2h ;# 
   313  0000                     # 6429 "E:\ProgramasWindowns\Microchip\xc8\v2.00\pic\include\pic18f4520.h"
   314                           PLUSW1 equ 0FE3h ;# 
   315  0000                     # 6436 "E:\ProgramasWindowns\Microchip\xc8\v2.00\pic\include\pic18f4520.h"
   316                           PREINC1 equ 0FE4h ;# 
   317  0000                     # 6443 "E:\ProgramasWindowns\Microchip\xc8\v2.00\pic\include\pic18f4520.h"
   318                           POSTDEC1 equ 0FE5h ;# 
   319  0000                     # 6450 "E:\ProgramasWindowns\Microchip\xc8\v2.00\pic\include\pic18f4520.h"
   320                           POSTINC1 equ 0FE6h ;# 
   321  0000                     # 6457 "E:\ProgramasWindowns\Microchip\xc8\v2.00\pic\include\pic18f4520.h"
   322                           INDF1 equ 0FE7h ;# 
   323  0000                     # 6464 "E:\ProgramasWindowns\Microchip\xc8\v2.00\pic\include\pic18f4520.h"
   324                           WREG equ 0FE8h ;# 
   325  0000                     # 6476 "E:\ProgramasWindowns\Microchip\xc8\v2.00\pic\include\pic18f4520.h"
   326                           FSR0 equ 0FE9h ;# 
   327  0000                     # 6483 "E:\ProgramasWindowns\Microchip\xc8\v2.00\pic\include\pic18f4520.h"
   328                           FSR0L equ 0FE9h ;# 
   329  0000                     # 6490 "E:\ProgramasWindowns\Microchip\xc8\v2.00\pic\include\pic18f4520.h"
   330                           FSR0H equ 0FEAh ;# 
   331  0000                     # 6497 "E:\ProgramasWindowns\Microchip\xc8\v2.00\pic\include\pic18f4520.h"
   332                           PLUSW0 equ 0FEBh ;# 
   333  0000                     # 6504 "E:\ProgramasWindowns\Microchip\xc8\v2.00\pic\include\pic18f4520.h"
   334                           PREINC0 equ 0FECh ;# 
   335  0000                     # 6511 "E:\ProgramasWindowns\Microchip\xc8\v2.00\pic\include\pic18f4520.h"
   336                           POSTDEC0 equ 0FEDh ;# 
   337  0000                     # 6518 "E:\ProgramasWindowns\Microchip\xc8\v2.00\pic\include\pic18f4520.h"
   338                           POSTINC0 equ 0FEEh ;# 
   339  0000                     # 6525 "E:\ProgramasWindowns\Microchip\xc8\v2.00\pic\include\pic18f4520.h"
   340                           INDF0 equ 0FEFh ;# 
   341  0000                     # 6532 "E:\ProgramasWindowns\Microchip\xc8\v2.00\pic\include\pic18f4520.h"
   342                           INTCON3 equ 0FF0h ;# 
   343  0000                     # 6624 "E:\ProgramasWindowns\Microchip\xc8\v2.00\pic\include\pic18f4520.h"
   344                           INTCON2 equ 0FF1h ;# 
   345  0000                     # 6694 "E:\ProgramasWindowns\Microchip\xc8\v2.00\pic\include\pic18f4520.h"
   346                           INTCON equ 0FF2h ;# 
   347  0000                     # 6811 "E:\ProgramasWindowns\Microchip\xc8\v2.00\pic\include\pic18f4520.h"
   348                           PROD equ 0FF3h ;# 
   349  0000                     # 6818 "E:\ProgramasWindowns\Microchip\xc8\v2.00\pic\include\pic18f4520.h"
   350                           PRODL equ 0FF3h ;# 
   351  0000                     # 6825 "E:\ProgramasWindowns\Microchip\xc8\v2.00\pic\include\pic18f4520.h"
   352                           PRODH equ 0FF4h ;# 
   353  0000                     # 6832 "E:\ProgramasWindowns\Microchip\xc8\v2.00\pic\include\pic18f4520.h"
   354                           TABLAT equ 0FF5h ;# 
   355  0000                     # 6841 "E:\ProgramasWindowns\Microchip\xc8\v2.00\pic\include\pic18f4520.h"
   356                           TBLPTR equ 0FF6h ;# 
   357  0000                     # 6848 "E:\ProgramasWindowns\Microchip\xc8\v2.00\pic\include\pic18f4520.h"
   358                           TBLPTRL equ 0FF6h ;# 
   359  0000                     # 6855 "E:\ProgramasWindowns\Microchip\xc8\v2.00\pic\include\pic18f4520.h"
   360                           TBLPTRH equ 0FF7h ;# 
   361  0000                     # 6862 "E:\ProgramasWindowns\Microchip\xc8\v2.00\pic\include\pic18f4520.h"
   362                           TBLPTRU equ 0FF8h ;# 
   363  0000                     # 6871 "E:\ProgramasWindowns\Microchip\xc8\v2.00\pic\include\pic18f4520.h"
   364                           PCLAT equ 0FF9h ;# 
   365  0000                     # 6878 "E:\ProgramasWindowns\Microchip\xc8\v2.00\pic\include\pic18f4520.h"
   366                           PC equ 0FF9h ;# 
   367  0000                     # 6885 "E:\ProgramasWindowns\Microchip\xc8\v2.00\pic\include\pic18f4520.h"
   368                           PCL equ 0FF9h ;# 
   369  0000                     # 6892 "E:\ProgramasWindowns\Microchip\xc8\v2.00\pic\include\pic18f4520.h"
   370                           PCLATH equ 0FFAh ;# 
   371  0000                     # 6899 "E:\ProgramasWindowns\Microchip\xc8\v2.00\pic\include\pic18f4520.h"
   372                           PCLATU equ 0FFBh ;# 
   373  0000                     # 6906 "E:\ProgramasWindowns\Microchip\xc8\v2.00\pic\include\pic18f4520.h"
   374                           STKPTR equ 0FFCh ;# 
   375  0000                     # 6980 "E:\ProgramasWindowns\Microchip\xc8\v2.00\pic\include\pic18f4520.h"
   376                           TOS equ 0FFDh ;# 
   377  0000                     # 6987 "E:\ProgramasWindowns\Microchip\xc8\v2.00\pic\include\pic18f4520.h"
   378                           TOSL equ 0FFDh ;# 
   379  0000                     # 6994 "E:\ProgramasWindowns\Microchip\xc8\v2.00\pic\include\pic18f4520.h"
   380                           TOSH equ 0FFEh ;# 
   381  0000                     # 7001 "E:\ProgramasWindowns\Microchip\xc8\v2.00\pic\include\pic18f4520.h"
   382                           TOSU equ 0FFFh ;# 
   383  0000                     # 54 "E:\ProgramasWindowns\Microchip\xc8\v2.00\pic\include\pic18f4520.h"
   384                           PORTA equ 0F80h ;# 
   385  0000                     # 273 "E:\ProgramasWindowns\Microchip\xc8\v2.00\pic\include\pic18f4520.h"
   386                           PORTB equ 0F81h ;# 
   387  0000                     # 452 "E:\ProgramasWindowns\Microchip\xc8\v2.00\pic\include\pic18f4520.h"
   388                           PORTC equ 0F82h ;# 
   389  0000                     # 634 "E:\ProgramasWindowns\Microchip\xc8\v2.00\pic\include\pic18f4520.h"
   390                           PORTD equ 0F83h ;# 
   391  0000                     # 776 "E:\ProgramasWindowns\Microchip\xc8\v2.00\pic\include\pic18f4520.h"
   392                           PORTE equ 0F84h ;# 
   393  0000                     # 979 "E:\ProgramasWindowns\Microchip\xc8\v2.00\pic\include\pic18f4520.h"
   394                           LATA equ 0F89h ;# 
   395  0000                     # 1091 "E:\ProgramasWindowns\Microchip\xc8\v2.00\pic\include\pic18f4520.h"
   396                           LATB equ 0F8Ah ;# 
   397  0000                     # 1203 "E:\ProgramasWindowns\Microchip\xc8\v2.00\pic\include\pic18f4520.h"
   398                           LATC equ 0F8Bh ;# 
   399  0000                     # 1315 "E:\ProgramasWindowns\Microchip\xc8\v2.00\pic\include\pic18f4520.h"
   400                           LATD equ 0F8Ch ;# 
   401  0000                     # 1427 "E:\ProgramasWindowns\Microchip\xc8\v2.00\pic\include\pic18f4520.h"
   402                           LATE equ 0F8Dh ;# 
   403  0000                     # 1479 "E:\ProgramasWindowns\Microchip\xc8\v2.00\pic\include\pic18f4520.h"
   404                           TRISA equ 0F92h ;# 
   405  0000                     # 1484 "E:\ProgramasWindowns\Microchip\xc8\v2.00\pic\include\pic18f4520.h"
   406                           DDRA equ 0F92h ;# 
   407  0000                     # 1701 "E:\ProgramasWindowns\Microchip\xc8\v2.00\pic\include\pic18f4520.h"
   408                           TRISB equ 0F93h ;# 
   409  0000                     # 1706 "E:\ProgramasWindowns\Microchip\xc8\v2.00\pic\include\pic18f4520.h"
   410                           DDRB equ 0F93h ;# 
   411  0000                     # 1923 "E:\ProgramasWindowns\Microchip\xc8\v2.00\pic\include\pic18f4520.h"
   412                           TRISC equ 0F94h ;# 
   413  0000                     # 1928 "E:\ProgramasWindowns\Microchip\xc8\v2.00\pic\include\pic18f4520.h"
   414                           DDRC equ 0F94h ;# 
   415  0000                     # 2145 "E:\ProgramasWindowns\Microchip\xc8\v2.00\pic\include\pic18f4520.h"
   416                           TRISD equ 0F95h ;# 
   417  0000                     # 2150 "E:\ProgramasWindowns\Microchip\xc8\v2.00\pic\include\pic18f4520.h"
   418                           DDRD equ 0F95h ;# 
   419  0000                     # 2367 "E:\ProgramasWindowns\Microchip\xc8\v2.00\pic\include\pic18f4520.h"
   420                           TRISE equ 0F96h ;# 
   421  0000                     # 2372 "E:\ProgramasWindowns\Microchip\xc8\v2.00\pic\include\pic18f4520.h"
   422                           DDRE equ 0F96h ;# 
   423  0000                     # 2531 "E:\ProgramasWindowns\Microchip\xc8\v2.00\pic\include\pic18f4520.h"
   424                           OSCTUNE equ 0F9Bh ;# 
   425  0000                     # 2596 "E:\ProgramasWindowns\Microchip\xc8\v2.00\pic\include\pic18f4520.h"
   426                           PIE1 equ 0F9Dh ;# 
   427  0000                     # 2673 "E:\ProgramasWindowns\Microchip\xc8\v2.00\pic\include\pic18f4520.h"
   428                           PIR1 equ 0F9Eh ;# 
   429  0000                     # 2750 "E:\ProgramasWindowns\Microchip\xc8\v2.00\pic\include\pic18f4520.h"
   430                           IPR1 equ 0F9Fh ;# 
   431  0000                     # 2827 "E:\ProgramasWindowns\Microchip\xc8\v2.00\pic\include\pic18f4520.h"
   432                           PIE2 equ 0FA0h ;# 
   433  0000                     # 2893 "E:\ProgramasWindowns\Microchip\xc8\v2.00\pic\include\pic18f4520.h"
   434                           PIR2 equ 0FA1h ;# 
   435  0000                     # 2959 "E:\ProgramasWindowns\Microchip\xc8\v2.00\pic\include\pic18f4520.h"
   436                           IPR2 equ 0FA2h ;# 
   437  0000                     # 3025 "E:\ProgramasWindowns\Microchip\xc8\v2.00\pic\include\pic18f4520.h"
   438                           EECON1 equ 0FA6h ;# 
   439  0000                     # 3091 "E:\ProgramasWindowns\Microchip\xc8\v2.00\pic\include\pic18f4520.h"
   440                           EECON2 equ 0FA7h ;# 
   441  0000                     # 3098 "E:\ProgramasWindowns\Microchip\xc8\v2.00\pic\include\pic18f4520.h"
   442                           EEDATA equ 0FA8h ;# 
   443  0000                     # 3105 "E:\ProgramasWindowns\Microchip\xc8\v2.00\pic\include\pic18f4520.h"
   444                           EEADR equ 0FA9h ;# 
   445  0000                     # 3112 "E:\ProgramasWindowns\Microchip\xc8\v2.00\pic\include\pic18f4520.h"
   446                           RCSTA equ 0FABh ;# 
   447  0000                     # 3117 "E:\ProgramasWindowns\Microchip\xc8\v2.00\pic\include\pic18f4520.h"
   448                           RCSTA1 equ 0FABh ;# 
   449  0000                     # 3322 "E:\ProgramasWindowns\Microchip\xc8\v2.00\pic\include\pic18f4520.h"
   450                           TXSTA equ 0FACh ;# 
   451  0000                     # 3327 "E:\ProgramasWindowns\Microchip\xc8\v2.00\pic\include\pic18f4520.h"
   452                           TXSTA1 equ 0FACh ;# 
   453  0000                     # 3578 "E:\ProgramasWindowns\Microchip\xc8\v2.00\pic\include\pic18f4520.h"
   454                           TXREG equ 0FADh ;# 
   455  0000                     # 3583 "E:\ProgramasWindowns\Microchip\xc8\v2.00\pic\include\pic18f4520.h"
   456                           TXREG1 equ 0FADh ;# 
   457  0000                     # 3590 "E:\ProgramasWindowns\Microchip\xc8\v2.00\pic\include\pic18f4520.h"
   458                           RCREG equ 0FAEh ;# 
   459  0000                     # 3595 "E:\ProgramasWindowns\Microchip\xc8\v2.00\pic\include\pic18f4520.h"
   460                           RCREG1 equ 0FAEh ;# 
   461  0000                     # 3602 "E:\ProgramasWindowns\Microchip\xc8\v2.00\pic\include\pic18f4520.h"
   462                           SPBRG equ 0FAFh ;# 
   463  0000                     # 3607 "E:\ProgramasWindowns\Microchip\xc8\v2.00\pic\include\pic18f4520.h"
   464                           SPBRG1 equ 0FAFh ;# 
   465  0000                     # 3614 "E:\ProgramasWindowns\Microchip\xc8\v2.00\pic\include\pic18f4520.h"
   466                           SPBRGH equ 0FB0h ;# 
   467  0000                     # 3621 "E:\ProgramasWindowns\Microchip\xc8\v2.00\pic\include\pic18f4520.h"
   468                           T3CON equ 0FB1h ;# 
   469  0000                     # 3733 "E:\ProgramasWindowns\Microchip\xc8\v2.00\pic\include\pic18f4520.h"
   470                           TMR3 equ 0FB2h ;# 
   471  0000                     # 3740 "E:\ProgramasWindowns\Microchip\xc8\v2.00\pic\include\pic18f4520.h"
   472                           TMR3L equ 0FB2h ;# 
   473  0000                     # 3747 "E:\ProgramasWindowns\Microchip\xc8\v2.00\pic\include\pic18f4520.h"
   474                           TMR3H equ 0FB3h ;# 
   475  0000                     # 3754 "E:\ProgramasWindowns\Microchip\xc8\v2.00\pic\include\pic18f4520.h"
   476                           CMCON equ 0FB4h ;# 
   477  0000                     # 3844 "E:\ProgramasWindowns\Microchip\xc8\v2.00\pic\include\pic18f4520.h"
   478                           CVRCON equ 0FB5h ;# 
   479  0000                     # 3923 "E:\ProgramasWindowns\Microchip\xc8\v2.00\pic\include\pic18f4520.h"
   480                           ECCP1AS equ 0FB6h ;# 
   481  0000                     # 3928 "E:\ProgramasWindowns\Microchip\xc8\v2.00\pic\include\pic18f4520.h"
   482                           ECCPAS equ 0FB6h ;# 
   483  0000                     # 4085 "E:\ProgramasWindowns\Microchip\xc8\v2.00\pic\include\pic18f4520.h"
   484                           PWM1CON equ 0FB7h ;# 
   485  0000                     # 4090 "E:\ProgramasWindowns\Microchip\xc8\v2.00\pic\include\pic18f4520.h"
   486                           ECCP1DEL equ 0FB7h ;# 
   487  0000                     # 4223 "E:\ProgramasWindowns\Microchip\xc8\v2.00\pic\include\pic18f4520.h"
   488                           BAUDCON equ 0FB8h ;# 
   489  0000                     # 4228 "E:\ProgramasWindowns\Microchip\xc8\v2.00\pic\include\pic18f4520.h"
   490                           BAUDCTL equ 0FB8h ;# 
   491  0000                     # 4403 "E:\ProgramasWindowns\Microchip\xc8\v2.00\pic\include\pic18f4520.h"
   492                           CCP2CON equ 0FBAh ;# 
   493  0000                     # 4482 "E:\ProgramasWindowns\Microchip\xc8\v2.00\pic\include\pic18f4520.h"
   494                           CCPR2 equ 0FBBh ;# 
   495  0000                     # 4489 "E:\ProgramasWindowns\Microchip\xc8\v2.00\pic\include\pic18f4520.h"
   496                           CCPR2L equ 0FBBh ;# 
   497  0000                     # 4496 "E:\ProgramasWindowns\Microchip\xc8\v2.00\pic\include\pic18f4520.h"
   498                           CCPR2H equ 0FBCh ;# 
   499  0000                     # 4503 "E:\ProgramasWindowns\Microchip\xc8\v2.00\pic\include\pic18f4520.h"
   500                           CCP1CON equ 0FBDh ;# 
   501  0000                     # 4600 "E:\ProgramasWindowns\Microchip\xc8\v2.00\pic\include\pic18f4520.h"
   502                           CCPR1 equ 0FBEh ;# 
   503  0000                     # 4607 "E:\ProgramasWindowns\Microchip\xc8\v2.00\pic\include\pic18f4520.h"
   504                           CCPR1L equ 0FBEh ;# 
   505  0000                     # 4614 "E:\ProgramasWindowns\Microchip\xc8\v2.00\pic\include\pic18f4520.h"
   506                           CCPR1H equ 0FBFh ;# 
   507  0000                     # 4621 "E:\ProgramasWindowns\Microchip\xc8\v2.00\pic\include\pic18f4520.h"
   508                           ADCON2 equ 0FC0h ;# 
   509  0000                     # 4692 "E:\ProgramasWindowns\Microchip\xc8\v2.00\pic\include\pic18f4520.h"
   510                           ADCON1 equ 0FC1h ;# 
   511  0000                     # 4777 "E:\ProgramasWindowns\Microchip\xc8\v2.00\pic\include\pic18f4520.h"
   512                           ADCON0 equ 0FC2h ;# 
   513  0000                     # 4896 "E:\ProgramasWindowns\Microchip\xc8\v2.00\pic\include\pic18f4520.h"
   514                           ADRES equ 0FC3h ;# 
   515  0000                     # 4903 "E:\ProgramasWindowns\Microchip\xc8\v2.00\pic\include\pic18f4520.h"
   516                           ADRESL equ 0FC3h ;# 
   517  0000                     # 4910 "E:\ProgramasWindowns\Microchip\xc8\v2.00\pic\include\pic18f4520.h"
   518                           ADRESH equ 0FC4h ;# 
   519  0000                     # 4917 "E:\ProgramasWindowns\Microchip\xc8\v2.00\pic\include\pic18f4520.h"
   520                           SSPCON2 equ 0FC5h ;# 
   521  0000                     # 5012 "E:\ProgramasWindowns\Microchip\xc8\v2.00\pic\include\pic18f4520.h"
   522                           SSPCON1 equ 0FC6h ;# 
   523  0000                     # 5082 "E:\ProgramasWindowns\Microchip\xc8\v2.00\pic\include\pic18f4520.h"
   524                           SSPSTAT equ 0FC7h ;# 
   525  0000                     # 5303 "E:\ProgramasWindowns\Microchip\xc8\v2.00\pic\include\pic18f4520.h"
   526                           SSPADD equ 0FC8h ;# 
   527  0000                     # 5310 "E:\ProgramasWindowns\Microchip\xc8\v2.00\pic\include\pic18f4520.h"
   528                           SSPBUF equ 0FC9h ;# 
   529  0000                     # 5317 "E:\ProgramasWindowns\Microchip\xc8\v2.00\pic\include\pic18f4520.h"
   530                           T2CON equ 0FCAh ;# 
   531  0000                     # 5415 "E:\ProgramasWindowns\Microchip\xc8\v2.00\pic\include\pic18f4520.h"
   532                           PR2 equ 0FCBh ;# 
   533  0000                     # 5420 "E:\ProgramasWindowns\Microchip\xc8\v2.00\pic\include\pic18f4520.h"
   534                           MEMCON equ 0FCBh ;# 
   535  0000                     # 5525 "E:\ProgramasWindowns\Microchip\xc8\v2.00\pic\include\pic18f4520.h"
   536                           TMR2 equ 0FCCh ;# 
   537  0000                     # 5532 "E:\ProgramasWindowns\Microchip\xc8\v2.00\pic\include\pic18f4520.h"
   538                           T1CON equ 0FCDh ;# 
   539  0000                     # 5635 "E:\ProgramasWindowns\Microchip\xc8\v2.00\pic\include\pic18f4520.h"
   540                           TMR1 equ 0FCEh ;# 
   541  0000                     # 5642 "E:\ProgramasWindowns\Microchip\xc8\v2.00\pic\include\pic18f4520.h"
   542                           TMR1L equ 0FCEh ;# 
   543  0000                     # 5649 "E:\ProgramasWindowns\Microchip\xc8\v2.00\pic\include\pic18f4520.h"
   544                           TMR1H equ 0FCFh ;# 
   545  0000                     # 5656 "E:\ProgramasWindowns\Microchip\xc8\v2.00\pic\include\pic18f4520.h"
   546                           RCON equ 0FD0h ;# 
   547  0000                     # 5789 "E:\ProgramasWindowns\Microchip\xc8\v2.00\pic\include\pic18f4520.h"
   548                           WDTCON equ 0FD1h ;# 
   549  0000                     # 5817 "E:\ProgramasWindowns\Microchip\xc8\v2.00\pic\include\pic18f4520.h"
   550                           HLVDCON equ 0FD2h ;# 
   551  0000                     # 5822 "E:\ProgramasWindowns\Microchip\xc8\v2.00\pic\include\pic18f4520.h"
   552                           LVDCON equ 0FD2h ;# 
   553  0000                     # 6087 "E:\ProgramasWindowns\Microchip\xc8\v2.00\pic\include\pic18f4520.h"
   554                           OSCCON equ 0FD3h ;# 
   555  0000                     # 6170 "E:\ProgramasWindowns\Microchip\xc8\v2.00\pic\include\pic18f4520.h"
   556                           T0CON equ 0FD5h ;# 
   557  0000                     # 6253 "E:\ProgramasWindowns\Microchip\xc8\v2.00\pic\include\pic18f4520.h"
   558                           TMR0 equ 0FD6h ;# 
   559  0000                     # 6260 "E:\ProgramasWindowns\Microchip\xc8\v2.00\pic\include\pic18f4520.h"
   560                           TMR0L equ 0FD6h ;# 
   561  0000                     # 6267 "E:\ProgramasWindowns\Microchip\xc8\v2.00\pic\include\pic18f4520.h"
   562                           TMR0H equ 0FD7h ;# 
   563  0000                     # 6274 "E:\ProgramasWindowns\Microchip\xc8\v2.00\pic\include\pic18f4520.h"
   564                           STATUS equ 0FD8h ;# 
   565  0000                     # 6345 "E:\ProgramasWindowns\Microchip\xc8\v2.00\pic\include\pic18f4520.h"
   566                           FSR2 equ 0FD9h ;# 
   567  0000                     # 6352 "E:\ProgramasWindowns\Microchip\xc8\v2.00\pic\include\pic18f4520.h"
   568                           FSR2L equ 0FD9h ;# 
   569  0000                     # 6359 "E:\ProgramasWindowns\Microchip\xc8\v2.00\pic\include\pic18f4520.h"
   570                           FSR2H equ 0FDAh ;# 
   571  0000                     # 6366 "E:\ProgramasWindowns\Microchip\xc8\v2.00\pic\include\pic18f4520.h"
   572                           PLUSW2 equ 0FDBh ;# 
   573  0000                     # 6373 "E:\ProgramasWindowns\Microchip\xc8\v2.00\pic\include\pic18f4520.h"
   574                           PREINC2 equ 0FDCh ;# 
   575  0000                     # 6380 "E:\ProgramasWindowns\Microchip\xc8\v2.00\pic\include\pic18f4520.h"
   576                           POSTDEC2 equ 0FDDh ;# 
   577  0000                     # 6387 "E:\ProgramasWindowns\Microchip\xc8\v2.00\pic\include\pic18f4520.h"
   578                           POSTINC2 equ 0FDEh ;# 
   579  0000                     # 6394 "E:\ProgramasWindowns\Microchip\xc8\v2.00\pic\include\pic18f4520.h"
   580                           INDF2 equ 0FDFh ;# 
   581  0000                     # 6401 "E:\ProgramasWindowns\Microchip\xc8\v2.00\pic\include\pic18f4520.h"
   582                           BSR equ 0FE0h ;# 
   583  0000                     # 6408 "E:\ProgramasWindowns\Microchip\xc8\v2.00\pic\include\pic18f4520.h"
   584                           FSR1 equ 0FE1h ;# 
   585  0000                     # 6415 "E:\ProgramasWindowns\Microchip\xc8\v2.00\pic\include\pic18f4520.h"
   586                           FSR1L equ 0FE1h ;# 
   587  0000                     # 6422 "E:\ProgramasWindowns\Microchip\xc8\v2.00\pic\include\pic18f4520.h"
   588                           FSR1H equ 0FE2h ;# 
   589  0000                     # 6429 "E:\ProgramasWindowns\Microchip\xc8\v2.00\pic\include\pic18f4520.h"
   590                           PLUSW1 equ 0FE3h ;# 
   591  0000                     # 6436 "E:\ProgramasWindowns\Microchip\xc8\v2.00\pic\include\pic18f4520.h"
   592                           PREINC1 equ 0FE4h ;# 
   593  0000                     # 6443 "E:\ProgramasWindowns\Microchip\xc8\v2.00\pic\include\pic18f4520.h"
   594                           POSTDEC1 equ 0FE5h ;# 
   595  0000                     # 6450 "E:\ProgramasWindowns\Microchip\xc8\v2.00\pic\include\pic18f4520.h"
   596                           POSTINC1 equ 0FE6h ;# 
   597  0000                     # 6457 "E:\ProgramasWindowns\Microchip\xc8\v2.00\pic\include\pic18f4520.h"
   598                           INDF1 equ 0FE7h ;# 
   599  0000                     # 6464 "E:\ProgramasWindowns\Microchip\xc8\v2.00\pic\include\pic18f4520.h"
   600                           WREG equ 0FE8h ;# 
   601  0000                     # 6476 "E:\ProgramasWindowns\Microchip\xc8\v2.00\pic\include\pic18f4520.h"
   602                           FSR0 equ 0FE9h ;# 
   603  0000                     # 6483 "E:\ProgramasWindowns\Microchip\xc8\v2.00\pic\include\pic18f4520.h"
   604                           FSR0L equ 0FE9h ;# 
   605  0000                     # 6490 "E:\ProgramasWindowns\Microchip\xc8\v2.00\pic\include\pic18f4520.h"
   606                           FSR0H equ 0FEAh ;# 
   607  0000                     # 6497 "E:\ProgramasWindowns\Microchip\xc8\v2.00\pic\include\pic18f4520.h"
   608                           PLUSW0 equ 0FEBh ;# 
   609  0000                     # 6504 "E:\ProgramasWindowns\Microchip\xc8\v2.00\pic\include\pic18f4520.h"
   610                           PREINC0 equ 0FECh ;# 
   611  0000                     # 6511 "E:\ProgramasWindowns\Microchip\xc8\v2.00\pic\include\pic18f4520.h"
   612                           POSTDEC0 equ 0FEDh ;# 
   613  0000                     # 6518 "E:\ProgramasWindowns\Microchip\xc8\v2.00\pic\include\pic18f4520.h"
   614                           POSTINC0 equ 0FEEh ;# 
   615  0000                     # 6525 "E:\ProgramasWindowns\Microchip\xc8\v2.00\pic\include\pic18f4520.h"
   616                           INDF0 equ 0FEFh ;# 
   617  0000                     # 6532 "E:\ProgramasWindowns\Microchip\xc8\v2.00\pic\include\pic18f4520.h"
   618                           INTCON3 equ 0FF0h ;# 
   619  0000                     # 6624 "E:\ProgramasWindowns\Microchip\xc8\v2.00\pic\include\pic18f4520.h"
   620                           INTCON2 equ 0FF1h ;# 
   621  0000                     # 6694 "E:\ProgramasWindowns\Microchip\xc8\v2.00\pic\include\pic18f4520.h"
   622                           INTCON equ 0FF2h ;# 
   623  0000                     # 6811 "E:\ProgramasWindowns\Microchip\xc8\v2.00\pic\include\pic18f4520.h"
   624                           PROD equ 0FF3h ;# 
   625  0000                     # 6818 "E:\ProgramasWindowns\Microchip\xc8\v2.00\pic\include\pic18f4520.h"
   626                           PRODL equ 0FF3h ;# 
   627  0000                     # 6825 "E:\ProgramasWindowns\Microchip\xc8\v2.00\pic\include\pic18f4520.h"
   628                           PRODH equ 0FF4h ;# 
   629  0000                     # 6832 "E:\ProgramasWindowns\Microchip\xc8\v2.00\pic\include\pic18f4520.h"
   630                           TABLAT equ 0FF5h ;# 
   631  0000                     # 6841 "E:\ProgramasWindowns\Microchip\xc8\v2.00\pic\include\pic18f4520.h"
   632                           TBLPTR equ 0FF6h ;# 
   633  0000                     # 6848 "E:\ProgramasWindowns\Microchip\xc8\v2.00\pic\include\pic18f4520.h"
   634                           TBLPTRL equ 0FF6h ;# 
   635  0000                     # 6855 "E:\ProgramasWindowns\Microchip\xc8\v2.00\pic\include\pic18f4520.h"
   636                           TBLPTRH equ 0FF7h ;# 
   637  0000                     # 6862 "E:\ProgramasWindowns\Microchip\xc8\v2.00\pic\include\pic18f4520.h"
   638                           TBLPTRU equ 0FF8h ;# 
   639  0000                     # 6871 "E:\ProgramasWindowns\Microchip\xc8\v2.00\pic\include\pic18f4520.h"
   640                           PCLAT equ 0FF9h ;# 
   641  0000                     # 6878 "E:\ProgramasWindowns\Microchip\xc8\v2.00\pic\include\pic18f4520.h"
   642                           PC equ 0FF9h ;# 
   643  0000                     # 6885 "E:\ProgramasWindowns\Microchip\xc8\v2.00\pic\include\pic18f4520.h"
   644                           PCL equ 0FF9h ;# 
   645  0000                     # 6892 "E:\ProgramasWindowns\Microchip\xc8\v2.00\pic\include\pic18f4520.h"
   646                           PCLATH equ 0FFAh ;# 
   647  0000                     # 6899 "E:\ProgramasWindowns\Microchip\xc8\v2.00\pic\include\pic18f4520.h"
   648                           PCLATU equ 0FFBh ;# 
   649  0000                     # 6906 "E:\ProgramasWindowns\Microchip\xc8\v2.00\pic\include\pic18f4520.h"
   650                           STKPTR equ 0FFCh ;# 
   651  0000                     # 6980 "E:\ProgramasWindowns\Microchip\xc8\v2.00\pic\include\pic18f4520.h"
   652                           TOS equ 0FFDh ;# 
   653  0000                     # 6987 "E:\ProgramasWindowns\Microchip\xc8\v2.00\pic\include\pic18f4520.h"
   654                           TOSL equ 0FFDh ;# 
   655  0000                     # 6994 "E:\ProgramasWindowns\Microchip\xc8\v2.00\pic\include\pic18f4520.h"
   656                           TOSH equ 0FFEh ;# 
   657  0000                     # 7001 "E:\ProgramasWindowns\Microchip\xc8\v2.00\pic\include\pic18f4520.h"
   658                           TOSU equ 0FFFh ;# 
   659  0000                     	FNCALL	_main,_config
   660                           	FNCALL	_main,_estadosMaquina
   661                           	FNCALL	_main,_lcd_init
   662                           	FNCALL	_lcd_init,_lcd_clear
   663                           	FNCALL	_lcd_init,_lcd_write
   664                           	FNCALL	_estadosMaquina,_escreve
   665                           	FNCALL	_estadosMaquina,_sprintf
   666                           	FNCALL	_estadosMaquina,_tempo1
   667                           	FNCALL	_tempo1,_escreve2
   668                           	FNCALL	_tempo1,_sprintf
   669                           	FNCALL	_sprintf,_vfprintf
   670                           	FNCALL	_vfprintf,_vfpfcnvrt
   671                           	FNCALL	_vfpfcnvrt,_dtoa
   672                           	FNCALL	_vfpfcnvrt,_fputc
   673                           	FNCALL	_dtoa,___aodiv
   674                           	FNCALL	_dtoa,___aomod
   675                           	FNCALL	_dtoa,_abs
   676                           	FNCALL	_dtoa,_pad
   677                           	FNCALL	_pad,_fputc
   678                           	FNCALL	_pad,_fputs
   679                           	FNCALL	_pad,_strlen
   680                           	FNCALL	_fputs,_fputc
   681                           	FNCALL	_fputc,_putch
   682                           	FNCALL	_escreve2,_lcd_clear
   683                           	FNCALL	_escreve2,_lcd_goto
   684                           	FNCALL	_escreve2,_lcd_puts
   685                           	FNCALL	_escreve,_lcd_clear
   686                           	FNCALL	_escreve,_lcd_goto
   687                           	FNCALL	_escreve,_lcd_puts
   688                           	FNCALL	_lcd_puts,_lcd_write
   689                           	FNCALL	_lcd_goto,_lcd_write
   690                           	FNCALL	_lcd_clear,_lcd_write
   691                           	FNROOT	_main
   692                           	FNCALL	_tmr,i2_estadosMaquina
   693                           	FNCALL	i2_estadosMaquina,i2_escreve
   694                           	FNCALL	i2_estadosMaquina,i2_sprintf
   695                           	FNCALL	i2_estadosMaquina,i2_tempo1
   696                           	FNCALL	i2_tempo1,i2_escreve2
   697                           	FNCALL	i2_tempo1,i2_sprintf
   698                           	FNCALL	i2_sprintf,i2_vfprintf
   699                           	FNCALL	i2_vfprintf,i2_vfpfcnvrt
   700                           	FNCALL	i2_vfpfcnvrt,i2_dtoa
   701                           	FNCALL	i2_vfpfcnvrt,i2_fputc
   702                           	FNCALL	i2_dtoa,i2___aodiv
   703                           	FNCALL	i2_dtoa,i2___aomod
   704                           	FNCALL	i2_dtoa,i2_abs
   705                           	FNCALL	i2_dtoa,i2_pad
   706                           	FNCALL	i2_pad,i2_fputc
   707                           	FNCALL	i2_pad,i2_fputs
   708                           	FNCALL	i2_pad,i2_strlen
   709                           	FNCALL	i2_fputs,i2_fputc
   710                           	FNCALL	i2_fputc,i2_putch
   711                           	FNCALL	i2_escreve2,i2_lcd_clear
   712                           	FNCALL	i2_escreve2,i2_lcd_goto
   713                           	FNCALL	i2_escreve2,i2_lcd_puts
   714                           	FNCALL	i2_escreve,i2_lcd_clear
   715                           	FNCALL	i2_escreve,i2_lcd_goto
   716                           	FNCALL	i2_escreve,i2_lcd_puts
   717                           	FNCALL	i2_lcd_puts,i2_lcd_write
   718                           	FNCALL	i2_lcd_goto,i2_lcd_write
   719                           	FNCALL	i2_lcd_clear,i2_lcd_write
   720                           	FNCALL	intlevel2,_tmr
   721                           	global	intlevel2
   722                           	FNROOT	intlevel2
   723                           	global	_nout
   724                           	global	_width
   725                           	global	_prec
   726                           	global	_flags
   727                           	global	_estado
   728                           	global	_tempo
   729                           	global	_tempoDis
   730                           	global	_dbuf
   731                           	global	_estadoMes
   732                           	global	_TMR0
   733                           _TMR0	set	0xFD6
   734  0000                     	global	_TXREG
   735                           _TXREG	set	0xFAD
   736  0000                     	global	_PORTBbits
   737                           _PORTBbits	set	0xF81
   738  0000                     	global	_RCREG
   739                           _RCREG	set	0xFAE
   740  0000                     	global	_PORTCbits
   741                           _PORTCbits	set	0xF82
   742  0000                     	global	_PORTE
   743                           _PORTE	set	0xF84
   744  0000                     	global	_PORTB
   745                           _PORTB	set	0xF81
   746  0000                     	global	_SPBRG
   747                           _SPBRG	set	0xFAF
   748  0000                     	global	_BAUDCON
   749                           _BAUDCON	set	0xFB8
   750  0000                     	global	_RCSTA
   751                           _RCSTA	set	0xFAB
   752  0000                     	global	_TXSTA
   753                           _TXSTA	set	0xFAC
   754  0000                     	global	_ADCON2
   755                           _ADCON2	set	0xFC0
   756  0000                     	global	_ADCON1
   757                           _ADCON1	set	0xFC1
   758  0000                     	global	_ADCON0
   759                           _ADCON0	set	0xFC2
   760  0000                     	global	_T0CON
   761                           _T0CON	set	0xFD5
   762  0000                     	global	_INTCON
   763                           _INTCON	set	0xFF2
   764  0000                     	global	_OSCCON
   765                           _OSCCON	set	0xFD3
   766  0000                     	global	_TRISE
   767                           _TRISE	set	0xF96
   768  0000                     	global	_TRISD
   769                           _TRISD	set	0xF95
   770  0000                     	global	_TRISC
   771                           _TRISC	set	0xF94
   772  0000                     	global	_TRISB
   773                           _TRISB	set	0xF93
   774  0000                     	global	_TRISA
   775                           _TRISA	set	0xF92
   776  0000                     	global	_PORTD
   777                           _PORTD	set	0xF83
   778  0000                     	global	_RCIF
   779                           _RCIF	set	0x7CF5
   780  0000                     	global	_RCIP
   781                           _RCIP	set	0x7CFD
   782  0000                     	global	_RCIE
   783                           _RCIE	set	0x7CED
   784  0000                     	global	_IPEN
   785                           _IPEN	set	0x7E87
   786  0000                     	global	_LE0
   787                           _LE0	set	0x7C68
   788  0000                     	global	_LE1
   789                           _LE1	set	0x7C69
   790  0000                     psect	smallconst,class=SMALLCONST,space=0,reloc=2,noexec
   791                           global __psmallconst
   792                           __psmallconst:
   793  000600                     	db	0
   794  000600  00                 	
   795                           STR_2:
   796  000601                     	db	68	;'D'
   797  000601  44                 	db	101	;'e'
   798  000602  65                 	db	115	;'s'
   799  000603  73                 	db	108	;'l'
   800  000604  6C                 	db	105	;'i'
   801  000605  69                 	db	103	;'g'
   802  000606  67                 	db	97	;'a'
   803  000607  61                 	db	100	;'d'
   804  000608  64                 	db	111	;'o'
   805  000609  6F                 	db	0
   806  00060A  00                 	
   807                           STR_6:
   808  00060B                     	db	67	;'C'
   809  00060B  43                 	db	101	;'e'
   810  00060C  65                 	db	110	;'n'
   811  00060D  6E                 	db	116	;'t'
   812  00060E  74                 	db	114	;'r'
   813  00060F  72                 	db	105	;'i'
   814  000610  69                 	db	102	;'f'
   815  000611  66                 	db	46
   816  000612  2E                 	db	0
   817  000613  00                 	
   818                           STR_7:
   819  000614                     	db	69	;'E'
   820  000614  45                 	db	110	;'n'
   821  000615  6E                 	db	120	;'x'
   822  000616  78                 	db	97	;'a'
   823  000617  61                 	db	103	;'g'
   824  000618  67                 	db	117	;'u'
   825  000619  75                 	db	97	;'a'
   826  00061A  61                 	db	114	;'r'
   827  00061B  72                 	db	0
   828  00061C  00                 	
   829                           STR_12:
   830  00061D                     	db	69	;'E'
   831  00061D  45                 	db	115	;'s'
   832  00061E  73                 	db	116	;'t'
   833  00061F  74                 	db	97	;'a'
   834  000620  61                 	db	100	;'d'
   835  000621  64                 	db	111	;'o'
   836  000622  6F                 	db	58	;':'
   837  000623  3A                 	db	0
   838  000624  00                 	
   839                           STR_14:
   840  000625                     	db	84	;'T'
   841  000625  54                 	db	101	;'e'
   842  000626  65                 	db	109	;'m'
   843  000627  6D                 	db	112	;'p'
   844  000628  70                 	db	111	;'o'
   845  000629  6F                 	db	58	;':'
   846  00062A  3A                 	db	0
   847  00062B  00                 	
   848                           STR_5:
   849  00062C                     	db	68	;'D'
   850  00062C  44                 	db	114	;'r'
   851  00062D  72                 	db	101	;'e'
   852  00062E  65                 	db	110	;'n'
   853  00062F  6E                 	db	97	;'a'
   854  000630  61                 	db	114	;'r'
   855  000631  72                 	db	0
   856  000632  00                 	
   857                           STR_4:
   858  000633                     	db	65	;'A'
   859  000633  41                 	db	103	;'g'
   860  000634  67                 	db	105	;'i'
   861  000635  69                 	db	116	;'t'
   862  000636  74                 	db	97	;'a'
   863  000637  61                 	db	114	;'r'
   864  000638  72                 	db	0
   865  000639  00                 	
   866                           STR_3:
   867  00063A                     	db	69	;'E'
   868  00063A  45                 	db	110	;'n'
   869  00063B  6E                 	db	99	;'c'
   870  00063C  63                 	db	104	;'h'
   871  00063D  68                 	db	101	;'e'
   872  00063E  65                 	db	114	;'r'
   873  00063F  72                 	db	0
   874  000640  00                 	
   875                           STR_1:
   876  000641                     	db	37
   877  000641  25                 	db	105	;'i'
   878  000642  69                 	db	0
   879  000643  00                 STR_8	equ	STR_4+0
   880  0000                     STR_9	equ	STR_5+0
   881  0000                     STR_11	equ	STR_2+0
   882  0000                     STR_13	equ	STR_12+0
   883  0000                     STR_10	equ	STR_6+0
   884  0000                     ; #config settings
   885                           global __CFG_OSC$INTIO67
   886                           __CFG_OSC$INTIO67 equ 0x0
   887  0000                     global __CFG_FCMEN$OFF
   888                           __CFG_FCMEN$OFF equ 0x0
   889  0000                     global __CFG_IESO$OFF
   890                           __CFG_IESO$OFF equ 0x0
   891  0000                     global __CFG_PWRT$OFF
   892                           __CFG_PWRT$OFF equ 0x0
   893  0000                     global __CFG_BOREN$SBORDIS
   894                           __CFG_BOREN$SBORDIS equ 0x0
   895  0000                     global __CFG_BORV$3
   896                           __CFG_BORV$3 equ 0x0
   897  0000                     global __CFG_WDT$OFF
   898                           __CFG_WDT$OFF equ 0x0
   899  0000                     global __CFG_WDTPS$32768
   900                           __CFG_WDTPS$32768 equ 0x0
   901  0000                     global __CFG_CCP2MX$PORTC
   902                           __CFG_CCP2MX$PORTC equ 0x0
   903  0000                     global __CFG_PBADEN$OFF
   904                           __CFG_PBADEN$OFF equ 0x0
   905  0000                     global __CFG_LPT1OSC$OFF
   906                           __CFG_LPT1OSC$OFF equ 0x0
   907  0000                     global __CFG_MCLRE$ON
   908                           __CFG_MCLRE$ON equ 0x0
   909  0000                     global __CFG_STVREN$ON
   910                           __CFG_STVREN$ON equ 0x0
   911  0000                     global __CFG_LVP$OFF
   912                           __CFG_LVP$OFF equ 0x0
   913  0000                     global __CFG_XINST$OFF
   914                           __CFG_XINST$OFF equ 0x0
   915  0000                     global __CFG_CP0$OFF
   916                           __CFG_CP0$OFF equ 0x0
   917  0000                     global __CFG_CP1$OFF
   918                           __CFG_CP1$OFF equ 0x0
   919  0000                     global __CFG_CP2$OFF
   920                           __CFG_CP2$OFF equ 0x0
   921  0000                     global __CFG_CP3$OFF
   922                           __CFG_CP3$OFF equ 0x0
   923  0000                     global __CFG_CPB$OFF
   924                           __CFG_CPB$OFF equ 0x0
   925  0000                     global __CFG_CPD$OFF
   926                           __CFG_CPD$OFF equ 0x0
   927  0000                     global __CFG_WRT0$OFF
   928                           __CFG_WRT0$OFF equ 0x0
   929  0000                     global __CFG_WRT1$OFF
   930                           __CFG_WRT1$OFF equ 0x0
   931  0000                     global __CFG_WRT2$OFF
   932                           __CFG_WRT2$OFF equ 0x0
   933  0000                     global __CFG_WRT3$OFF
   934                           __CFG_WRT3$OFF equ 0x0
   935  0000                     global __CFG_WRTC$OFF
   936                           __CFG_WRTC$OFF equ 0x0
   937  0000                     global __CFG_WRTB$OFF
   938                           __CFG_WRTB$OFF equ 0x0
   939  0000                     global __CFG_WRTD$OFF
   940                           __CFG_WRTD$OFF equ 0x0
   941  0000                     global __CFG_EBTR0$OFF
   942                           __CFG_EBTR0$OFF equ 0x0
   943  0000                     global __CFG_EBTR1$OFF
   944                           __CFG_EBTR1$OFF equ 0x0
   945  0000                     global __CFG_EBTR2$OFF
   946                           __CFG_EBTR2$OFF equ 0x0
   947  0000                     global __CFG_EBTR3$OFF
   948                           __CFG_EBTR3$OFF equ 0x0
   949  0000                     global __CFG_EBTRB$OFF
   950                           __CFG_EBTRB$OFF equ 0x0
   951  0000                     	file	"C:\Users\carlo\AppData\Local\Temp\scq8."
   952                           	line	#
   953                           psect	cinit,class=CODE,delta=1,reloc=2
   954                           global __pcinit
   955                           __pcinit:
   956  002A8C                     global start_initialization
   957                           start_initialization:
   958  002A8C                     
   959                           global __initialization
   960                           __initialization:
   961  002A8C                     psect	bssCOMRAM,class=COMRAM,space=1,noexec
   962                           global __pbssCOMRAM
   963                           __pbssCOMRAM:
   964  000074                     	global	_volts
   965                           	global	_volts
   966                           _volts:
   967  000074                            ds      4
   968  000074                     	global	_bits
   969                           	global	_bits
   970                           _bits:
   971  000078                            ds      2
   972  000078                     	global	_contador
   973                           	global	_contador
   974                           _contador:
   975  00007A                            ds      2
   976  00007A                     psect	bssBANK0,class=BANK0,space=1,noexec,lowdata
   977                           global __pbssBANK0
   978                           __pbssBANK0:
   979  0000EC                     _nout:
   980  0000EC                            ds      2
   981  0000EC                     _width:
   982  0000EE                            ds      2
   983  0000EE                     _prec:
   984  0000F0                            ds      2
   985  0000F0                     _flags:
   986  0000F2                            ds      2
   987  0000F2                     	global	_estado
   988                           _estado:
   989  0000F4                            ds      2
   990  0000F4                     	global	_tempo
   991                           _tempo:
   992  0000F6                            ds      2
   993  0000F6                     	global	_tempoDis
   994                           _tempoDis:
   995  0000F8                            ds      5
   996  0000F8                     psect	bssBANK1,class=BANK1,space=1,noexec,lowdata
   997                           global __pbssBANK1
   998                           __pbssBANK1:
   999  000100                     _dbuf:
  1000  000100                            ds      32
  1001  000100                     	global	_estadoMes
  1002                           _estadoMes:
  1003  000120                            ds      15
  1004  000120                     	file	"C:\Users\carlo\AppData\Local\Temp\scq8."
  1005                           	line	#
  1006                           psect	cinit
  1007                           ; Clear objects allocated to BANK1 (47 bytes)
  1008                           	global __pbssBANK1
  1009                           lfsr	0,__pbssBANK1
  1010  002A8C  EE01  F000         movlw	47
  1011  002A90  0E2F               clear_0:
  1012  002A92                     clrf	postinc0,c
  1013  002A92  6AEE               decf	wreg
  1014  002A94  06E8               bnz	clear_0
  1015  002A96  E1FD               ; Clear objects allocated to BANK0 (17 bytes)
  1016                           	global __pbssBANK0
  1017                           lfsr	0,__pbssBANK0
  1018  002A98  EE00  F0EC         movlw	17
  1019  002A9C  0E11               clear_1:
  1020  002A9E                     clrf	postinc0,c
  1021  002A9E  6AEE               decf	wreg
  1022  002AA0  06E8               bnz	clear_1
  1023  002AA2  E1FD               ; Clear objects allocated to COMRAM (8 bytes)
  1024                           	global __pbssCOMRAM
  1025                           lfsr	0,__pbssCOMRAM
  1026  002AA4  EE00  F074         movlw	8
  1027  002AA8  0E08               clear_2:
  1028  002AAA                     clrf	postinc0,c
  1029  002AAA  6AEE               decf	wreg
  1030  002AAC  06E8               bnz	clear_2
  1031  002AAE  E1FD               psect cinit,class=CODE,delta=1
  1032                           global end_of_initialization,__end_of__initialization
  1033                           
  1034                           ;End of C runtime variable initialization code
  1035                           
  1036                           end_of_initialization:
  1037  002AB0                     __end_of__initialization:
  1038  002AB0                     	bcf int$flags,0,c ;clear compiler interrupt flag (level 1)
  1039  002AB0  907C               	bcf int$flags,1,c ;clear compiler interrupt flag (level 2)
  1040  002AB2  927C               	GLOBAL	__Lmediumconst
  1041                           	movlw	low highword(__Lmediumconst)
  1042  002AB4  0E00               	movwf	tblptru
  1043  002AB6  6EF8               movlb 0
  1044  002AB8  0100               goto _main	;jump to C main() function
  1045  002ABA  EFB4  F00F         psect	cstackBANK0,class=BANK0,space=1,noexec
  1046                           global __pcstackBANK0
  1047                           __pcstackBANK0:
  1048  000080                     ??_putch:	; 1 bytes @ 0x0
  1049  000080                     ??_lcd_write:	; 1 bytes @ 0x0
  1050  000080                     ??_config:	; 1 bytes @ 0x0
  1051  000080                     ?_fputc:	; 2 bytes @ 0x0
  1052  000080                     	global	?_strlen
  1053                           ?_strlen:	; 2 bytes @ 0x0
  1054  000080                     	global	?___aodiv
  1055                           ?___aodiv:	; 8 bytes @ 0x0
  1056  000080                     	global	?___aomod
  1057                           ?___aomod:	; 8 bytes @ 0x0
  1058  000080                     	global	lcd_write@c
  1059                           lcd_write@c:	; 1 bytes @ 0x0
  1060  000080                     	global	fputc@c
  1061                           fputc@c:	; 2 bytes @ 0x0
  1062  000080                     	global	strlen@s
  1063                           strlen@s:	; 2 bytes @ 0x0
  1064  000080                     	global	___aodiv@dividend
  1065                           ___aodiv@dividend:	; 8 bytes @ 0x0
  1066  000080                     	global	___aomod@dividend
  1067                           ___aomod@dividend:	; 8 bytes @ 0x0
  1068  000080                     	ds   1
  1069  000080                     ??_lcd_clear:	; 1 bytes @ 0x1
  1070  000081                     ?_lcd_puts:	; 1 bytes @ 0x1
  1071  000081                     ??_lcd_goto:	; 1 bytes @ 0x1
  1072  000081                     	global	lcd_goto@pos
  1073                           lcd_goto@pos:	; 1 bytes @ 0x1
  1074  000081                     	global	lcd_puts@s
  1075                           lcd_puts@s:	; 2 bytes @ 0x1
  1076  000081                     	ds   1
  1077  000081                     ??_strlen:	; 1 bytes @ 0x2
  1078  000082                     ??_lcd_init:	; 1 bytes @ 0x2
  1079  000082                     	global	fputc@fp
  1080                           fputc@fp:	; 2 bytes @ 0x2
  1081  000082                     	ds   1
  1082  000082                     ??_escreve2:	; 1 bytes @ 0x3
  1083  000083                     ??_escreve:	; 1 bytes @ 0x3
  1084  000083                     ??_lcd_puts:	; 1 bytes @ 0x3
  1085  000083                     	global	lcd_init@init_value
  1086                           lcd_init@init_value:	; 1 bytes @ 0x3
  1087  000083                     	ds   1
  1088  000083                     ??_fputc:	; 1 bytes @ 0x4
  1089  000084                     	global	strlen@a
  1090                           strlen@a:	; 2 bytes @ 0x4
  1091  000084                     	ds   4
  1092  000084                     	global	___aodiv@divisor
  1093                           ___aodiv@divisor:	; 8 bytes @ 0x8
  1094  000088                     	global	___aomod@divisor
  1095                           ___aomod@divisor:	; 8 bytes @ 0x8
  1096  000088                     	ds   1
  1097  000088                     ?_fputs:	; 2 bytes @ 0x9
  1098  000089                     	global	fputs@s
  1099                           fputs@s:	; 2 bytes @ 0x9
  1100  000089                     	ds   2
  1101  000089                     	global	fputs@fp
  1102                           fputs@fp:	; 2 bytes @ 0xB
  1103  00008B                     	ds   2
  1104  00008B                     ??_fputs:	; 1 bytes @ 0xD
  1105  00008D                     	global	fputs@c
  1106                           fputs@c:	; 1 bytes @ 0xD
  1107  00008D                     	ds   1
  1108  00008D                     	global	fputs@i
  1109                           fputs@i:	; 2 bytes @ 0xE
  1110  00008E                     	ds   2
  1111  00008E                     ??___aodiv:	; 1 bytes @ 0x10
  1112  000090                     ??___aomod:	; 1 bytes @ 0x10
  1113  000090                     	global	?_pad
  1114                           ?_pad:	; 2 bytes @ 0x10
  1115  000090                     	global	___aodiv@counter
  1116                           ___aodiv@counter:	; 1 bytes @ 0x10
  1117  000090                     	global	___aomod@counter
  1118                           ___aomod@counter:	; 1 bytes @ 0x10
  1119  000090                     	global	pad@fp
  1120                           pad@fp:	; 2 bytes @ 0x10
  1121  000090                     	ds   1
  1122  000090                     	global	___aodiv@sign
  1123                           ___aodiv@sign:	; 1 bytes @ 0x11
  1124  000091                     	global	___aomod@sign
  1125                           ___aomod@sign:	; 1 bytes @ 0x11
  1126  000091                     	ds   1
  1127  000091                     	global	?_abs
  1128                           ?_abs:	; 2 bytes @ 0x12
  1129  000092                     	global	pad@buf
  1130                           pad@buf:	; 2 bytes @ 0x12
  1131  000092                     	global	abs@a
  1132                           abs@a:	; 2 bytes @ 0x12
  1133  000092                     	global	___aodiv@quotient
  1134                           ___aodiv@quotient:	; 8 bytes @ 0x12
  1135  000092                     	ds   2
  1136  000092                     ??_abs:	; 1 bytes @ 0x14
  1137  000094                     	global	pad@p
  1138                           pad@p:	; 2 bytes @ 0x14
  1139  000094                     	ds   2
  1140  000094                     ??_pad:	; 1 bytes @ 0x16
  1141  000096                     	ds   1
  1142  000096                     	global	pad@i
  1143                           pad@i:	; 2 bytes @ 0x17
  1144  000097                     	ds   2
  1145  000097                     	global	pad@w
  1146                           pad@w:	; 2 bytes @ 0x19
  1147  000099                     	ds   2
  1148  000099                     	global	?_dtoa
  1149                           ?_dtoa:	; 2 bytes @ 0x1B
  1150  00009B                     	global	dtoa@fp
  1151                           dtoa@fp:	; 2 bytes @ 0x1B
  1152  00009B                     	ds   2
  1153  00009B                     	global	dtoa@d
  1154                           dtoa@d:	; 8 bytes @ 0x1D
  1155  00009D                     	ds   8
  1156  00009D                     ??_dtoa:	; 1 bytes @ 0x25
  1157  0000A5                     	ds   8
  1158  0000A5                     	global	_dtoa$347
  1159                           _dtoa$347:	; 2 bytes @ 0x2D
  1160  0000AD                     	ds   2
  1161  0000AD                     	global	dtoa@p
  1162                           dtoa@p:	; 2 bytes @ 0x2F
  1163  0000AF                     	ds   2
  1164  0000AF                     	global	dtoa@w
  1165                           dtoa@w:	; 2 bytes @ 0x31
  1166  0000B1                     	ds   2
  1167  0000B1                     	global	dtoa@s
  1168                           dtoa@s:	; 2 bytes @ 0x33
  1169  0000B3                     	ds   2
  1170  0000B3                     	global	dtoa@n
  1171                           dtoa@n:	; 8 bytes @ 0x35
  1172  0000B5                     	ds   8
  1173  0000B5                     	global	dtoa@i
  1174                           dtoa@i:	; 2 bytes @ 0x3D
  1175  0000BD                     	ds   2
  1176  0000BD                     	global	?_vfpfcnvrt
  1177                           ?_vfpfcnvrt:	; 2 bytes @ 0x3F
  1178  0000BF                     	global	vfpfcnvrt@fp
  1179                           vfpfcnvrt@fp:	; 2 bytes @ 0x3F
  1180  0000BF                     	ds   2
  1181  0000BF                     	global	vfpfcnvrt@fmt
  1182                           vfpfcnvrt@fmt:	; 2 bytes @ 0x41
  1183  0000C1                     	ds   2
  1184  0000C1                     	global	vfpfcnvrt@ap
  1185                           vfpfcnvrt@ap:	; 2 bytes @ 0x43
  1186  0000C3                     	ds   2
  1187  0000C3                     ??_vfpfcnvrt:	; 1 bytes @ 0x45
  1188  0000C5                     	ds   2
  1189  0000C5                     	global	vfpfcnvrt@ll
  1190                           vfpfcnvrt@ll:	; 8 bytes @ 0x47
  1191  0000C7                     	ds   8
  1192  0000C7                     	global	?_vfprintf
  1193                           ?_vfprintf:	; 2 bytes @ 0x4F
  1194  0000CF                     	global	vfprintf@fp
  1195                           vfprintf@fp:	; 2 bytes @ 0x4F
  1196  0000CF                     	ds   2
  1197  0000CF                     	global	vfprintf@fmt
  1198                           vfprintf@fmt:	; 2 bytes @ 0x51
  1199  0000D1                     	ds   2
  1200  0000D1                     	global	vfprintf@ap
  1201                           vfprintf@ap:	; 2 bytes @ 0x53
  1202  0000D3                     	ds   2
  1203  0000D3                     ??_vfprintf:	; 1 bytes @ 0x55
  1204  0000D5                     	global	vfprintf@cfmt
  1205                           vfprintf@cfmt:	; 2 bytes @ 0x55
  1206  0000D5                     	ds   2
  1207  0000D5                     	global	?_sprintf
  1208                           ?_sprintf:	; 2 bytes @ 0x57
  1209  0000D7                     	global	sprintf@s
  1210                           sprintf@s:	; 2 bytes @ 0x57
  1211  0000D7                     	ds   2
  1212  0000D7                     	global	sprintf@fmt
  1213                           sprintf@fmt:	; 2 bytes @ 0x59
  1214  0000D9                     	ds   4
  1215  0000D9                     ??_sprintf:	; 1 bytes @ 0x5D
  1216  0000DD                     	global	sprintf@ret
  1217                           sprintf@ret:	; 2 bytes @ 0x5D
  1218  0000DD                     	ds   2
  1219  0000DD                     	global	sprintf@ap
  1220                           sprintf@ap:	; 2 bytes @ 0x5F
  1221  0000DF                     	ds   2
  1222  0000DF                     	global	sprintf@f
  1223                           sprintf@f:	; 6 bytes @ 0x61
  1224  0000E1                     	ds   6
  1225  0000E1                     ??_tempo1:	; 1 bytes @ 0x67
  1226  0000E7                     	ds   2
  1227  0000E7                     ??_estadosMaquina:	; 1 bytes @ 0x69
  1228  0000E9                     	ds   2
  1229  0000E9                     ??_main:	; 1 bytes @ 0x6B
  1230  0000EB                     	ds   1
  1231  0000EB                     psect	cstackCOMRAM,class=COMRAM,space=1,noexec
  1232                           global __pcstackCOMRAM
  1233                           __pcstackCOMRAM:
  1234  000001                     ?_estadosMaquina:	; 1 bytes @ 0x0
  1235  000001                     ?_escreve2:	; 1 bytes @ 0x0
  1236  000001                     ?_escreve:	; 1 bytes @ 0x0
  1237  000001                     ?_putch:	; 1 bytes @ 0x0
  1238  000001                     ?_lcd_write:	; 1 bytes @ 0x0
  1239  000001                     ?_lcd_clear:	; 1 bytes @ 0x0
  1240  000001                     ?_lcd_goto:	; 1 bytes @ 0x0
  1241  000001                     ?_lcd_init:	; 1 bytes @ 0x0
  1242  000001                     ?_config:	; 1 bytes @ 0x0
  1243  000001                     ?_main:	; 1 bytes @ 0x0
  1244  000001                     ?_tmr:	; 1 bytes @ 0x0
  1245  000001                     ?_tempo1:	; 1 bytes @ 0x0
  1246  000001                     ?i2_lcd_write:	; 1 bytes @ 0x0
  1247  000001                     ??i2_lcd_write:	; 1 bytes @ 0x0
  1248  000001                     ?i2_lcd_clear:	; 1 bytes @ 0x0
  1249  000001                     ?i2_lcd_goto:	; 1 bytes @ 0x0
  1250  000001                     ?i2_tempo1:	; 1 bytes @ 0x0
  1251  000001                     ?i2_estadosMaquina:	; 1 bytes @ 0x0
  1252  000001                     ?i2_escreve:	; 1 bytes @ 0x0
  1253  000001                     ?i2_escreve2:	; 1 bytes @ 0x0
  1254  000001                     ?i2_putch:	; 1 bytes @ 0x0
  1255  000001                     ??i2_putch:	; 1 bytes @ 0x0
  1256  000001                     ?i2_fputc:	; 2 bytes @ 0x0
  1257  000001                     	global	?i2_strlen
  1258                           ?i2_strlen:	; 2 bytes @ 0x0
  1259  000001                     	global	?i2___aodiv
  1260                           ?i2___aodiv:	; 8 bytes @ 0x0
  1261  000001                     	global	?i2___aomod
  1262                           ?i2___aomod:	; 8 bytes @ 0x0
  1263  000001                     putch@c:	; 1 bytes @ 0x0
  1264  000001                     	global	i2lcd_write@c
  1265                           i2lcd_write@c:	; 1 bytes @ 0x0
  1266  000001                     	global	i2fputc@c
  1267                           i2fputc@c:	; 2 bytes @ 0x0
  1268  000001                     	global	i2strlen@s
  1269                           i2strlen@s:	; 2 bytes @ 0x0
  1270  000001                     	global	i2___aodiv@dividend
  1271                           i2___aodiv@dividend:	; 8 bytes @ 0x0
  1272  000001                     	global	i2___aomod@dividend
  1273                           i2___aomod@dividend:	; 8 bytes @ 0x0
  1274  000001                     	ds   1
  1275  000001                     ??i2_lcd_clear:	; 1 bytes @ 0x1
  1276  000002                     ?i2_lcd_puts:	; 1 bytes @ 0x1
  1277  000002                     ??i2_lcd_goto:	; 1 bytes @ 0x1
  1278  000002                     	global	i2lcd_goto@pos
  1279                           i2lcd_goto@pos:	; 1 bytes @ 0x1
  1280  000002                     	global	i2lcd_puts@s
  1281                           i2lcd_puts@s:	; 2 bytes @ 0x1
  1282  000002                     	ds   1
  1283  000002                     ??i2_strlen:	; 1 bytes @ 0x2
  1284  000003                     	global	i2fputc@fp
  1285                           i2fputc@fp:	; 2 bytes @ 0x2
  1286  000003                     	ds   1
  1287  000003                     ??i2_lcd_puts:	; 1 bytes @ 0x3
  1288  000004                     ??i2_escreve:	; 1 bytes @ 0x3
  1289  000004                     ??i2_escreve2:	; 1 bytes @ 0x3
  1290  000004                     	ds   1
  1291  000004                     ??i2_fputc:	; 1 bytes @ 0x4
  1292  000005                     	global	i2strlen@a
  1293                           i2strlen@a:	; 2 bytes @ 0x4
  1294  000005                     	ds   4
  1295  000005                     	global	i2___aodiv@divisor
  1296                           i2___aodiv@divisor:	; 8 bytes @ 0x8
  1297  000009                     	global	i2___aomod@divisor
  1298                           i2___aomod@divisor:	; 8 bytes @ 0x8
  1299  000009                     	ds   1
  1300  000009                     ?i2_fputs:	; 2 bytes @ 0x9
  1301  00000A                     	global	i2fputs@s
  1302                           i2fputs@s:	; 2 bytes @ 0x9
  1303  00000A                     	ds   2
  1304  00000A                     	global	i2fputs@fp
  1305                           i2fputs@fp:	; 2 bytes @ 0xB
  1306  00000C                     	ds   2
  1307  00000C                     ??i2_fputs:	; 1 bytes @ 0xD
  1308  00000E                     	global	i2fputs@c
  1309                           i2fputs@c:	; 1 bytes @ 0xD
  1310  00000E                     	ds   1
  1311  00000E                     	global	i2fputs@i
  1312                           i2fputs@i:	; 2 bytes @ 0xE
  1313  00000F                     	ds   2
  1314  00000F                     ??i2___aodiv:	; 1 bytes @ 0x10
  1315  000011                     ??i2___aomod:	; 1 bytes @ 0x10
  1316  000011                     	global	?i2_pad
  1317                           ?i2_pad:	; 2 bytes @ 0x10
  1318  000011                     	global	i2___aodiv@counter
  1319                           i2___aodiv@counter:	; 1 bytes @ 0x10
  1320  000011                     	global	i2___aomod@counter
  1321                           i2___aomod@counter:	; 1 bytes @ 0x10
  1322  000011                     	global	i2pad@fp
  1323                           i2pad@fp:	; 2 bytes @ 0x10
  1324  000011                     	ds   1
  1325  000011                     	global	i2___aodiv@sign
  1326                           i2___aodiv@sign:	; 1 bytes @ 0x11
  1327  000012                     	global	i2___aomod@sign
  1328                           i2___aomod@sign:	; 1 bytes @ 0x11
  1329  000012                     	ds   1
  1330  000012                     	global	?i2_abs
  1331                           ?i2_abs:	; 2 bytes @ 0x12
  1332  000013                     	global	i2pad@buf
  1333                           i2pad@buf:	; 2 bytes @ 0x12
  1334  000013                     	global	i2abs@a
  1335                           i2abs@a:	; 2 bytes @ 0x12
  1336  000013                     	global	i2___aodiv@quotient
  1337                           i2___aodiv@quotient:	; 8 bytes @ 0x12
  1338  000013                     	ds   2
  1339  000013                     ??i2_abs:	; 1 bytes @ 0x14
  1340  000015                     	global	i2pad@p
  1341                           i2pad@p:	; 2 bytes @ 0x14
  1342  000015                     	ds   2
  1343  000015                     ??i2_pad:	; 1 bytes @ 0x16
  1344  000017                     	ds   1
  1345  000017                     	global	i2pad@i
  1346                           i2pad@i:	; 2 bytes @ 0x17
  1347  000018                     	ds   2
  1348  000018                     	global	i2pad@w
  1349                           i2pad@w:	; 2 bytes @ 0x19
  1350  00001A                     	ds   2
  1351  00001A                     	global	?i2_dtoa
  1352                           ?i2_dtoa:	; 2 bytes @ 0x1B
  1353  00001C                     	global	i2dtoa@fp
  1354                           i2dtoa@fp:	; 2 bytes @ 0x1B
  1355  00001C                     	ds   2
  1356  00001C                     	global	i2dtoa@d
  1357                           i2dtoa@d:	; 8 bytes @ 0x1D
  1358  00001E                     	ds   8
  1359  00001E                     ??i2_dtoa:	; 1 bytes @ 0x25
  1360  000026                     	ds   8
  1361  000026                     	global	i2_dtoa$347
  1362                           i2_dtoa$347:	; 2 bytes @ 0x2D
  1363  00002E                     	ds   2
  1364  00002E                     	global	i2dtoa@p
  1365                           i2dtoa@p:	; 2 bytes @ 0x2F
  1366  000030                     	ds   2
  1367  000030                     	global	i2dtoa@w
  1368                           i2dtoa@w:	; 2 bytes @ 0x31
  1369  000032                     	ds   2
  1370  000032                     	global	i2dtoa@s
  1371                           i2dtoa@s:	; 2 bytes @ 0x33
  1372  000034                     	ds   2
  1373  000034                     	global	i2dtoa@n
  1374                           i2dtoa@n:	; 8 bytes @ 0x35
  1375  000036                     	ds   8
  1376  000036                     	global	i2dtoa@i
  1377                           i2dtoa@i:	; 2 bytes @ 0x3D
  1378  00003E                     	ds   2
  1379  00003E                     	global	?i2_vfpfcnvrt
  1380                           ?i2_vfpfcnvrt:	; 2 bytes @ 0x3F
  1381  000040                     	global	i2vfpfcnvrt@fp
  1382                           i2vfpfcnvrt@fp:	; 2 bytes @ 0x3F
  1383  000040                     	ds   2
  1384  000040                     	global	i2vfpfcnvrt@fmt
  1385                           i2vfpfcnvrt@fmt:	; 2 bytes @ 0x41
  1386  000042                     	ds   2
  1387  000042                     	global	i2vfpfcnvrt@ap
  1388                           i2vfpfcnvrt@ap:	; 2 bytes @ 0x43
  1389  000044                     	ds   2
  1390  000044                     ??i2_vfpfcnvrt:	; 1 bytes @ 0x45
  1391  000046                     	ds   2
  1392  000046                     	global	i2vfpfcnvrt@ll
  1393                           i2vfpfcnvrt@ll:	; 8 bytes @ 0x47
  1394  000048                     	ds   8
  1395  000048                     	global	?i2_vfprintf
  1396                           ?i2_vfprintf:	; 2 bytes @ 0x4F
  1397  000050                     	global	i2vfprintf@fp
  1398                           i2vfprintf@fp:	; 2 bytes @ 0x4F
  1399  000050                     	ds   2
  1400  000050                     	global	i2vfprintf@fmt
  1401                           i2vfprintf@fmt:	; 2 bytes @ 0x51
  1402  000052                     	ds   2
  1403  000052                     	global	i2vfprintf@ap
  1404                           i2vfprintf@ap:	; 2 bytes @ 0x53
  1405  000054                     	ds   2
  1406  000054                     ??i2_vfprintf:	; 1 bytes @ 0x55
  1407  000056                     	global	i2vfprintf@cfmt
  1408                           i2vfprintf@cfmt:	; 2 bytes @ 0x55
  1409  000056                     	ds   2
  1410  000056                     	global	?i2_sprintf
  1411                           ?i2_sprintf:	; 2 bytes @ 0x57
  1412  000058                     	global	i2sprintf@s
  1413                           i2sprintf@s:	; 2 bytes @ 0x57
  1414  000058                     	ds   2
  1415  000058                     	global	i2sprintf@fmt
  1416                           i2sprintf@fmt:	; 2 bytes @ 0x59
  1417  00005A                     	ds   4
  1418  00005A                     ??i2_sprintf:	; 1 bytes @ 0x5D
  1419  00005E                     	global	i2sprintf@ret
  1420                           i2sprintf@ret:	; 2 bytes @ 0x5D
  1421  00005E                     	ds   2
  1422  00005E                     	global	i2sprintf@ap
  1423                           i2sprintf@ap:	; 2 bytes @ 0x5F
  1424  000060                     	ds   2
  1425  000060                     	global	i2sprintf@f
  1426                           i2sprintf@f:	; 6 bytes @ 0x61
  1427  000062                     	ds   6
  1428  000062                     ??i2_tempo1:	; 1 bytes @ 0x67
  1429  000068                     	ds   2
  1430  000068                     ??i2_estadosMaquina:	; 1 bytes @ 0x69
  1431  00006A                     	ds   2
  1432  00006A                     ??_tmr:	; 1 bytes @ 0x6B
  1433  00006C                     	ds   8
  1434  00006C                     ;!
  1435                           ;!Data Sizes:
  1436                           ;!    Strings     67
  1437                           ;!    Constant    0
  1438                           ;!    Data        0
  1439                           ;!    BSS         72
  1440                           ;!    Persistent  0
  1441                           ;!    Stack       0
  1442                           ;!
  1443                           ;!Auto Spaces:
  1444                           ;!    Space          Size  Autos    Used
  1445                           ;!    COMRAM          126    115     123
  1446                           ;!    BANK0           128    108     125
  1447                           ;!    BANK1           256      0      47
  1448                           ;!    BANK2           256      0       0
  1449                           ;!    BANK3           256      0       0
  1450                           ;!    BANK4           256      0       0
  1451                           ;!    BANK5           256      0       0
  1452                           
  1453                           ;!
  1454                           ;!Pointer List with Targets:
  1455                           ;!
  1456                           ;!    i2sprintf@f.buffer	PTR unsigned char  size(2) Largest target is 0
  1457                           ;!		 -> estadoMes(BANK1[15]), tempoDis(BANK0[5]), 
  1458                           ;!
  1459                           ;!    strlen@s	PTR const unsigned char  size(2) Largest target is 32
  1460                           ;!		 -> dbuf(BANK1[32]), 
  1461                           ;!
  1462                           ;!    strlen@a	PTR const unsigned char  size(2) Largest target is 32
  1463                           ;!		 -> dbuf(BANK1[32]), 
  1464                           ;!
  1465                           ;!    sprintf@fmt	PTR const unsigned char  size(2) Largest target is 10
  1466                           ;!		 -> STR_11(CODE[10]), STR_10(CODE[9]), STR_9(CODE[7]), STR_8(CODE[7]), 
  1467                           ;!		 -> STR_7(CODE[9]), STR_6(CODE[9]), STR_5(CODE[7]), STR_4(CODE[7]), 
  1468                           ;!		 -> STR_3(CODE[7]), STR_2(CODE[10]), STR_1(CODE[3]), 
  1469                           ;!
  1470                           ;!    sprintf@s	PTR unsigned char  size(2) Largest target is 15
  1471                           ;!		 -> estadoMes(BANK1[15]), tempoDis(BANK0[5]), 
  1472                           ;!
  1473                           ;!    sprintf@ap	PTR void [1] size(2) Largest target is 2
  1474                           ;!		 -> ?_sprintf(BANK0[2]), 
  1475                           ;!
  1476                           ;!    f.buffer	PTR unsigned char  size(2) Largest target is 15
  1477                           ;!		 -> estadoMes(BANK1[15]), tempoDis(BANK0[5]), 
  1478                           ;!
  1479                           ;!    fputs@s	PTR const unsigned char  size(2) Largest target is 32
  1480                           ;!		 -> dbuf(BANK1[32]), 
  1481                           ;!
  1482                           ;!    fputs@fp	PTR struct _IO_FILE size(2) Largest target is 7
  1483                           ;!		 -> sprintf@f(BANK0[6]), 
  1484                           ;!
  1485                           ;!    S808_IO_FILE$buffer	PTR unsigned char  size(2) Largest target is 15
  1486                           ;!		 -> estadoMes(BANK1[15]), tempoDis(BANK0[5]), 
  1487                           ;!
  1488                           ;!    fputc@fp.buffer	PTR unsigned char  size(2) Largest target is 15
  1489                           ;!		 -> estadoMes(BANK1[15]), tempoDis(BANK0[5]), 
  1490                           ;!
  1491                           ;!    fputc@fp	PTR struct _IO_FILE size(2) Largest target is 7
  1492                           ;!		 -> sprintf@f(BANK0[6]), 
  1493                           ;!
  1494                           ;!    vfprintf@ap	PTR PTR void  size(2) Largest target is 2
  1495                           ;!		 -> sprintf@ap(BANK0[2]), 
  1496                           ;!
  1497                           ;!    vfprintf@fp	PTR struct _IO_FILE size(2) Largest target is 7
  1498                           ;!		 -> sprintf@f(BANK0[6]), 
  1499                           ;!
  1500                           ;!    vfprintf@fmt	PTR const unsigned char  size(2) Largest target is 10
  1501                           ;!		 -> STR_11(CODE[10]), STR_10(CODE[9]), STR_9(CODE[7]), STR_8(CODE[7]), 
  1502                           ;!		 -> STR_7(CODE[9]), STR_6(CODE[9]), STR_5(CODE[7]), STR_4(CODE[7]), 
  1503                           ;!		 -> STR_3(CODE[7]), STR_2(CODE[10]), STR_1(CODE[3]), 
  1504                           ;!
  1505                           ;!    vfprintf@cfmt	PTR unsigned char  size(2) Largest target is 10
  1506                           ;!		 -> STR_11(CODE[10]), STR_10(CODE[9]), STR_9(CODE[7]), STR_8(CODE[7]), 
  1507                           ;!		 -> STR_7(CODE[9]), STR_6(CODE[9]), STR_5(CODE[7]), STR_4(CODE[7]), 
  1508                           ;!		 -> STR_3(CODE[7]), STR_2(CODE[10]), STR_1(CODE[3]), 
  1509                           ;!
  1510                           ;!    vfpfcnvrt@fp	PTR struct _IO_FILE size(2) Largest target is 7
  1511                           ;!		 -> sprintf@f(BANK0[6]), 
  1512                           ;!
  1513                           ;!    vfpfcnvrt@ap	PTR PTR void  size(2) Largest target is 2
  1514                           ;!		 -> sprintf@ap(BANK0[2]), 
  1515                           ;!
  1516                           ;!    vfpfcnvrt@fmt	PTR PTR unsigned char  size(2) Largest target is 2
  1517                           ;!		 -> vfprintf@cfmt(BANK0[2]), 
  1518                           ;!
  1519                           ;!    dtoa@fp	PTR struct _IO_FILE size(2) Largest target is 7
  1520                           ;!		 -> sprintf@f(BANK0[6]), 
  1521                           ;!
  1522                           ;!    pad@fp	PTR struct _IO_FILE size(2) Largest target is 7
  1523                           ;!		 -> sprintf@f(BANK0[6]), 
  1524                           ;!
  1525                           ;!    pad@buf	PTR unsigned char  size(2) Largest target is 32
  1526                           ;!		 -> dbuf(BANK1[32]), 
  1527                           ;!
  1528                           ;!    lcd_puts@s	PTR const unsigned char  size(2) Largest target is 15
  1529                           ;!		 -> STR_14(CODE[7]), STR_13(CODE[8]), STR_12(CODE[8]), estadoMes(BANK1[15]), 
  1530                           ;!		 -> tempoDis(BANK0[5]), 
  1531                           ;!
  1532                           
  1533                           
  1534                           ;!
  1535                           ;!Critical Paths under _main in COMRAM
  1536                           ;!
  1537                           ;!    None.
  1538                           ;!
  1539                           ;!Critical Paths under _tmr in COMRAM
  1540                           ;!
  1541                           ;!    _tmr->i2_estadosMaquina
  1542                           ;!    i2_estadosMaquina->i2_tempo1
  1543                           ;!    i2_tempo1->i2_sprintf
  1544                           ;!    i2_sprintf->i2_vfprintf
  1545                           ;!    i2_vfprintf->i2_vfpfcnvrt
  1546                           ;!    i2_vfpfcnvrt->i2_dtoa
  1547                           ;!    i2_dtoa->i2_pad
  1548                           ;!    i2_pad->i2_fputs
  1549                           ;!    i2_fputs->i2_fputc
  1550                           ;!    i2_abs->i2___aomod
  1551                           ;!    i2_escreve2->i2_lcd_puts
  1552                           ;!    i2_escreve->i2_lcd_puts
  1553                           ;!    i2_lcd_puts->i2_lcd_write
  1554                           ;!    i2_lcd_goto->i2_lcd_write
  1555                           ;!    i2_lcd_clear->i2_lcd_write
  1556                           ;!
  1557                           ;!Critical Paths under _main in BANK0
  1558                           ;!
  1559                           ;!    _main->_estadosMaquina
  1560                           ;!    _lcd_init->_lcd_clear
  1561                           ;!    _estadosMaquina->_tempo1
  1562                           ;!    _tempo1->_sprintf
  1563                           ;!    _sprintf->_vfprintf
  1564                           ;!    _vfprintf->_vfpfcnvrt
  1565                           ;!    _vfpfcnvrt->_dtoa
  1566                           ;!    _dtoa->_pad
  1567                           ;!    _pad->_fputs
  1568                           ;!    _fputs->_fputc
  1569                           ;!    _abs->___aomod
  1570                           ;!    _escreve2->_lcd_puts
  1571                           ;!    _escreve->_lcd_puts
  1572                           ;!    _lcd_puts->_lcd_write
  1573                           ;!    _lcd_goto->_lcd_write
  1574                           ;!    _lcd_clear->_lcd_write
  1575                           ;!
  1576                           ;!Critical Paths under _tmr in BANK0
  1577                           ;!
  1578                           ;!    None.
  1579                           ;!
  1580                           ;!Critical Paths under _main in BANK1
  1581                           ;!
  1582                           ;!    None.
  1583                           ;!
  1584                           ;!Critical Paths under _tmr in BANK1
  1585                           ;!
  1586                           ;!    None.
  1587                           ;!
  1588                           ;!Critical Paths under _main in BANK2
  1589                           ;!
  1590                           ;!    None.
  1591                           ;!
  1592                           ;!Critical Paths under _tmr in BANK2
  1593                           ;!
  1594                           ;!    None.
  1595                           ;!
  1596                           ;!Critical Paths under _main in BANK3
  1597                           ;!
  1598                           ;!    None.
  1599                           ;!
  1600                           ;!Critical Paths under _tmr in BANK3
  1601                           ;!
  1602                           ;!    None.
  1603                           ;!
  1604                           ;!Critical Paths under _main in BANK4
  1605                           ;!
  1606                           ;!    None.
  1607                           ;!
  1608                           ;!Critical Paths under _tmr in BANK4
  1609                           ;!
  1610                           ;!    None.
  1611                           ;!
  1612                           ;!Critical Paths under _main in BANK5
  1613                           ;!
  1614                           ;!    None.
  1615                           ;!
  1616                           ;!Critical Paths under _tmr in BANK5
  1617                           ;!
  1618                           ;!    None.
  1619                           
  1620 ;;
  1621 ;;Main: autosize = 0, tempsize = 1, incstack = 0, save=0
  1622 ;;
  1623                           
  1624                           ;!
  1625                           ;!Call Graph Tables:
  1626                           ;!
  1627                           ;! ---------------------------------------------------------------------------------
  1628                           ;! (Depth) Function   	        Calls       Base Space   Used Autos Params    Refs
  1629                           ;! ---------------------------------------------------------------------------------
  1630                           ;! (0) _main                                                 1     1      0   17245
  1631                           ;!                                            107 BANK0      1     1      0
  1632                           ;!                             _config
  1633                           ;!                     _estadosMaquina
  1634                           ;!                           _lcd_init
  1635                           ;! ---------------------------------------------------------------------------------
  1636                           ;! (1) _lcd_init                                             2     2      0      67
  1637                           ;!                                              2 BANK0      2     2      0
  1638                           ;!                          _lcd_clear
  1639                           ;!                          _lcd_write
  1640                           ;! ---------------------------------------------------------------------------------
  1641                           ;! (1) _estadosMaquina                                       2     2      0   17178
  1642                           ;!                                            105 BANK0      2     2      0
  1643                           ;!                            _escreve
  1644                           ;!                            _sprintf
  1645                           ;!                             _tempo1
  1646                           ;! ---------------------------------------------------------------------------------
  1647                           ;! (2) _tempo1                                               2     2      0    8589
  1648                           ;!                                            103 BANK0      2     2      0
  1649                           ;!                           _escreve2
  1650                           ;!                            _sprintf
  1651                           ;! ---------------------------------------------------------------------------------
  1652                           ;! (3) _sprintf                                             16    10      6    8000
  1653                           ;!                                             87 BANK0     16    10      6
  1654                           ;!                           _vfprintf
  1655                           ;! ---------------------------------------------------------------------------------
  1656                           ;! (4) _vfprintf                                             8     2      6    6120
  1657                           ;!                                             79 BANK0      8     2      6
  1658                           ;!                          _vfpfcnvrt
  1659                           ;! ---------------------------------------------------------------------------------
  1660                           ;! (5) _vfpfcnvrt                                           42    36      6    5751
  1661                           ;!                                             63 BANK0     16    10      6
  1662                           ;!                               _dtoa
  1663                           ;!                              _fputc
  1664                           ;! ---------------------------------------------------------------------------------
  1665                           ;! (6) _dtoa                                                36    26     10    4358
  1666                           ;!                                             27 BANK0     36    26     10
  1667                           ;!                            ___aodiv
  1668                           ;!                            ___aomod
  1669                           ;!                                _abs
  1670                           ;!                                _pad
  1671                           ;! ---------------------------------------------------------------------------------
  1672                           ;! (7) _pad                                                 11     5      6    2709
  1673                           ;!                                             16 BANK0     11     5      6
  1674                           ;!                              _fputc
  1675                           ;!                              _fputs
  1676                           ;!                             _strlen
  1677                           ;! ---------------------------------------------------------------------------------
  1678                           ;! (8) _strlen                                               6     4      2     166
  1679                           ;!                                              0 BANK0      6     4      2
  1680                           ;! ---------------------------------------------------------------------------------
  1681                           ;! (8) _fputs                                                7     3      4    1235
  1682                           ;!                                              9 BANK0      7     3      4
  1683                           ;!                              _fputc
  1684                           ;! ---------------------------------------------------------------------------------
  1685                           ;! (6) _fputc                                                9     5      4     834
  1686                           ;!                                              0 BANK0      9     5      4
  1687                           ;!                              _putch
  1688                           ;! ---------------------------------------------------------------------------------
  1689                           ;! (7) _putch                                                1     1      0       0
  1690                           ;! ---------------------------------------------------------------------------------
  1691                           ;! (7) _abs                                                  4     2      2     142
  1692                           ;!                                             18 BANK0      4     2      2
  1693                           ;!                            ___aomod (ARG)
  1694                           ;! ---------------------------------------------------------------------------------
  1695                           ;! (7) ___aomod                                             18     2     16     448
  1696                           ;!                                              0 BANK0     18     2     16
  1697                           ;! ---------------------------------------------------------------------------------
  1698                           ;! (7) ___aodiv                                             26    10     16     452
  1699                           ;!                                              0 BANK0     26    10     16
  1700                           ;! ---------------------------------------------------------------------------------
  1701                           ;! (3) _escreve2                                             0     0      0     589
  1702                           ;!                          _lcd_clear
  1703                           ;!                           _lcd_goto
  1704                           ;!                           _lcd_puts
  1705                           ;! ---------------------------------------------------------------------------------
  1706                           ;! (2) _escreve                                              0     0      0     589
  1707                           ;!                          _lcd_clear
  1708                           ;!                           _lcd_goto
  1709                           ;!                           _lcd_puts
  1710                           ;! ---------------------------------------------------------------------------------
  1711                           ;! (4) _lcd_puts                                             2     0      2     523
  1712                           ;!                                              1 BANK0      2     0      2
  1713                           ;!                          _lcd_write
  1714                           ;! ---------------------------------------------------------------------------------
  1715                           ;! (4) _lcd_goto                                             1     1      0      44
  1716                           ;!                                              1 BANK0      1     1      0
  1717                           ;!                          _lcd_write
  1718                           ;! ---------------------------------------------------------------------------------
  1719                           ;! (2) _lcd_clear                                            1     1      0      22
  1720                           ;!                                              1 BANK0      1     1      0
  1721                           ;!                          _lcd_write
  1722                           ;! ---------------------------------------------------------------------------------
  1723                           ;! (2) _lcd_write                                            1     1      0      22
  1724                           ;!                                              0 BANK0      1     1      0
  1725                           ;! ---------------------------------------------------------------------------------
  1726                           ;! (1) _config                                               0     0      0       0
  1727                           ;! ---------------------------------------------------------------------------------
  1728                           ;! Estimated maximum stack depth 8
  1729                           ;! ---------------------------------------------------------------------------------
  1730                           ;! (Depth) Function   	        Calls       Base Space   Used Autos Params    Refs
  1731                           ;! ---------------------------------------------------------------------------------
  1732                           ;! (11) _tmr                                                 8     8      0    9830
  1733                           ;!                                            107 COMRAM     8     8      0
  1734                           ;!                   i2_estadosMaquina
  1735                           ;! ---------------------------------------------------------------------------------
  1736                           ;! (12) i2_estadosMaquina                                    2     2      0    9830
  1737                           ;!                                            105 COMRAM     2     2      0
  1738                           ;!                          i2_escreve
  1739                           ;!                          i2_sprintf
  1740                           ;!                           i2_tempo1
  1741                           ;! ---------------------------------------------------------------------------------
  1742                           ;! (13) i2_tempo1                                            2     2      0    4915
  1743                           ;!                                            103 COMRAM     2     2      0
  1744                           ;!                         i2_escreve2
  1745                           ;!                          i2_sprintf
  1746                           ;! ---------------------------------------------------------------------------------
  1747                           ;! (14) i2_sprintf                                          16    10      6    4626
  1748                           ;!                                             87 COMRAM    16    10      6
  1749                           ;!                         i2_vfprintf
  1750                           ;! ---------------------------------------------------------------------------------
  1751                           ;! (15) i2_vfprintf                                          8     2      6    3855
  1752                           ;!                                             79 COMRAM     8     2      6
  1753                           ;!                        i2_vfpfcnvrt
  1754                           ;! ---------------------------------------------------------------------------------
  1755                           ;! (16) i2_vfpfcnvrt                                        42    36      6    3651
  1756                           ;!                                             63 COMRAM    16    10      6
  1757                           ;!                             i2_dtoa
  1758                           ;!                            i2_fputc
  1759                           ;! ---------------------------------------------------------------------------------
  1760                           ;! (17) i2_dtoa                                             36    26     10    2808
  1761                           ;!                                             27 COMRAM    36    26     10
  1762                           ;!                          i2___aodiv
  1763                           ;!                          i2___aomod
  1764                           ;!                              i2_abs
  1765                           ;!                              i2_pad
  1766                           ;! ---------------------------------------------------------------------------------
  1767                           ;! (18) i2_pad                                              11     5      6    1509
  1768                           ;!                                             16 COMRAM    11     5      6
  1769                           ;!                            i2_fputc
  1770                           ;!                            i2_fputs
  1771                           ;!                           i2_strlen
  1772                           ;! ---------------------------------------------------------------------------------
  1773                           ;! (19) i2_strlen                                            6     4      2     116
  1774                           ;!                                              0 COMRAM     6     4      2
  1775                           ;! ---------------------------------------------------------------------------------
  1776                           ;! (19) i2_fputs                                             7     3      4     635
  1777                           ;!                                              9 COMRAM     7     3      4
  1778                           ;!                            i2_fputc
  1779                           ;! ---------------------------------------------------------------------------------
  1780                           ;! (17) i2_fputc                                             9     5      4     434
  1781                           ;!                                              0 COMRAM     9     5      4
  1782                           ;!                            i2_putch
  1783                           ;! ---------------------------------------------------------------------------------
  1784                           ;! (18) i2_putch                                             1     1      0       0
  1785                           ;! ---------------------------------------------------------------------------------
  1786                           ;! (18) i2_abs                                               4     2      2      92
  1787                           ;!                                             18 COMRAM     4     2      2
  1788                           ;!                          i2___aomod (ARG)
  1789                           ;! ---------------------------------------------------------------------------------
  1790                           ;! (18) i2___aomod                                          18     2     16     348
  1791                           ;!                                              0 COMRAM    18     2     16
  1792                           ;! ---------------------------------------------------------------------------------
  1793                           ;! (18) i2___aodiv                                          26    10     16     352
  1794                           ;!                                              0 COMRAM    26    10     16
  1795                           ;! ---------------------------------------------------------------------------------
  1796                           ;! (14) i2_escreve2                                          0     0      0     289
  1797                           ;!                        i2_lcd_clear
  1798                           ;!                         i2_lcd_goto
  1799                           ;!                         i2_lcd_puts
  1800                           ;! ---------------------------------------------------------------------------------
  1801                           ;! (13) i2_escreve                                           0     0      0     289
  1802                           ;!                        i2_lcd_clear
  1803                           ;!                         i2_lcd_goto
  1804                           ;!                         i2_lcd_puts
  1805                           ;! ---------------------------------------------------------------------------------
  1806                           ;! (15) i2_lcd_puts                                          2     0      2     223
  1807                           ;!                                              1 COMRAM     2     0      2
  1808                           ;!                        i2_lcd_write
  1809                           ;! ---------------------------------------------------------------------------------
  1810                           ;! (15) i2_lcd_goto                                          1     1      0      44
  1811                           ;!                                              1 COMRAM     1     1      0
  1812                           ;!                        i2_lcd_write
  1813                           ;! ---------------------------------------------------------------------------------
  1814                           ;! (15) i2_lcd_clear                                         1     1      0      22
  1815                           ;!                                              1 COMRAM     1     1      0
  1816                           ;!                        i2_lcd_write
  1817                           ;! ---------------------------------------------------------------------------------
  1818                           ;! (16) i2_lcd_write                                         1     1      0      22
  1819                           ;!                                              0 COMRAM     1     1      0
  1820                           ;! ---------------------------------------------------------------------------------
  1821                           ;! Estimated maximum stack depth 19
  1822                           ;! ---------------------------------------------------------------------------------
  1823                           ;!
  1824                           ;! Call Graph Graphs:
  1825                           ;!
  1826                           ;! _main (ROOT)
  1827                           ;!   _config
  1828                           ;!   _estadosMaquina
  1829                           ;!     _escreve
  1830                           ;!       _lcd_clear
  1831                           ;!         _lcd_write
  1832                           ;!       _lcd_goto
  1833                           ;!         _lcd_write
  1834                           ;!       _lcd_puts
  1835                           ;!         _lcd_write
  1836                           ;!     _sprintf
  1837                           ;!       _vfprintf
  1838                           ;!         _vfpfcnvrt
  1839                           ;!           _dtoa
  1840                           ;!             ___aodiv
  1841                           ;!             ___aomod
  1842                           ;!             _abs
  1843                           ;!               ___aomod (ARG)
  1844                           ;!             _pad
  1845                           ;!               _fputc
  1846                           ;!                 _putch
  1847                           ;!               _fputs
  1848                           ;!                 _fputc
  1849                           ;!                   _putch
  1850                           ;!               _strlen
  1851                           ;!           _fputc
  1852                           ;!             _putch
  1853                           ;!     _tempo1
  1854                           ;!       _escreve2
  1855                           ;!         _lcd_clear
  1856                           ;!           _lcd_write
  1857                           ;!         _lcd_goto
  1858                           ;!           _lcd_write
  1859                           ;!         _lcd_puts
  1860                           ;!           _lcd_write
  1861                           ;!       _sprintf
  1862                           ;!         _vfprintf
  1863                           ;!           _vfpfcnvrt
  1864                           ;!             _dtoa
  1865                           ;!               ___aodiv
  1866                           ;!               ___aomod
  1867                           ;!               _abs
  1868                           ;!                 ___aomod (ARG)
  1869                           ;!               _pad
  1870                           ;!                 _fputc
  1871                           ;!                   _putch
  1872                           ;!                 _fputs
  1873                           ;!                   _fputc
  1874                           ;!                     _putch
  1875                           ;!                 _strlen
  1876                           ;!             _fputc
  1877                           ;!               _putch
  1878                           ;!   _lcd_init
  1879                           ;!     _lcd_clear
  1880                           ;!       _lcd_write
  1881                           ;!     _lcd_write
  1882                           ;!
  1883                           ;! _tmr (ROOT)
  1884                           ;!   i2_estadosMaquina
  1885                           ;!     i2_escreve
  1886                           ;!       i2_lcd_clear
  1887                           ;!         i2_lcd_write
  1888                           ;!       i2_lcd_goto
  1889                           ;!         i2_lcd_write
  1890                           ;!       i2_lcd_puts
  1891                           ;!         i2_lcd_write
  1892                           ;!     i2_sprintf
  1893                           ;!       i2_vfprintf
  1894                           ;!         i2_vfpfcnvrt
  1895                           ;!           i2_dtoa
  1896                           ;!             i2___aodiv
  1897                           ;!             i2___aomod
  1898                           ;!             i2_abs
  1899                           ;!               i2___aomod (ARG)
  1900                           ;!             i2_pad
  1901                           ;!               i2_fputc
  1902                           ;!                 i2_putch
  1903                           ;!               i2_fputs
  1904                           ;!                 i2_fputc
  1905                           ;!                   i2_putch
  1906                           ;!               i2_strlen
  1907                           ;!           i2_fputc
  1908                           ;!             i2_putch
  1909                           ;!     i2_tempo1
  1910                           ;!       i2_escreve2
  1911                           ;!         i2_lcd_clear
  1912                           ;!           i2_lcd_write
  1913                           ;!         i2_lcd_goto
  1914                           ;!           i2_lcd_write
  1915                           ;!         i2_lcd_puts
  1916                           ;!           i2_lcd_write
  1917                           ;!       i2_sprintf
  1918                           ;!         i2_vfprintf
  1919                           ;!           i2_vfpfcnvrt
  1920                           ;!             i2_dtoa
  1921                           ;!               i2___aodiv
  1922                           ;!               i2___aomod
  1923                           ;!               i2_abs
  1924                           ;!                 i2___aomod (ARG)
  1925                           ;!               i2_pad
  1926                           ;!                 i2_fputc
  1927                           ;!                   i2_putch
  1928                           ;!                 i2_fputs
  1929                           ;!                   i2_fputc
  1930                           ;!                     i2_putch
  1931                           ;!                 i2_strlen
  1932                           ;!             i2_fputc
  1933                           ;!               i2_putch
  1934                           ;!
  1935                           
  1936                           ;! Address spaces:
  1937                           
  1938                           ;!Name               Size   Autos  Total    Cost      Usage
  1939                           ;!BIGRAM             5FF      0       0      17        0.0%
  1940                           ;!EEDATA             100      0       0       0        0.0%
  1941                           ;!BITBANK5           100      0       0      16        0.0%
  1942                           ;!BANK5              100      0       0      14        0.0%
  1943                           ;!BITBANK4           100      0       0      12        0.0%
  1944                           ;!BANK4              100      0       0      13        0.0%
  1945                           ;!BITBANK3           100      0       0      10        0.0%
  1946                           ;!BANK3              100      0       0      11        0.0%
  1947                           ;!BITBANK2           100      0       0       8        0.0%
  1948                           ;!BANK2              100      0       0       9        0.0%
  1949                           ;!BITBANK1           100      0       0       6        0.0%
  1950                           ;!BANK1              100      0      2F       7       18.4%
  1951                           ;!BITBANK0            80      0       0       4        0.0%
  1952                           ;!BANK0               80     6C      7D       5       97.7%
  1953                           ;!BITCOMRAM           7E      0       0       0        0.0%
  1954                           ;!COMRAM              7E     73      7B       1       97.6%
  1955                           ;!BITSFR               0      0       0     200        0.0%
  1956                           ;!SFR                  0      0       0     200        0.0%
  1957                           ;!STACK                0      0       0       2        0.0%
  1958                           ;!NULL                 0      0       0       0        0.0%
  1959                           ;!ABS                  0      0     127      15        0.0%
  1960                           ;!DATA                 0      0     127       3        0.0%
  1961                           ;!CODE                 0      0       0       0        0.0%
  1962                           
  1963                           	global	_main
  1964                           
  1965 ;; *************** function _main *****************
  1966 ;; Defined at:
  1967 ;;		line 36 in file "MaquinaDeLavar.c"
  1968 ;; Parameters:    Size  Location     Type
  1969 ;;		None
  1970 ;; Auto vars:     Size  Location     Type
  1971 ;;		None
  1972 ;; Return value:  Size  Location     Type
  1973 ;;                  1    wreg      void 
  1974 ;; Registers used:
  1975 ;;		wreg, fsr1l, fsr1h, fsr2l, fsr2h, status,2, status,0, tblptrl, tblptrh, tblptru, cstack
  1976 ;; Tracked objects:
  1977 ;;		On entry : 0/0
  1978 ;;		On exit  : 0/0
  1979 ;;		Unchanged: 0/0
  1980 ;; Data sizes:     COMRAM   BANK0   BANK1   BANK2   BANK3   BANK4   BANK5
  1981 ;;      Params:         0       0       0       0       0       0       0
  1982 ;;      Locals:         0       0       0       0       0       0       0
  1983 ;;      Temps:          0       1       0       0       0       0       0
  1984 ;;      Totals:         0       1       0       0       0       0       0
  1985 ;;Total ram usage:        1 bytes
  1986 ;; Hardware stack levels required when called:   21
  1987 ;; This function calls:
  1988 ;;		_config
  1989 ;;		_estadosMaquina
  1990 ;;		_lcd_init
  1991 ;; This function is called by:
  1992 ;;		Startup code after reset
  1993 ;; This function uses a non-reentrant model
  1994 ;;
  1995                           psect	text0,class=CODE,space=0,reloc=2,group=0
  1996                           	file	"MaquinaDeLavar.c"
  1997                           	line	36
  1998                           global __ptext0
  1999                           __ptext0:
  2000  001F68                     psect	text0
  2001                           	file	"MaquinaDeLavar.c"
  2002                           	line	36
  2003                           	global	__size_of_main
  2004                           	__size_of_main	equ	__end_of_main-_main
  2005  0000                     	
  2006                           _main:
  2007  001F68                     ;incstack = 0
  2008                           	opt	stack 10
  2009                           	line	38
  2010                           	
  2011                           l3111:
  2012  001F68                     ;MaquinaDeLavar.c: 38:     config();
  2013                           	call	_config	;wreg free
  2014  001F68  EC04  F015         	line	39
  2015                           ;MaquinaDeLavar.c: 39:     lcd_init();
  2016                           	call	_lcd_init	;wreg free
  2017  001F6C  EC97  F012         	line	40
  2018                           	
  2019                           l3113:
  2020  001F70                     ;MaquinaDeLavar.c: 40:     PORTB = 0;
  2021                           	movlw	low(0)
  2022  001F70  0E00               	movwf	((c:3969)),c	;volatile
  2023  001F72  6E81               	line	41
  2024                           	
  2025                           l3115:
  2026  001F74                     ;MaquinaDeLavar.c: 41:     PORTD = 0;
  2027                           	movlw	low(0)
  2028  001F74  0E00               	movwf	((c:3971)),c	;volatile
  2029  001F76  6E83               	line	42
  2030                           	
  2031                           l3117:
  2032  001F78                     ;MaquinaDeLavar.c: 42:     PORTE = 0;
  2033                           	movlw	low(0)
  2034  001F78  0E00               	movwf	((c:3972)),c	;volatile
  2035  001F7A  6E84               	line	43
  2036                           	
  2037                           l3119:
  2038  001F7C                     ;MaquinaDeLavar.c: 43:     TMR0=6;
  2039                           	movlw	high(06h)
  2040  001F7C  0E00               	movwf	((c:4054+1)),c	;volatile
  2041  001F7E  6ED7               	movlw	low(06h)
  2042  001F80  0E06               	movwf	((c:4054)),c	;volatile
  2043  001F82  6ED6               	line	44
  2044                           	
  2045                           l3121:
  2046  001F84                     ;MaquinaDeLavar.c: 44:     estadosMaquina();
  2047                           	call	_estadosMaquina	;wreg free
  2048  001F84  EC23  F003         	goto	l3123
  2049  001F88  EFC6  F00F         	line	45
  2050                           ;MaquinaDeLavar.c: 45:     while (1) {
  2051                           	
  2052                           l123:
  2053  001F8C                     	line	46
  2054                           	
  2055                           l3123:
  2056  001F8C                     ;MaquinaDeLavar.c: 46:         if (!PORTCbits.RC1) {
  2057                           	btfsc	((c:3970)),c,1	;volatile
  2058  001F8C  B282               	goto	u2741
  2059  001F8E  EFCB  F00F         	goto	u2740
  2060  001F92  EFCD  F00F         u2741:
  2061  001F96                     	goto	l3139
  2062  001F96  EF05  F010         u2740:
  2063  001F9A                     	line	47
  2064                           	
  2065                           l3125:
  2066  001F9A                     ;MaquinaDeLavar.c: 47:             _delay((unsigned long)((5)*(4000000/4000.0)));
  2067                           	opt asmopt_push
  2068                           opt asmopt_off
  2069                           movlw	7
  2070  001F9A  0E07               	movlb	0	; () banked
  2071  001F9C  0100               movwf	(??_main+0+0)&0ffh,f
  2072  001F9E  6FEB               	movlw	125
  2073  001FA0  0E7D               u2917:
  2074  001FA2                     decfsz	wreg,f
  2075  001FA2  2EE8               	bra	u2917
  2076  001FA4  D7FE               	decfsz	(??_main+0+0)&0ffh,f
  2077  001FA6  2FEB               	bra	u2917
  2078  001FA8  D7FC               opt asmopt_pop
  2079                           
  2080                           	line	48
  2081                           	
  2082                           l3127:
  2083  001FAA                     ;MaquinaDeLavar.c: 48:             if (!PORTCbits.RC1) {
  2084                           	btfsc	((c:3970)),c,1	;volatile
  2085  001FAA  B282               	goto	u2751
  2086  001FAC  EFDA  F00F         	goto	u2750
  2087  001FB0  EFDC  F00F         u2751:
  2088  001FB4                     	goto	l3139
  2089  001FB4  EF05  F010         u2750:
  2090  001FB8                     	goto	l126
  2091  001FB8  EFE0  F00F         	line	49
  2092                           	
  2093                           l3129:
  2094  001FBC                     ;MaquinaDeLavar.c: 49:                 while (!PORTCbits.RC1);
  2095                           	goto	l126
  2096  001FBC  EFE0  F00F         	
  2097                           l127:
  2098  001FC0                     	
  2099                           l126:
  2100  001FC0                     	btfss	((c:3970)),c,1	;volatile
  2101  001FC0  A282               	goto	u2761
  2102  001FC2  EFE5  F00F         	goto	u2760
  2103  001FC6  EFE7  F00F         u2761:
  2104  001FCA                     	goto	l126
  2105  001FCA  EFE0  F00F         u2760:
  2106  001FCE                     	goto	l3131
  2107  001FCE  EFE9  F00F         	
  2108                           l128:
  2109  001FD2                     	line	52
  2110                           	
  2111                           l3131:
  2112  001FD2                     ;MaquinaDeLavar.c: 52:                 if(estado == 0){
  2113                           	movlb	0	; () banked
  2114  001FD2  0100               	movf	((_estado))&0ffh,w
  2115  001FD4  51F4               iorwf	((_estado+1))&0ffh,w
  2116  001FD6  11F5               	btfss	status,2
  2117  001FD8  A4D8               	goto	u2771
  2118  001FDA  EFF1  F00F         	goto	u2770
  2119  001FDE  EFF3  F00F         
  2120                           u2771:
  2121  001FE2                     	goto	l3135
  2122  001FE2  EFF9  F00F         u2770:
  2123  001FE6                     	line	53
  2124                           	
  2125                           l3133:; BSR set to: 0
  2126  001FE6                     
  2127                           ;MaquinaDeLavar.c: 53:                     estado = 1;
  2128                           	movlw	high(01h)
  2129  001FE6  0E00               	movwf	((_estado+1))&0ffh
  2130  001FE8  6FF5               	movlw	low(01h)
  2131  001FEA  0E01               	movwf	((_estado))&0ffh
  2132  001FEC  6FF4               	line	54
  2133                           ;MaquinaDeLavar.c: 54:                 }else {
  2134                           	goto	l3137
  2135  001FEE  EFFF  F00F         	
  2136                           l129:; BSR set to: 0
  2137  001FF2                     
  2138                           	line	55
  2139                           	
  2140                           l3135:; BSR set to: 0
  2141  001FF2                     
  2142                           ;MaquinaDeLavar.c: 55:                     estado = 0;
  2143                           	movlw	high(0)
  2144  001FF2  0E00               	movwf	((_estado+1))&0ffh
  2145  001FF4  6FF5               	movlw	low(0)
  2146  001FF6  0E00               	movwf	((_estado))&0ffh
  2147  001FF8  6FF4               	goto	l3137
  2148  001FFA  EFFF  F00F         	line	56
  2149                           ;MaquinaDeLavar.c: 56:                 }
  2150                           	
  2151                           l130:; BSR set to: 0
  2152  001FFE                     
  2153                           	line	57
  2154                           	
  2155                           l3137:; BSR set to: 0
  2156  001FFE                     
  2157                           ;MaquinaDeLavar.c: 57:                 estadosMaquina();
  2158                           	call	_estadosMaquina	;wreg free
  2159  001FFE  EC23  F003         	goto	l3139
  2160  002002  EF05  F010         	line	58
  2161                           ;MaquinaDeLavar.c: 58:             }
  2162                           	
  2163                           l125:
  2164  002006                     	goto	l3139
  2165  002006  EF05  F010         	line	59
  2166                           ;MaquinaDeLavar.c: 59:         }
  2167                           	
  2168                           l124:
  2169  00200A                     	line	61
  2170                           	
  2171                           l3139:
  2172  00200A                     ;MaquinaDeLavar.c: 61:        if (!PORTCbits.RC2) {
  2173                           	btfsc	((c:3970)),c,2	;volatile
  2174  00200A  B482               	goto	u2781
  2175  00200C  EF0A  F010         	goto	u2780
  2176  002010  EF0C  F010         u2781:
  2177  002014                     	goto	l3153
  2178  002014  EF40  F010         u2780:
  2179  002018                     	line	62
  2180                           	
  2181                           l3141:
  2182  002018                     ;MaquinaDeLavar.c: 62:             _delay((unsigned long)((5)*(4000000/4000.0)));
  2183                           	opt asmopt_push
  2184                           opt asmopt_off
  2185                           movlw	7
  2186  002018  0E07               	movlb	0	; () banked
  2187  00201A  0100               movwf	(??_main+0+0)&0ffh,f
  2188  00201C  6FEB               	movlw	125
  2189  00201E  0E7D               u2927:
  2190  002020                     decfsz	wreg,f
  2191  002020  2EE8               	bra	u2927
  2192  002022  D7FE               	decfsz	(??_main+0+0)&0ffh,f
  2193  002024  2FEB               	bra	u2927
  2194  002026  D7FC               opt asmopt_pop
  2195                           
  2196                           	line	63
  2197                           	
  2198                           l3143:
  2199  002028                     ;MaquinaDeLavar.c: 63:             if (!PORTCbits.RC2) {
  2200                           	btfsc	((c:3970)),c,2	;volatile
  2201  002028  B482               	goto	u2791
  2202  00202A  EF19  F010         	goto	u2790
  2203  00202E  EF1B  F010         u2791:
  2204  002032                     	goto	l3153
  2205  002032  EF40  F010         u2790:
  2206  002036                     	goto	l133
  2207  002036  EF1F  F010         	line	64
  2208                           	
  2209                           l3145:
  2210  00203A                     ;MaquinaDeLavar.c: 64:                 while (!PORTCbits.RC2);
  2211                           	goto	l133
  2212  00203A  EF1F  F010         	
  2213                           l134:
  2214  00203E                     	
  2215                           l133:
  2216  00203E                     	btfss	((c:3970)),c,2	;volatile
  2217  00203E  A482               	goto	u2801
  2218  002040  EF24  F010         	goto	u2800
  2219  002044  EF26  F010         u2801:
  2220  002048                     	goto	l133
  2221  002048  EF1F  F010         u2800:
  2222  00204C                     	goto	l3147
  2223  00204C  EF28  F010         	
  2224                           l135:
  2225  002050                     	line	65
  2226                           	
  2227                           l3147:
  2228  002050                     ;MaquinaDeLavar.c: 65:                 if(estado!=0)
  2229                           	movlb	0	; () banked
  2230  002050  0100               	movf	((_estado))&0ffh,w
  2231  002052  51F4               iorwf	((_estado+1))&0ffh,w
  2232  002054  11F5               	btfsc	status,2
  2233  002056  B4D8               	goto	u2811
  2234  002058  EF30  F010         	goto	u2810
  2235  00205C  EF32  F010         
  2236                           u2811:
  2237  002060                     	goto	l3151
  2238  002060  EF3A  F010         u2810:
  2239  002064                     	line	66
  2240                           	
  2241                           l3149:; BSR set to: 0
  2242  002064                     
  2243                           ;MaquinaDeLavar.c: 66:                 estado = estado + 1;
  2244                           	movlw	low(01h)
  2245  002064  0E01               	addwf	((_estado))&0ffh,w
  2246  002066  25F4               	movwf	((_estado))&0ffh
  2247  002068  6FF4               	movlw	high(01h)
  2248  00206A  0E00               	addwfc	((_estado+1))&0ffh,w
  2249  00206C  21F5               	movwf	1+((_estado))&0ffh
  2250  00206E  6FF5               	goto	l3151
  2251  002070  EF3A  F010         	
  2252                           l136:; BSR set to: 0
  2253  002074                     
  2254                           	line	67
  2255                           	
  2256                           l3151:; BSR set to: 0
  2257  002074                     
  2258                           ;MaquinaDeLavar.c: 67:                 estadosMaquina();
  2259                           	call	_estadosMaquina	;wreg free
  2260  002074  EC23  F003         	goto	l3153
  2261  002078  EF40  F010         	line	69
  2262                           ;MaquinaDeLavar.c: 69:             }
  2263                           	
  2264                           l132:
  2265  00207C                     	goto	l3153
  2266  00207C  EF40  F010         	line	70
  2267                           ;MaquinaDeLavar.c: 70:         }
  2268                           	
  2269                           l131:
  2270  002080                     	line	71
  2271                           	
  2272                           l3153:
  2273  002080                     ;MaquinaDeLavar.c: 71:         if(estado != 0)
  2274                           	movlb	0	; () banked
  2275  002080  0100               	movf	((_estado))&0ffh,w
  2276  002082  51F4               iorwf	((_estado+1))&0ffh,w
  2277  002084  11F5               	btfsc	status,2
  2278  002086  B4D8               	goto	u2821
  2279  002088  EF48  F010         	goto	u2820
  2280  00208C  EF4A  F010         
  2281                           u2821:
  2282  002090                     	goto	l3123
  2283  002090  EFC6  F00F         u2820:
  2284  002094                     	line	73
  2285                           	
  2286                           l3155:; BSR set to: 0
  2287  002094                     
  2288                           ;MaquinaDeLavar.c: 72:         {;MaquinaDeLavar.c: 73:             estadosMaquina();
  2289                           	call	_estadosMaquina	;wreg free
  2290  002094  EC23  F003         	goto	l3123
  2291  002098  EFC6  F00F         	line	74
  2292                           ;MaquinaDeLavar.c: 74:         }
  2293                           	
  2294                           l137:
  2295  00209C                     	goto	l3123
  2296  00209C  EFC6  F00F         	line	75
  2297                           ;MaquinaDeLavar.c: 75:     }
  2298                           	
  2299                           l138:
  2300  0020A0                     	goto	l3123
  2301  0020A0  EFC6  F00F         	
  2302                           l139:
  2303  0020A4                     	line	78
  2304                           	
  2305                           l140:
  2306  0020A4                     	global	start
  2307                           	goto	start
  2308  0020A4  EF07  F000         	opt stack 0
  2309                           GLOBAL	__end_of_main
  2310                           	__end_of_main:
  2311  0020A8                     	signat	_main,89
  2312                           	global	_lcd_init
  2313                           
  2314 ;; *************** function _lcd_init *****************
  2315 ;; Defined at:
  2316 ;;		line 92 in file "lcd.c"
  2317 ;; Parameters:    Size  Location     Type
  2318 ;;		None
  2319 ;; Auto vars:     Size  Location     Type
  2320 ;;  init_value      1    3[BANK0 ] unsigned char 
  2321 ;; Return value:  Size  Location     Type
  2322 ;;                  1    wreg      void 
  2323 ;; Registers used:
  2324 ;;		wreg, status,2, cstack
  2325 ;; Tracked objects:
  2326 ;;		On entry : 0/0
  2327 ;;		On exit  : 0/0
  2328 ;;		Unchanged: 0/0
  2329 ;; Data sizes:     COMRAM   BANK0   BANK1   BANK2   BANK3   BANK4   BANK5
  2330 ;;      Params:         0       0       0       0       0       0       0
  2331 ;;      Locals:         0       1       0       0       0       0       0
  2332 ;;      Temps:          0       1       0       0       0       0       0
  2333 ;;      Totals:         0       2       0       0       0       0       0
  2334 ;;Total ram usage:        2 bytes
  2335 ;; Hardware stack levels used:    1
  2336 ;; Hardware stack levels required when called:   13
  2337 ;; This function calls:
  2338 ;;		_lcd_clear
  2339 ;;		_lcd_write
  2340 ;; This function is called by:
  2341 ;;		_main
  2342 ;; This function uses a non-reentrant model
  2343 ;;
  2344                           psect	text1,class=CODE,space=0,reloc=2,group=0
  2345                           	file	"lcd.c"
  2346                           	line	92
  2347                           global __ptext1
  2348                           __ptext1:
  2349  00252E                     psect	text1
  2350                           	file	"lcd.c"
  2351                           	line	92
  2352                           	global	__size_of_lcd_init
  2353                           	__size_of_lcd_init	equ	__end_of_lcd_init-_lcd_init
  2354  0000                     	
  2355                           _lcd_init:
  2356  00252E                     ;incstack = 0
  2357                           	opt	stack 17
  2358                           	line	97
  2359                           	
  2360                           l2745:
  2361  00252E                     ;lcd.c: 94:  char init_value;;lcd.c: 97:  init_value = 0x03;
  2362                           	movlw	low(03h)
  2363  00252E  0E03               	movlb	0	; () banked
  2364  002530  0100               	movwf	((lcd_init@init_value))&0ffh
  2365  002532  6F83               	line	98
  2366                           	
  2367                           l2747:; BSR set to: 0
  2368  002534                     
  2369                           ;lcd.c: 98:  LE0 = 0;
  2370                           	bcf	c:(31848/8),(31848)&7	;volatile
  2371  002534  908D               	line	99
  2372                           	
  2373                           l2749:; BSR set to: 0
  2374  002536                     
  2375                           ;lcd.c: 99:  LE1 = 0;
  2376                           	bcf	c:(31849/8),(31849)&7	;volatile
  2377  002536  928D               	line	102
  2378                           	
  2379                           l2751:; BSR set to: 0
  2380  002538                     
  2381                           ;lcd.c: 102:  _delay((unsigned long)((15)*(4000000/4000.0)));
  2382                           	opt asmopt_push
  2383                           opt asmopt_off
  2384                           movlw	20
  2385  002538  0E14               	movlb	0	; () banked
  2386  00253A  0100               movwf	(??_lcd_init+0+0)&0ffh,f
  2387  00253C  6F82               	movlw	121
  2388  00253E  0E79               u2937:
  2389  002540                     decfsz	wreg,f
  2390  002540  2EE8               	bra	u2937
  2391  002542  D7FE               	decfsz	(??_lcd_init+0+0)&0ffh,f
  2392  002544  2F82               	bra	u2937
  2393  002546  D7FC               	nop2
  2394  002548  D000               opt asmopt_pop
  2395                           
  2396                           	line	103
  2397                           	
  2398                           l2753:
  2399  00254A                     ;lcd.c: 103:  PORTD = init_value;
  2400                           	movff	(lcd_init@init_value),(c:3971)	;volatile
  2401  00254A  C083  FF83         	line	104
  2402                           	
  2403                           l2755:
  2404  00254E                     ;lcd.c: 104:  ((LE1 = 1),(LE1=0));
  2405                           	bsf	c:(31849/8),(31849)&7	;volatile
  2406  00254E  828D               	
  2407                           l2757:
  2408  002550                     	bcf	c:(31849/8),(31849)&7	;volatile
  2409  002550  928D               	line	105
  2410                           	
  2411                           l2759:
  2412  002552                     ;lcd.c: 105:  _delay((unsigned long)((5)*(4000000/4000.0)));
  2413                           	opt asmopt_push
  2414                           opt asmopt_off
  2415                           movlw	7
  2416  002552  0E07               	movlb	0	; () banked
  2417  002554  0100               movwf	(??_lcd_init+0+0)&0ffh,f
  2418  002556  6F82               	movlw	125
  2419  002558  0E7D               u2947:
  2420  00255A                     decfsz	wreg,f
  2421  00255A  2EE8               	bra	u2947
  2422  00255C  D7FE               	decfsz	(??_lcd_init+0+0)&0ffh,f
  2423  00255E  2F82               	bra	u2947
  2424  002560  D7FC               opt asmopt_pop
  2425                           
  2426                           	line	106
  2427                           	
  2428                           l2761:
  2429  002562                     ;lcd.c: 106:  ((LE1 = 1),(LE1=0));
  2430                           	bsf	c:(31849/8),(31849)&7	;volatile
  2431  002562  828D               	
  2432                           l2763:
  2433  002564                     	bcf	c:(31849/8),(31849)&7	;volatile
  2434  002564  928D               	line	107
  2435                           	
  2436                           l2765:
  2437  002566                     ;lcd.c: 107:  _delay((unsigned long)((200)*(4000000/4000000.0)));
  2438                           	opt asmopt_push
  2439                           opt asmopt_off
  2440                           	movlw	66
  2441  002566  0E42               u2957:
  2442  002568                     decfsz	wreg,f
  2443  002568  2EE8               	bra	u2957
  2444  00256A  D7FE               	nop2
  2445  00256C  D000               opt asmopt_pop
  2446                           
  2447                           	line	108
  2448                           	
  2449                           l2767:
  2450  00256E                     ;lcd.c: 108:  ((LE1 = 1),(LE1=0));
  2451                           	bsf	c:(31849/8),(31849)&7	;volatile
  2452  00256E  828D               	
  2453                           l2769:
  2454  002570                     	bcf	c:(31849/8),(31849)&7	;volatile
  2455  002570  928D               	line	109
  2456                           	
  2457                           l2771:
  2458  002572                     ;lcd.c: 109:  _delay((unsigned long)((200)*(4000000/4000000.0)));
  2459                           	opt asmopt_push
  2460                           opt asmopt_off
  2461                           	movlw	66
  2462  002572  0E42               u2967:
  2463  002574                     decfsz	wreg,f
  2464  002574  2EE8               	bra	u2967
  2465  002576  D7FE               	nop2
  2466  002578  D000               opt asmopt_pop
  2467                           
  2468                           	line	110
  2469                           ;lcd.c: 110:  PORTD = 2;
  2470                           	movlw	low(02h)
  2471  00257A  0E02               	movwf	((c:3971)),c	;volatile
  2472  00257C  6E83               	line	111
  2473                           	
  2474                           l2773:
  2475  00257E                     ;lcd.c: 111:  ((LE1 = 1),(LE1=0));
  2476                           	bsf	c:(31849/8),(31849)&7	;volatile
  2477  00257E  828D               	
  2478                           l2775:
  2479  002580                     	bcf	c:(31849/8),(31849)&7	;volatile
  2480  002580  928D               	line	113
  2481                           	
  2482                           l2777:
  2483  002582                     ;lcd.c: 113:  lcd_write(0x38);
  2484                           	movlw	(038h)&0ffh
  2485  002582  0E38               	
  2486                           	call	_lcd_write
  2487  002584  EC9F  F015         	line	114
  2488                           	
  2489                           l2779:
  2490  002588                     ;lcd.c: 114:  lcd_write(0x06);
  2491                           	movlw	(06h)&0ffh
  2492  002588  0E06               	
  2493                           	call	_lcd_write
  2494  00258A  EC9F  F015         	line	115
  2495                           	
  2496                           l2781:
  2497  00258E                     ;lcd.c: 115:  lcd_write(0x0C);
  2498                           	movlw	(0Ch)&0ffh
  2499  00258E  0E0C               	
  2500                           	call	_lcd_write
  2501  002590  EC9F  F015         	line	116
  2502                           	
  2503                           l2783:
  2504  002594                     ;lcd.c: 116:  lcd_clear();
  2505                           	call	_lcd_clear	;wreg free
  2506  002594  EC85  F015         	line	118
  2507                           	
  2508                           l29:
  2509  002598                     	return	;funcret
  2510  002598  0012               	opt stack 0
  2511                           GLOBAL	__end_of_lcd_init
  2512                           	__end_of_lcd_init:
  2513  00259A                     	signat	_lcd_init,89
  2514                           	global	_estadosMaquina
  2515                           
  2516 ;; *************** function _estadosMaquina *****************
  2517 ;; Defined at:
  2518 ;;		line 117 in file "MaquinaDeLavar.c"
  2519 ;; Parameters:    Size  Location     Type
  2520 ;;		None
  2521 ;; Auto vars:     Size  Location     Type
  2522 ;;		None
  2523 ;; Return value:  Size  Location     Type
  2524 ;;                  1    wreg      void 
  2525 ;; Registers used:
  2526 ;;		wreg, fsr1l, fsr1h, fsr2l, fsr2h, status,2, status,0, tblptrl, tblptrh, tblptru, cstack
  2527 ;; Tracked objects:
  2528 ;;		On entry : 0/0
  2529 ;;		On exit  : 0/0
  2530 ;;		Unchanged: 0/0
  2531 ;; Data sizes:     COMRAM   BANK0   BANK1   BANK2   BANK3   BANK4   BANK5
  2532 ;;      Params:         0       0       0       0       0       0       0
  2533 ;;      Locals:         0       0       0       0       0       0       0
  2534 ;;      Temps:          0       2       0       0       0       0       0
  2535 ;;      Totals:         0       2       0       0       0       0       0
  2536 ;;Total ram usage:        2 bytes
  2537 ;; Hardware stack levels used:    1
  2538 ;; Hardware stack levels required when called:   20
  2539 ;; This function calls:
  2540 ;;		_escreve
  2541 ;;		_sprintf
  2542 ;;		_tempo1
  2543 ;; This function is called by:
  2544 ;;		_main
  2545 ;; This function uses a non-reentrant model
  2546 ;;
  2547                           psect	text2,class=CODE,space=0,reloc=2,group=0
  2548                           	file	"MaquinaDeLavar.c"
  2549                           	line	117
  2550                           global __ptext2
  2551                           __ptext2:
  2552  000646                     psect	text2
  2553                           	file	"MaquinaDeLavar.c"
  2554                           	line	117
  2555                           	global	__size_of_estadosMaquina
  2556                           	__size_of_estadosMaquina	equ	__end_of_estadosMaquina-_estadosMaquina
  2557  0000                     	
  2558                           _estadosMaquina:
  2559  000646                     ;incstack = 0
  2560                           	opt	stack 10
  2561                           	line	119
  2562                           	
  2563                           l2795:
  2564  000646                     ;MaquinaDeLavar.c: 119:         if (estado == 0) {
  2565                           	movlb	0	; () banked
  2566  000646  0100               	movf	((_estado))&0ffh,w
  2567  000648  51F4               iorwf	((_estado+1))&0ffh,w
  2568  00064A  11F5               	btfss	status,2
  2569  00064C  A4D8               	goto	u2461
  2570  00064E  EF2B  F003         	goto	u2460
  2571  000652  EF2D  F003         
  2572                           u2461:
  2573  000656                     	goto	l2805
  2574  000656  EF41  F003         u2460:
  2575  00065A                     	line	120
  2576                           	
  2577                           l2797:; BSR set to: 0
  2578  00065A                     
  2579                           ;MaquinaDeLavar.c: 120:             PORTBbits.RB7 =0;
  2580                           	bcf	((c:3969)),c,7	;volatile
  2581  00065A  9E81               	line	121
  2582                           ;MaquinaDeLavar.c: 121:             PORTBbits.RB5 =0;
  2583                           	bcf	((c:3969)),c,5	;volatile
  2584  00065C  9A81               	line	122
  2585                           ;MaquinaDeLavar.c: 122:             PORTBbits.RB6 =0;
  2586                           	bcf	((c:3969)),c,6	;volatile
  2587  00065E  9C81               	line	123
  2588                           ;MaquinaDeLavar.c: 123:             PORTBbits.RB0 = 0;
  2589                           	bcf	((c:3969)),c,0	;volatile
  2590  000660  9081               	line	124
  2591                           	
  2592                           l2799:; BSR set to: 0
  2593  000662                     
  2594                           ;MaquinaDeLavar.c: 124:             TXREG = 0;
  2595                           	movlw	low(0)
  2596  000662  0E00               	movwf	((c:4013)),c	;volatile
  2597  000664  6EAD               	line	125
  2598                           	
  2599                           l2801:; BSR set to: 0
  2600  000666                     
  2601                           ;MaquinaDeLavar.c: 125:             sprintf(estadoMes, "Desligado");
  2602                           		movlw	low(_estadoMes)
  2603  000666  0E20               	movwf	((sprintf@s))&0ffh
  2604  000668  6FD7               	movlw	high(_estadoMes)
  2605  00066A  0E01               	movwf	((sprintf@s+1))&0ffh
  2606  00066C  6FD8               
  2607                           		movlw	low(STR_2)
  2608  00066E  0E01               	movwf	((sprintf@fmt))&0ffh
  2609  000670  6FD9               	movlw	high(STR_2)
  2610  000672  0E06               	movwf	((sprintf@fmt+1))&0ffh
  2611  000674  6FDA               
  2612                           	call	_sprintf	;wreg free
  2613  000676  EC9C  F013         	line	126
  2614                           	
  2615                           l2803:
  2616  00067A                     ;MaquinaDeLavar.c: 126:             escreve();
  2617                           	call	_escreve	;wreg free
  2618  00067A  EC5F  F015         	line	127
  2619                           ;MaquinaDeLavar.c: 127:         }
  2620                           	goto	l188
  2621  00067E  EF09  F005         	line	128
  2622                           ;MaquinaDeLavar.c: 128:         else if (estado == 1) {
  2623                           	
  2624                           l169:
  2625  000682                     	
  2626                           l2805:
  2627  000682                     	movlb	0	; () banked
  2628  000682  0100               		decf	((_estado))&0ffh,w
  2629  000684  05F4               iorwf	((_estado+1))&0ffh,w
  2630  000686  11F5               	btfss	status,2
  2631  000688  A4D8               	goto	u2471
  2632  00068A  EF49  F003         	goto	u2470
  2633  00068E  EF4B  F003         
  2634                           u2471:
  2635  000692                     	goto	l2821
  2636  000692  EF65  F003         u2470:
  2637  000696                     	line	129
  2638                           	
  2639                           l2807:; BSR set to: 0
  2640  000696                     
  2641                           ;MaquinaDeLavar.c: 129:             sprintf(estadoMes, "Encher");
  2642                           		movlw	low(_estadoMes)
  2643  000696  0E20               	movwf	((sprintf@s))&0ffh
  2644  000698  6FD7               	movlw	high(_estadoMes)
  2645  00069A  0E01               	movwf	((sprintf@s+1))&0ffh
  2646  00069C  6FD8               
  2647                           		movlw	low(STR_3)
  2648  00069E  0E3A               	movwf	((sprintf@fmt))&0ffh
  2649  0006A0  6FD9               	movlw	high(STR_3)
  2650  0006A2  0E06               	movwf	((sprintf@fmt+1))&0ffh
  2651  0006A4  6FDA               
  2652                           	call	_sprintf	;wreg free
  2653  0006A6  EC9C  F013         	line	130
  2654                           	
  2655                           l2809:
  2656  0006AA                     ;MaquinaDeLavar.c: 130:             PORTBbits.RB0 = 1;
  2657                           	bsf	((c:3969)),c,0	;volatile
  2658  0006AA  8081               	line	131
  2659                           	
  2660                           l2811:
  2661  0006AC                     ;MaquinaDeLavar.c: 131:             PORTBbits.RB7 =1;
  2662                           	bsf	((c:3969)),c,7	;volatile
  2663  0006AC  8E81               	line	132
  2664                           	
  2665                           l2813:
  2666  0006AE                     ;MaquinaDeLavar.c: 132:             PORTBbits.RB6 =1;
  2667                           	bsf	((c:3969)),c,6	;volatile
  2668  0006AE  8C81               	line	133
  2669                           	
  2670                           l2815:
  2671  0006B0                     ;MaquinaDeLavar.c: 133:             TXREG = 1;
  2672                           	movlw	low(01h)
  2673  0006B0  0E01               	movwf	((c:4013)),c	;volatile
  2674  0006B2  6EAD               	line	134
  2675                           	
  2676                           l2817:
  2677  0006B4                     ;MaquinaDeLavar.c: 134:             estado = estado + 1;
  2678                           	movlw	low(01h)
  2679  0006B4  0E01               	movlb	0	; () banked
  2680  0006B6  0100               	addwf	((_estado))&0ffh,w
  2681  0006B8  25F4               	movwf	((_estado))&0ffh
  2682  0006BA  6FF4               	movlw	high(01h)
  2683  0006BC  0E00               	addwfc	((_estado+1))&0ffh,w
  2684  0006BE  21F5               	movwf	1+((_estado))&0ffh
  2685  0006C0  6FF5               	line	135
  2686                           	
  2687                           l2819:; BSR set to: 0
  2688  0006C2                     
  2689                           ;MaquinaDeLavar.c: 135:             escreve();
  2690                           	call	_escreve	;wreg free
  2691  0006C2  EC5F  F015         	line	136
  2692                           ;MaquinaDeLavar.c: 136:         }
  2693                           	goto	l188
  2694  0006C6  EF09  F005         	line	137
  2695                           ;MaquinaDeLavar.c: 137:         else if( (estado == 2) && (PORTCbits.RC3 == 0)){
  2696                           	
  2697                           l171:
  2698  0006CA                     	
  2699                           l2821:
  2700  0006CA                     		movlw	2
  2701  0006CA  0E02               	movlb	0	; () banked
  2702  0006CC  0100               	xorwf	((_estado))&0ffh,w
  2703  0006CE  19F4               iorwf	((_estado+1))&0ffh,w
  2704  0006D0  11F5               	btfss	status,2
  2705  0006D2  A4D8               	goto	u2481
  2706  0006D4  EF6E  F003         	goto	u2480
  2707  0006D8  EF70  F003         
  2708                           u2481:
  2709  0006DC                     	goto	l2841
  2710  0006DC  EFA2  F003         u2480:
  2711  0006E0                     	
  2712                           l2823:; BSR set to: 0
  2713  0006E0                     
  2714                           	btfsc	((c:3970)),c,3	;volatile
  2715  0006E0  B682               	goto	u2491
  2716  0006E2  EF75  F003         	goto	u2490
  2717  0006E6  EF77  F003         u2491:
  2718  0006EA                     	goto	l2841
  2719  0006EA  EFA2  F003         u2490:
  2720  0006EE                     	line	138
  2721                           	
  2722                           l2825:; BSR set to: 0
  2723  0006EE                     
  2724                           ;MaquinaDeLavar.c: 138:             PORTBbits.RB5 =1;
  2725                           	bsf	((c:3969)),c,5	;volatile
  2726  0006EE  8A81               	line	139
  2727                           ;MaquinaDeLavar.c: 139:             PORTBbits.RB7 =0;
  2728                           	bcf	((c:3969)),c,7	;volatile
  2729  0006F0  9E81               	line	140
  2730                           ;MaquinaDeLavar.c: 140:             PORTBbits.RB6 =0;
  2731                           	bcf	((c:3969)),c,6	;volatile
  2732  0006F2  9C81               	line	141
  2733                           	
  2734                           l2827:; BSR set to: 0
  2735  0006F4                     
  2736                           ;MaquinaDeLavar.c: 141:             _delay((unsigned long)((500)*(4000000/4000.0)));
  2737                           	opt asmopt_push
  2738                           opt asmopt_off
  2739                           movlw  3
  2740  0006F4  0E03               	movlb	0	; () banked
  2741  0006F6  0100               movwf	(??_estadosMaquina+0+0+1)&0ffh,f
  2742  0006F8  6FEA               movlw	138
  2743  0006FA  0E8A               movwf	(??_estadosMaquina+0+0)&0ffh,f
  2744  0006FC  6FE9               	movlw	85
  2745  0006FE  0E55               u2977:
  2746  000700                     decfsz	wreg,f
  2747  000700  2EE8               	bra	u2977
  2748  000702  D7FE               	decfsz	(??_estadosMaquina+0+0)&0ffh,f
  2749  000704  2FE9               	bra	u2977
  2750  000706  D7FC               	decfsz	(??_estadosMaquina+0+0+1)&0ffh,f
  2751  000708  2FEA               	bra	u2977
  2752  00070A  D7FA               	nop2
  2753  00070C  D000               opt asmopt_pop
  2754                           
  2755                           	line	142
  2756                           	
  2757                           l2829:
  2758  00070E                     ;MaquinaDeLavar.c: 142:             PORTBbits.RB7 = 1;
  2759                           	bsf	((c:3969)),c,7	;volatile
  2760  00070E  8E81               	line	143
  2761                           	
  2762                           l2831:
  2763  000710                     ;MaquinaDeLavar.c: 143:             sprintf(estadoMes, "Agitar");
  2764                           		movlw	low(_estadoMes)
  2765  000710  0E20               	movlb	0	; () banked
  2766  000712  0100               	movwf	((sprintf@s))&0ffh
  2767  000714  6FD7               	movlw	high(_estadoMes)
  2768  000716  0E01               	movwf	((sprintf@s+1))&0ffh
  2769  000718  6FD8               
  2770                           		movlw	low(STR_4)
  2771  00071A  0E33               	movwf	((sprintf@fmt))&0ffh
  2772  00071C  6FD9               	movlw	high(STR_4)
  2773  00071E  0E06               	movwf	((sprintf@fmt+1))&0ffh
  2774  000720  6FDA               
  2775                           	call	_sprintf	;wreg free
  2776  000722  EC9C  F013         	line	144
  2777                           	
  2778                           l2833:
  2779  000726                     ;MaquinaDeLavar.c: 144:             tempo1();
  2780                           	call	_tempo1	;wreg free
  2781  000726  EC0C  F012         	line	145
  2782                           	
  2783                           l2835:
  2784  00072A                     ;MaquinaDeLavar.c: 145:             TXREG = 2;
  2785                           	movlw	low(02h)
  2786  00072A  0E02               	movwf	((c:4013)),c	;volatile
  2787  00072C  6EAD               	line	146
  2788                           	
  2789                           l2837:
  2790  00072E                     ;MaquinaDeLavar.c: 146:             estado = estado + 1;
  2791                           	movlw	low(01h)
  2792  00072E  0E01               	movlb	0	; () banked
  2793  000730  0100               	addwf	((_estado))&0ffh,w
  2794  000732  25F4               	movwf	((_estado))&0ffh
  2795  000734  6FF4               	movlw	high(01h)
  2796  000736  0E00               	addwfc	((_estado+1))&0ffh,w
  2797  000738  21F5               	movwf	1+((_estado))&0ffh
  2798  00073A  6FF5               	line	147
  2799                           	
  2800                           l2839:; BSR set to: 0
  2801  00073C                     
  2802                           ;MaquinaDeLavar.c: 147:             escreve();
  2803                           	call	_escreve	;wreg free
  2804  00073C  EC5F  F015         	line	148
  2805                           ;MaquinaDeLavar.c: 148:         }
  2806                           	goto	l188
  2807  000740  EF09  F005         	line	149
  2808                           ;MaquinaDeLavar.c: 149:         else if (estado == 3){
  2809                           	
  2810                           l173:
  2811  000744                     	
  2812                           l2841:
  2813  000744                     		movlw	3
  2814  000744  0E03               	movlb	0	; () banked
  2815  000746  0100               	xorwf	((_estado))&0ffh,w
  2816  000748  19F4               iorwf	((_estado+1))&0ffh,w
  2817  00074A  11F5               	btfss	status,2
  2818  00074C  A4D8               	goto	u2501
  2819  00074E  EFAB  F003         	goto	u2500
  2820  000752  EFAD  F003         
  2821                           u2501:
  2822  000756                     	goto	l2857
  2823  000756  EFD5  F003         u2500:
  2824  00075A                     	line	150
  2825                           	
  2826                           l2843:; BSR set to: 0
  2827  00075A                     
  2828                           ;MaquinaDeLavar.c: 150:             PORTBbits.RB5 =0;
  2829                           	bcf	((c:3969)),c,5	;volatile
  2830  00075A  9A81               	line	151
  2831                           ;MaquinaDeLavar.c: 151:             PORTBbits.RB7 =0;
  2832                           	bcf	((c:3969)),c,7	;volatile
  2833  00075C  9E81               	line	152
  2834                           	
  2835                           l2845:; BSR set to: 0
  2836  00075E                     
  2837                           ;MaquinaDeLavar.c: 152:             _delay((unsigned long)((500)*(4000000/4000.0)));
  2838                           	opt asmopt_push
  2839                           opt asmopt_off
  2840                           movlw  3
  2841  00075E  0E03               	movlb	0	; () banked
  2842  000760  0100               movwf	(??_estadosMaquina+0+0+1)&0ffh,f
  2843  000762  6FEA               movlw	138
  2844  000764  0E8A               movwf	(??_estadosMaquina+0+0)&0ffh,f
  2845  000766  6FE9               	movlw	85
  2846  000768  0E55               u2987:
  2847  00076A                     decfsz	wreg,f
  2848  00076A  2EE8               	bra	u2987
  2849  00076C  D7FE               	decfsz	(??_estadosMaquina+0+0)&0ffh,f
  2850  00076E  2FE9               	bra	u2987
  2851  000770  D7FC               	decfsz	(??_estadosMaquina+0+0+1)&0ffh,f
  2852  000772  2FEA               	bra	u2987
  2853  000774  D7FA               	nop2
  2854  000776  D000               opt asmopt_pop
  2855                           
  2856                           	line	153
  2857                           	
  2858                           l2847:
  2859  000778                     ;MaquinaDeLavar.c: 153:             PORTBbits.RB6 =1;
  2860                           	bsf	((c:3969)),c,6	;volatile
  2861  000778  8C81               	line	154
  2862                           	
  2863                           l2849:
  2864  00077A                     ;MaquinaDeLavar.c: 154:             sprintf(estadoMes, "Drenar");
  2865                           		movlw	low(_estadoMes)
  2866  00077A  0E20               	movlb	0	; () banked
  2867  00077C  0100               	movwf	((sprintf@s))&0ffh
  2868  00077E  6FD7               	movlw	high(_estadoMes)
  2869  000780  0E01               	movwf	((sprintf@s+1))&0ffh
  2870  000782  6FD8               
  2871                           		movlw	low(STR_5)
  2872  000784  0E2C               	movwf	((sprintf@fmt))&0ffh
  2873  000786  6FD9               	movlw	high(STR_5)
  2874  000788  0E06               	movwf	((sprintf@fmt+1))&0ffh
  2875  00078A  6FDA               
  2876                           	call	_sprintf	;wreg free
  2877  00078C  EC9C  F013         	line	155
  2878                           	
  2879                           l2851:
  2880  000790                     ;MaquinaDeLavar.c: 155:             TXREG = 3;
  2881                           	movlw	low(03h)
  2882  000790  0E03               	movwf	((c:4013)),c	;volatile
  2883  000792  6EAD               	line	156
  2884                           	
  2885                           l2853:
  2886  000794                     ;MaquinaDeLavar.c: 156:             estado = estado + 1;
  2887                           	movlw	low(01h)
  2888  000794  0E01               	movlb	0	; () banked
  2889  000796  0100               	addwf	((_estado))&0ffh,w
  2890  000798  25F4               	movwf	((_estado))&0ffh
  2891  00079A  6FF4               	movlw	high(01h)
  2892  00079C  0E00               	addwfc	((_estado+1))&0ffh,w
  2893  00079E  21F5               	movwf	1+((_estado))&0ffh
  2894  0007A0  6FF5               	line	157
  2895                           	
  2896                           l2855:; BSR set to: 0
  2897  0007A2                     
  2898                           ;MaquinaDeLavar.c: 157:             escreve();
  2899                           	call	_escreve	;wreg free
  2900  0007A2  EC5F  F015         	line	158
  2901                           ;MaquinaDeLavar.c: 158:         }
  2902                           	goto	l188
  2903  0007A6  EF09  F005         	line	159
  2904                           ;MaquinaDeLavar.c: 159:         else if( (estado == 4) && (PORTCbits.RC0 == 0 )){
  2905                           	
  2906                           l175:
  2907  0007AA                     	
  2908                           l2857:
  2909  0007AA                     		movlw	4
  2910  0007AA  0E04               	movlb	0	; () banked
  2911  0007AC  0100               	xorwf	((_estado))&0ffh,w
  2912  0007AE  19F4               iorwf	((_estado+1))&0ffh,w
  2913  0007B0  11F5               	btfss	status,2
  2914  0007B2  A4D8               	goto	u2511
  2915  0007B4  EFDE  F003         	goto	u2510
  2916  0007B8  EFE0  F003         
  2917                           u2511:
  2918  0007BC                     	goto	l2871
  2919  0007BC  EF02  F004         u2510:
  2920  0007C0                     	
  2921                           l2859:; BSR set to: 0
  2922  0007C0                     
  2923                           	btfsc	((c:3970)),c,0	;volatile
  2924  0007C0  B082               	goto	u2521
  2925  0007C2  EFE5  F003         	goto	u2520
  2926  0007C6  EFE7  F003         u2521:
  2927  0007CA                     	goto	l2871
  2928  0007CA  EF02  F004         u2520:
  2929  0007CE                     	line	160
  2930                           	
  2931                           l2861:; BSR set to: 0
  2932  0007CE                     
  2933                           ;MaquinaDeLavar.c: 160:              PORTBbits.RB5 =1;
  2934                           	bsf	((c:3969)),c,5	;volatile
  2935  0007CE  8A81               	line	161
  2936                           ;MaquinaDeLavar.c: 161:              PORTBbits.RB7 =1;
  2937                           	bsf	((c:3969)),c,7	;volatile
  2938  0007D0  8E81               	line	162
  2939                           	
  2940                           l2863:; BSR set to: 0
  2941  0007D2                     
  2942                           ;MaquinaDeLavar.c: 162:              sprintf(estadoMes, "Centrif.");
  2943                           		movlw	low(_estadoMes)
  2944  0007D2  0E20               	movwf	((sprintf@s))&0ffh
  2945  0007D4  6FD7               	movlw	high(_estadoMes)
  2946  0007D6  0E01               	movwf	((sprintf@s+1))&0ffh
  2947  0007D8  6FD8               
  2948                           		movlw	low(STR_6)
  2949  0007DA  0E0B               	movwf	((sprintf@fmt))&0ffh
  2950  0007DC  6FD9               	movlw	high(STR_6)
  2951  0007DE  0E06               	movwf	((sprintf@fmt+1))&0ffh
  2952  0007E0  6FDA               
  2953                           	call	_sprintf	;wreg free
  2954  0007E2  EC9C  F013         	line	163
  2955                           ;MaquinaDeLavar.c: 163:              tempo1();
  2956                           	call	_tempo1	;wreg free
  2957  0007E6  EC0C  F012         	line	164
  2958                           	
  2959                           l2865:
  2960  0007EA                     ;MaquinaDeLavar.c: 164:              TXREG = 4;
  2961                           	movlw	low(04h)
  2962  0007EA  0E04               	movwf	((c:4013)),c	;volatile
  2963  0007EC  6EAD               	line	165
  2964                           	
  2965                           l2867:
  2966  0007EE                     ;MaquinaDeLavar.c: 165:              estado = estado + 1;
  2967                           	movlw	low(01h)
  2968  0007EE  0E01               	movlb	0	; () banked
  2969  0007F0  0100               	addwf	((_estado))&0ffh,w
  2970  0007F2  25F4               	movwf	((_estado))&0ffh
  2971  0007F4  6FF4               	movlw	high(01h)
  2972  0007F6  0E00               	addwfc	((_estado+1))&0ffh,w
  2973  0007F8  21F5               	movwf	1+((_estado))&0ffh
  2974  0007FA  6FF5               	line	166
  2975                           	
  2976                           l2869:; BSR set to: 0
  2977  0007FC                     
  2978                           ;MaquinaDeLavar.c: 166:              escreve();
  2979                           	call	_escreve	;wreg free
  2980  0007FC  EC5F  F015         	line	167
  2981                           ;MaquinaDeLavar.c: 167:         }
  2982                           	goto	l188
  2983  000800  EF09  F005         	line	168
  2984                           ;MaquinaDeLavar.c: 168:         else if(estado == 5){
  2985                           	
  2986                           l177:
  2987  000804                     	
  2988                           l2871:
  2989  000804                     		movlw	5
  2990  000804  0E05               	movlb	0	; () banked
  2991  000806  0100               	xorwf	((_estado))&0ffh,w
  2992  000808  19F4               iorwf	((_estado+1))&0ffh,w
  2993  00080A  11F5               	btfss	status,2
  2994  00080C  A4D8               	goto	u2531
  2995  00080E  EF0B  F004         	goto	u2530
  2996  000812  EF0D  F004         
  2997                           u2531:
  2998  000816                     	goto	l2889
  2999  000816  EF37  F004         u2530:
  3000  00081A                     	line	169
  3001                           	
  3002                           l2873:; BSR set to: 0
  3003  00081A                     
  3004                           ;MaquinaDeLavar.c: 169:             PORTBbits.RB7 =0;
  3005                           	bcf	((c:3969)),c,7	;volatile
  3006  00081A  9E81               	line	170
  3007                           ;MaquinaDeLavar.c: 170:             PORTBbits.RB6 =0;
  3008                           	bcf	((c:3969)),c,6	;volatile
  3009  00081C  9C81               	line	171
  3010                           ;MaquinaDeLavar.c: 171:              PORTBbits.RB5 =0;
  3011                           	bcf	((c:3969)),c,5	;volatile
  3012  00081E  9A81               	line	172
  3013                           	
  3014                           l2875:; BSR set to: 0
  3015  000820                     
  3016                           ;MaquinaDeLavar.c: 172:             _delay((unsigned long)((500)*(4000000/4000.0)));
  3017                           	opt asmopt_push
  3018                           opt asmopt_off
  3019                           movlw  3
  3020  000820  0E03               	movlb	0	; () banked
  3021  000822  0100               movwf	(??_estadosMaquina+0+0+1)&0ffh,f
  3022  000824  6FEA               movlw	138
  3023  000826  0E8A               movwf	(??_estadosMaquina+0+0)&0ffh,f
  3024  000828  6FE9               	movlw	85
  3025  00082A  0E55               u2997:
  3026  00082C                     decfsz	wreg,f
  3027  00082C  2EE8               	bra	u2997
  3028  00082E  D7FE               	decfsz	(??_estadosMaquina+0+0)&0ffh,f
  3029  000830  2FE9               	bra	u2997
  3030  000832  D7FC               	decfsz	(??_estadosMaquina+0+0+1)&0ffh,f
  3031  000834  2FEA               	bra	u2997
  3032  000836  D7FA               	nop2
  3033  000838  D000               opt asmopt_pop
  3034                           
  3035                           	line	173
  3036                           	
  3037                           l2877:
  3038  00083A                     ;MaquinaDeLavar.c: 173:              PORTBbits.RB7 =1;
  3039                           	bsf	((c:3969)),c,7	;volatile
  3040  00083A  8E81               	line	174
  3041                           	
  3042                           l2879:
  3043  00083C                     ;MaquinaDeLavar.c: 174:              PORTBbits.RB6 =1;
  3044                           	bsf	((c:3969)),c,6	;volatile
  3045  00083C  8C81               	line	175
  3046                           	
  3047                           l2881:
  3048  00083E                     ;MaquinaDeLavar.c: 175:             sprintf(estadoMes, "Enxaguar");
  3049                           		movlw	low(_estadoMes)
  3050  00083E  0E20               	movlb	0	; () banked
  3051  000840  0100               	movwf	((sprintf@s))&0ffh
  3052  000842  6FD7               	movlw	high(_estadoMes)
  3053  000844  0E01               	movwf	((sprintf@s+1))&0ffh
  3054  000846  6FD8               
  3055                           		movlw	low(STR_7)
  3056  000848  0E14               	movwf	((sprintf@fmt))&0ffh
  3057  00084A  6FD9               	movlw	high(STR_7)
  3058  00084C  0E06               	movwf	((sprintf@fmt+1))&0ffh
  3059  00084E  6FDA               
  3060                           	call	_sprintf	;wreg free
  3061  000850  EC9C  F013         	line	176
  3062                           	
  3063                           l2883:
  3064  000854                     ;MaquinaDeLavar.c: 176:             TXREG = 5;
  3065                           	movlw	low(05h)
  3066  000854  0E05               	movwf	((c:4013)),c	;volatile
  3067  000856  6EAD               	line	177
  3068                           	
  3069                           l2885:
  3070  000858                     ;MaquinaDeLavar.c: 177:             estado = estado + 1;
  3071                           	movlw	low(01h)
  3072  000858  0E01               	movlb	0	; () banked
  3073  00085A  0100               	addwf	((_estado))&0ffh,w
  3074  00085C  25F4               	movwf	((_estado))&0ffh
  3075  00085E  6FF4               	movlw	high(01h)
  3076  000860  0E00               	addwfc	((_estado+1))&0ffh,w
  3077  000862  21F5               	movwf	1+((_estado))&0ffh
  3078  000864  6FF5               	line	178
  3079                           	
  3080                           l2887:; BSR set to: 0
  3081  000866                     
  3082                           ;MaquinaDeLavar.c: 178:             escreve();
  3083                           	call	_escreve	;wreg free
  3084  000866  EC5F  F015         	line	179
  3085                           ;MaquinaDeLavar.c: 179:         }
  3086                           	goto	l188
  3087  00086A  EF09  F005         	line	180
  3088                           ;MaquinaDeLavar.c: 180:         else if((estado == 6) && (PORTCbits.RC3 == 0)){
  3089                           	
  3090                           l179:
  3091  00086E                     	
  3092                           l2889:
  3093  00086E                     		movlw	6
  3094  00086E  0E06               	movlb	0	; () banked
  3095  000870  0100               	xorwf	((_estado))&0ffh,w
  3096  000872  19F4               iorwf	((_estado+1))&0ffh,w
  3097  000874  11F5               	btfss	status,2
  3098  000876  A4D8               	goto	u2541
  3099  000878  EF40  F004         	goto	u2540
  3100  00087C  EF42  F004         
  3101                           u2541:
  3102  000880                     	goto	l2911
  3103  000880  EF74  F004         u2540:
  3104  000884                     	
  3105                           l2891:; BSR set to: 0
  3106  000884                     
  3107                           	btfsc	((c:3970)),c,3	;volatile
  3108  000884  B682               	goto	u2551
  3109  000886  EF47  F004         	goto	u2550
  3110  00088A  EF49  F004         u2551:
  3111  00088E                     	goto	l2911
  3112  00088E  EF74  F004         u2550:
  3113  000892                     	line	181
  3114                           	
  3115                           l2893:; BSR set to: 0
  3116  000892                     
  3117                           ;MaquinaDeLavar.c: 181:             PORTBbits.RB7 =0;
  3118                           	bcf	((c:3969)),c,7	;volatile
  3119  000892  9E81               	line	182
  3120                           ;MaquinaDeLavar.c: 182:             PORTBbits.RB6 =0;
  3121                           	bcf	((c:3969)),c,6	;volatile
  3122  000894  9C81               	line	183
  3123                           	
  3124                           l2895:; BSR set to: 0
  3125  000896                     
  3126                           ;MaquinaDeLavar.c: 183:             _delay((unsigned long)((500)*(4000000/4000.0)));
  3127                           	opt asmopt_push
  3128                           opt asmopt_off
  3129                           movlw  3
  3130  000896  0E03               	movlb	0	; () banked
  3131  000898  0100               movwf	(??_estadosMaquina+0+0+1)&0ffh,f
  3132  00089A  6FEA               movlw	138
  3133  00089C  0E8A               movwf	(??_estadosMaquina+0+0)&0ffh,f
  3134  00089E  6FE9               	movlw	85
  3135  0008A0  0E55               u3007:
  3136  0008A2                     decfsz	wreg,f
  3137  0008A2  2EE8               	bra	u3007
  3138  0008A4  D7FE               	decfsz	(??_estadosMaquina+0+0)&0ffh,f
  3139  0008A6  2FE9               	bra	u3007
  3140  0008A8  D7FC               	decfsz	(??_estadosMaquina+0+0+1)&0ffh,f
  3141  0008AA  2FEA               	bra	u3007
  3142  0008AC  D7FA               	nop2
  3143  0008AE  D000               opt asmopt_pop
  3144                           
  3145                           	line	184
  3146                           	
  3147                           l2897:
  3148  0008B0                     ;MaquinaDeLavar.c: 184:             PORTBbits.RB7 =1;
  3149                           	bsf	((c:3969)),c,7	;volatile
  3150  0008B0  8E81               	line	185
  3151                           	
  3152                           l2899:
  3153  0008B2                     ;MaquinaDeLavar.c: 185:             PORTBbits.RB5 =1;
  3154                           	bsf	((c:3969)),c,5	;volatile
  3155  0008B2  8A81               	line	186
  3156                           	
  3157                           l2901:
  3158  0008B4                     ;MaquinaDeLavar.c: 186:             sprintf(estadoMes, "Agitar");
  3159                           		movlw	low(_estadoMes)
  3160  0008B4  0E20               	movlb	0	; () banked
  3161  0008B6  0100               	movwf	((sprintf@s))&0ffh
  3162  0008B8  6FD7               	movlw	high(_estadoMes)
  3163  0008BA  0E01               	movwf	((sprintf@s+1))&0ffh
  3164  0008BC  6FD8               
  3165                           		movlw	low(STR_8)
  3166  0008BE  0E33               	movwf	((sprintf@fmt))&0ffh
  3167  0008C0  6FD9               	movlw	high(STR_8)
  3168  0008C2  0E06               	movwf	((sprintf@fmt+1))&0ffh
  3169  0008C4  6FDA               
  3170                           	call	_sprintf	;wreg free
  3171  0008C6  EC9C  F013         	line	187
  3172                           	
  3173                           l2903:
  3174  0008CA                     ;MaquinaDeLavar.c: 187:             tempo1();
  3175                           	call	_tempo1	;wreg free
  3176  0008CA  EC0C  F012         	line	188
  3177                           	
  3178                           l2905:
  3179  0008CE                     ;MaquinaDeLavar.c: 188:             TXREG = 6;
  3180                           	movlw	low(06h)
  3181  0008CE  0E06               	movwf	((c:4013)),c	;volatile
  3182  0008D0  6EAD               	line	189
  3183                           	
  3184                           l2907:
  3185  0008D2                     ;MaquinaDeLavar.c: 189:             estado = estado + 1;
  3186                           	movlw	low(01h)
  3187  0008D2  0E01               	movlb	0	; () banked
  3188  0008D4  0100               	addwf	((_estado))&0ffh,w
  3189  0008D6  25F4               	movwf	((_estado))&0ffh
  3190  0008D8  6FF4               	movlw	high(01h)
  3191  0008DA  0E00               	addwfc	((_estado+1))&0ffh,w
  3192  0008DC  21F5               	movwf	1+((_estado))&0ffh
  3193  0008DE  6FF5               	line	190
  3194                           	
  3195                           l2909:; BSR set to: 0
  3196  0008E0                     
  3197                           ;MaquinaDeLavar.c: 190:             escreve();
  3198                           	call	_escreve	;wreg free
  3199  0008E0  EC5F  F015         	line	191
  3200                           ;MaquinaDeLavar.c: 191:         }
  3201                           	goto	l188
  3202  0008E4  EF09  F005         	line	192
  3203                           ;MaquinaDeLavar.c: 192:         else if (estado == 7){
  3204                           	
  3205                           l181:
  3206  0008E8                     	
  3207                           l2911:
  3208  0008E8                     		movlw	7
  3209  0008E8  0E07               	movlb	0	; () banked
  3210  0008EA  0100               	xorwf	((_estado))&0ffh,w
  3211  0008EC  19F4               iorwf	((_estado+1))&0ffh,w
  3212  0008EE  11F5               	btfss	status,2
  3213  0008F0  A4D8               	goto	u2561
  3214  0008F2  EF7D  F004         	goto	u2560
  3215  0008F6  EF7F  F004         
  3216                           u2561:
  3217  0008FA                     	goto	l2927
  3218  0008FA  EFA7  F004         u2560:
  3219  0008FE                     	line	193
  3220                           	
  3221                           l2913:; BSR set to: 0
  3222  0008FE                     
  3223                           ;MaquinaDeLavar.c: 193:             PORTBbits.RB7 =0;
  3224                           	bcf	((c:3969)),c,7	;volatile
  3225  0008FE  9E81               	line	194
  3226                           ;MaquinaDeLavar.c: 194:             PORTBbits.RB5 =0;
  3227                           	bcf	((c:3969)),c,5	;volatile
  3228  000900  9A81               	line	195
  3229                           	
  3230                           l2915:; BSR set to: 0
  3231  000902                     
  3232                           ;MaquinaDeLavar.c: 195:             _delay((unsigned long)((500)*(4000000/4000.0)));
  3233                           	opt asmopt_push
  3234                           opt asmopt_off
  3235                           movlw  3
  3236  000902  0E03               	movlb	0	; () banked
  3237  000904  0100               movwf	(??_estadosMaquina+0+0+1)&0ffh,f
  3238  000906  6FEA               movlw	138
  3239  000908  0E8A               movwf	(??_estadosMaquina+0+0)&0ffh,f
  3240  00090A  6FE9               	movlw	85
  3241  00090C  0E55               u3017:
  3242  00090E                     decfsz	wreg,f
  3243  00090E  2EE8               	bra	u3017
  3244  000910  D7FE               	decfsz	(??_estadosMaquina+0+0)&0ffh,f
  3245  000912  2FE9               	bra	u3017
  3246  000914  D7FC               	decfsz	(??_estadosMaquina+0+0+1)&0ffh,f
  3247  000916  2FEA               	bra	u3017
  3248  000918  D7FA               	nop2
  3249  00091A  D000               opt asmopt_pop
  3250                           
  3251                           	line	196
  3252                           	
  3253                           l2917:
  3254  00091C                     ;MaquinaDeLavar.c: 196:             PORTBbits.RB6 =1;
  3255                           	bsf	((c:3969)),c,6	;volatile
  3256  00091C  8C81               	line	197
  3257                           	
  3258                           l2919:
  3259  00091E                     ;MaquinaDeLavar.c: 197:             sprintf(estadoMes, "Drenar");
  3260                           		movlw	low(_estadoMes)
  3261  00091E  0E20               	movlb	0	; () banked
  3262  000920  0100               	movwf	((sprintf@s))&0ffh
  3263  000922  6FD7               	movlw	high(_estadoMes)
  3264  000924  0E01               	movwf	((sprintf@s+1))&0ffh
  3265  000926  6FD8               
  3266                           		movlw	low(STR_9)
  3267  000928  0E2C               	movwf	((sprintf@fmt))&0ffh
  3268  00092A  6FD9               	movlw	high(STR_9)
  3269  00092C  0E06               	movwf	((sprintf@fmt+1))&0ffh
  3270  00092E  6FDA               
  3271                           	call	_sprintf	;wreg free
  3272  000930  EC9C  F013         	line	198
  3273                           	
  3274                           l2921:
  3275  000934                     ;MaquinaDeLavar.c: 198:             TXREG = 7;
  3276                           	movlw	low(07h)
  3277  000934  0E07               	movwf	((c:4013)),c	;volatile
  3278  000936  6EAD               	line	199
  3279                           	
  3280                           l2923:
  3281  000938                     ;MaquinaDeLavar.c: 199:             estado = estado + 1;
  3282                           	movlw	low(01h)
  3283  000938  0E01               	movlb	0	; () banked
  3284  00093A  0100               	addwf	((_estado))&0ffh,w
  3285  00093C  25F4               	movwf	((_estado))&0ffh
  3286  00093E  6FF4               	movlw	high(01h)
  3287  000940  0E00               	addwfc	((_estado+1))&0ffh,w
  3288  000942  21F5               	movwf	1+((_estado))&0ffh
  3289  000944  6FF5               	line	200
  3290                           	
  3291                           l2925:; BSR set to: 0
  3292  000946                     
  3293                           ;MaquinaDeLavar.c: 200:             escreve();
  3294                           	call	_escreve	;wreg free
  3295  000946  EC5F  F015         	line	201
  3296                           ;MaquinaDeLavar.c: 201:         }
  3297                           	goto	l188
  3298  00094A  EF09  F005         	line	202
  3299                           ;MaquinaDeLavar.c: 202:         else if((estado == 8) && (PORTCbits.RC0 == 0 )){
  3300                           	
  3301                           l183:
  3302  00094E                     	
  3303                           l2927:
  3304  00094E                     		movlw	8
  3305  00094E  0E08               	movlb	0	; () banked
  3306  000950  0100               	xorwf	((_estado))&0ffh,w
  3307  000952  19F4               iorwf	((_estado+1))&0ffh,w
  3308  000954  11F5               	btfss	status,2
  3309  000956  A4D8               	goto	u2571
  3310  000958  EFB0  F004         	goto	u2570
  3311  00095C  EFB2  F004         
  3312                           u2571:
  3313  000960                     	goto	l2941
  3314  000960  EFD4  F004         u2570:
  3315  000964                     	
  3316                           l2929:; BSR set to: 0
  3317  000964                     
  3318                           	btfsc	((c:3970)),c,0	;volatile
  3319  000964  B082               	goto	u2581
  3320  000966  EFB7  F004         	goto	u2580
  3321  00096A  EFB9  F004         u2581:
  3322  00096E                     	goto	l2941
  3323  00096E  EFD4  F004         u2580:
  3324  000972                     	line	203
  3325                           	
  3326                           l2931:; BSR set to: 0
  3327  000972                     
  3328                           ;MaquinaDeLavar.c: 203:             PORTBbits.RB7 =1;
  3329                           	bsf	((c:3969)),c,7	;volatile
  3330  000972  8E81               	line	204
  3331                           ;MaquinaDeLavar.c: 204:             PORTBbits.RB5 =1;
  3332                           	bsf	((c:3969)),c,5	;volatile
  3333  000974  8A81               	line	205
  3334                           	
  3335                           l2933:; BSR set to: 0
  3336  000976                     
  3337                           ;MaquinaDeLavar.c: 205:             sprintf(estadoMes, "Centrif.");
  3338                           		movlw	low(_estadoMes)
  3339  000976  0E20               	movwf	((sprintf@s))&0ffh
  3340  000978  6FD7               	movlw	high(_estadoMes)
  3341  00097A  0E01               	movwf	((sprintf@s+1))&0ffh
  3342  00097C  6FD8               
  3343                           		movlw	low(STR_10)
  3344  00097E  0E0B               	movwf	((sprintf@fmt))&0ffh
  3345  000980  6FD9               	movlw	high(STR_10)
  3346  000982  0E06               	movwf	((sprintf@fmt+1))&0ffh
  3347  000984  6FDA               
  3348                           	call	_sprintf	;wreg free
  3349  000986  EC9C  F013         	line	206
  3350                           ;MaquinaDeLavar.c: 206:             tempo1();
  3351                           	call	_tempo1	;wreg free
  3352  00098A  EC0C  F012         	line	207
  3353                           	
  3354                           l2935:
  3355  00098E                     ;MaquinaDeLavar.c: 207:             TXREG = 8;
  3356                           	movlw	low(08h)
  3357  00098E  0E08               	movwf	((c:4013)),c	;volatile
  3358  000990  6EAD               	line	208
  3359                           	
  3360                           l2937:
  3361  000992                     ;MaquinaDeLavar.c: 208:             estado = estado + 1;
  3362                           	movlw	low(01h)
  3363  000992  0E01               	movlb	0	; () banked
  3364  000994  0100               	addwf	((_estado))&0ffh,w
  3365  000996  25F4               	movwf	((_estado))&0ffh
  3366  000998  6FF4               	movlw	high(01h)
  3367  00099A  0E00               	addwfc	((_estado+1))&0ffh,w
  3368  00099C  21F5               	movwf	1+((_estado))&0ffh
  3369  00099E  6FF5               	line	209
  3370                           	
  3371                           l2939:; BSR set to: 0
  3372  0009A0                     
  3373                           ;MaquinaDeLavar.c: 209:             escreve();
  3374                           	call	_escreve	;wreg free
  3375  0009A0  EC5F  F015         	line	210
  3376                           ;MaquinaDeLavar.c: 210:         }else if (estado == 9){
  3377                           	goto	l188
  3378  0009A4  EF09  F005         	
  3379                           l185:
  3380  0009A8                     	
  3381                           l2941:
  3382  0009A8                     		movlw	9
  3383  0009A8  0E09               	movlb	0	; () banked
  3384  0009AA  0100               	xorwf	((_estado))&0ffh,w
  3385  0009AC  19F4               iorwf	((_estado+1))&0ffh,w
  3386  0009AE  11F5               	btfss	status,2
  3387  0009B0  A4D8               	goto	u2591
  3388  0009B2  EFDD  F004         	goto	u2590
  3389  0009B6  EFDF  F004         
  3390                           u2591:
  3391  0009BA                     	goto	l188
  3392  0009BA  EF09  F005         u2590:
  3393  0009BE                     	line	211
  3394                           	
  3395                           l2943:; BSR set to: 0
  3396  0009BE                     
  3397                           ;MaquinaDeLavar.c: 211:             PORTBbits.RB7 =0;
  3398                           	bcf	((c:3969)),c,7	;volatile
  3399  0009BE  9E81               	line	212
  3400                           ;MaquinaDeLavar.c: 212:             PORTBbits.RB5 =0;
  3401                           	bcf	((c:3969)),c,5	;volatile
  3402  0009C0  9A81               	line	213
  3403                           ;MaquinaDeLavar.c: 213:             PORTBbits.RB6 =0;
  3404                           	bcf	((c:3969)),c,6	;volatile
  3405  0009C2  9C81               	line	214
  3406                           ;MaquinaDeLavar.c: 214:             PORTBbits.RB0 = 0;
  3407                           	bcf	((c:3969)),c,0	;volatile
  3408  0009C4  9081               	line	215
  3409                           	
  3410                           l2945:; BSR set to: 0
  3411  0009C6                     
  3412                           ;MaquinaDeLavar.c: 215:             estado = 0;
  3413                           	movlw	high(0)
  3414  0009C6  0E00               	movwf	((_estado+1))&0ffh
  3415  0009C8  6FF5               	movlw	low(0)
  3416  0009CA  0E00               	movwf	((_estado))&0ffh
  3417  0009CC  6FF4               	line	216
  3418                           ;MaquinaDeLavar.c: 216:             TXREG = 0;
  3419                           	movlw	low(0)
  3420  0009CE  0E00               	movwf	((c:4013)),c	;volatile
  3421  0009D0  6EAD               	line	217
  3422                           	
  3423                           l2947:; BSR set to: 0
  3424  0009D2                     
  3425                           ;MaquinaDeLavar.c: 217:             sprintf(estadoMes, "Desligado");
  3426                           		movlw	low(_estadoMes)
  3427  0009D2  0E20               	movwf	((sprintf@s))&0ffh
  3428  0009D4  6FD7               	movlw	high(_estadoMes)
  3429  0009D6  0E01               	movwf	((sprintf@s+1))&0ffh
  3430  0009D8  6FD8               
  3431                           		movlw	low(STR_11)
  3432  0009DA  0E01               	movwf	((sprintf@fmt))&0ffh
  3433  0009DC  6FD9               	movlw	high(STR_11)
  3434  0009DE  0E06               	movwf	((sprintf@fmt+1))&0ffh
  3435  0009E0  6FDA               
  3436                           	call	_sprintf	;wreg free
  3437  0009E2  EC9C  F013         	line	218
  3438                           	
  3439                           l2949:
  3440  0009E6                     ;MaquinaDeLavar.c: 218:             escreve();
  3441                           	call	_escreve	;wreg free
  3442  0009E6  EC5F  F015         	goto	l188
  3443  0009EA  EF09  F005         	line	219
  3444                           ;MaquinaDeLavar.c: 219:         }
  3445                           	
  3446                           l187:
  3447  0009EE                     	goto	l188
  3448  0009EE  EF09  F005         	
  3449                           l186:
  3450  0009F2                     	goto	l188
  3451  0009F2  EF09  F005         	
  3452                           l184:
  3453  0009F6                     	goto	l188
  3454  0009F6  EF09  F005         	
  3455                           l182:
  3456  0009FA                     	goto	l188
  3457  0009FA  EF09  F005         	
  3458                           l180:
  3459  0009FE                     	goto	l188
  3460  0009FE  EF09  F005         	
  3461                           l178:
  3462  000A02                     	goto	l188
  3463  000A02  EF09  F005         	
  3464                           l176:
  3465  000A06                     	goto	l188
  3466  000A06  EF09  F005         	
  3467                           l174:
  3468  000A0A                     	goto	l188
  3469  000A0A  EF09  F005         	
  3470                           l172:
  3471  000A0E                     	goto	l188
  3472  000A0E  EF09  F005         	
  3473                           l170:
  3474  000A12                     	line	220
  3475                           	
  3476                           l188:
  3477  000A12                     	return	;funcret
  3478  000A12  0012               	opt stack 0
  3479                           GLOBAL	__end_of_estadosMaquina
  3480                           	__end_of_estadosMaquina:
  3481  000A14                     	signat	_estadosMaquina,89
  3482                           	global	_tempo1
  3483                           
  3484 ;; *************** function _tempo1 *****************
  3485 ;; Defined at:
  3486 ;;		line 107 in file "MaquinaDeLavar.c"
  3487 ;; Parameters:    Size  Location     Type
  3488 ;;		None
  3489 ;; Auto vars:     Size  Location     Type
  3490 ;;		None
  3491 ;; Return value:  Size  Location     Type
  3492 ;;                  1    wreg      void 
  3493 ;; Registers used:
  3494 ;;		wreg, fsr1l, fsr1h, fsr2l, fsr2h, status,2, status,0, tblptrl, tblptrh, tblptru, cstack
  3495 ;; Tracked objects:
  3496 ;;		On entry : 0/0
  3497 ;;		On exit  : 0/0
  3498 ;;		Unchanged: 0/0
  3499 ;; Data sizes:     COMRAM   BANK0   BANK1   BANK2   BANK3   BANK4   BANK5
  3500 ;;      Params:         0       0       0       0       0       0       0
  3501 ;;      Locals:         0       0       0       0       0       0       0
  3502 ;;      Temps:          0       2       0       0       0       0       0
  3503 ;;      Totals:         0       2       0       0       0       0       0
  3504 ;;Total ram usage:        2 bytes
  3505 ;; Hardware stack levels used:    1
  3506 ;; Hardware stack levels required when called:   19
  3507 ;; This function calls:
  3508 ;;		_escreve2
  3509 ;;		_sprintf
  3510 ;; This function is called by:
  3511 ;;		_estadosMaquina
  3512 ;; This function uses a non-reentrant model
  3513 ;;
  3514                           psect	text3,class=CODE,space=0,reloc=2,group=0
  3515                           	line	107
  3516                           global __ptext3
  3517                           __ptext3:
  3518  002418                     psect	text3
  3519                           	file	"MaquinaDeLavar.c"
  3520                           	line	107
  3521                           	global	__size_of_tempo1
  3522                           	__size_of_tempo1	equ	__end_of_tempo1-_tempo1
  3523  0000                     	
  3524                           _tempo1:
  3525  002418                     ;incstack = 0
  3526                           	opt	stack 10
  3527                           	line	109
  3528                           	
  3529                           l2693:
  3530  002418                     ;MaquinaDeLavar.c: 109:     for(tempo=5;tempo>-1;tempo--)
  3531                           	movlw	high(05h)
  3532  002418  0E00               	movlb	0	; () banked
  3533  00241A  0100               	movwf	((_tempo+1))&0ffh
  3534  00241C  6FF7               	movlw	low(05h)
  3535  00241E  0E05               	movwf	((_tempo))&0ffh
  3536  002420  6FF6               	
  3537                           l2695:; BSR set to: 0
  3538  002422                     
  3539                           	btfsc	((_tempo+1))&0ffh,7
  3540  002422  BFF7               	goto	u2400
  3541  002424  EF18  F012         	goto	u2401
  3542  002428  EF16  F012         
  3543                           u2401:
  3544  00242C                     	goto	l2699
  3545  00242C  EF1C  F012         u2400:
  3546  002430                     	goto	l166
  3547  002430  EF52  F012         	
  3548                           l2697:; BSR set to: 0
  3549  002434                     
  3550                           	goto	l166
  3551  002434  EF52  F012         	
  3552                           l163:; BSR set to: 0
  3553  002438                     
  3554                           	line	110
  3555                           	
  3556                           l2699:; BSR set to: 0
  3557  002438                     
  3558                           ;MaquinaDeLavar.c: 110:     { if(estado!=0){
  3559                           	movf	((_estado))&0ffh,w
  3560  002438  51F4               iorwf	((_estado+1))&0ffh,w
  3561  00243A  11F5               	btfsc	status,2
  3562  00243C  B4D8               	goto	u2411
  3563  00243E  EF23  F012         	goto	u2410
  3564  002442  EF25  F012         
  3565                           u2411:
  3566  002446                     	goto	l2707
  3567  002446  EF45  F012         u2410:
  3568  00244A                     	line	111
  3569                           	
  3570                           l2701:; BSR set to: 0
  3571  00244A                     
  3572                           ;MaquinaDeLavar.c: 111:             _delay((unsigned long)((1000)*(4000000/4000.0)));
  3573                           	opt asmopt_push
  3574                           opt asmopt_off
  3575                           movlw  6
  3576  00244A  0E06               	movlb	0	; () banked
  3577  00244C  0100               movwf	(??_tempo1+0+0+1)&0ffh,f
  3578  00244E  6FE8               movlw	19
  3579  002450  0E13               movwf	(??_tempo1+0+0)&0ffh,f
  3580  002452  6FE7               	movlw	173
  3581  002454  0EAD               u3027:
  3582  002456                     decfsz	wreg,f
  3583  002456  2EE8               	bra	u3027
  3584  002458  D7FE               	decfsz	(??_tempo1+0+0)&0ffh,f
  3585  00245A  2FE7               	bra	u3027
  3586  00245C  D7FC               	decfsz	(??_tempo1+0+0+1)&0ffh,f
  3587  00245E  2FE8               	bra	u3027
  3588  002460  D7FA               	nop2
  3589  002462  D000               opt asmopt_pop
  3590                           
  3591                           	line	112
  3592                           	
  3593                           l2703:
  3594  002464                     ;MaquinaDeLavar.c: 112:             sprintf(tempoDis, "%i", tempo);
  3595                           		movlw	low(_tempoDis)
  3596  002464  0EF8               	movlb	0	; () banked
  3597  002466  0100               	movwf	((sprintf@s))&0ffh
  3598  002468  6FD7               	movlw	high(_tempoDis)
  3599  00246A  0E00               	movwf	((sprintf@s+1))&0ffh
  3600  00246C  6FD8               
  3601                           		movlw	low(STR_1)
  3602  00246E  0E41               	movwf	((sprintf@fmt))&0ffh
  3603  002470  6FD9               	movlw	high(STR_1)
  3604  002472  0E06               	movwf	((sprintf@fmt+1))&0ffh
  3605  002474  6FDA               
  3606                           	movff	(_tempo),0+(?_sprintf+04h)
  3607  002476  C0F6  F0DB         	movff	(_tempo+1),1+(?_sprintf+04h)
  3608  00247A  C0F7  F0DC         	call	_sprintf	;wreg free
  3609  00247E  EC9C  F013         	line	113
  3610                           	
  3611                           l2705:
  3612  002482                     ;MaquinaDeLavar.c: 113:             escreve2();}
  3613                           	call	_escreve2	;wreg free
  3614  002482  EC9A  F014         	goto	l2707
  3615  002486  EF45  F012         	
  3616                           l165:
  3617  00248A                     	line	114
  3618                           	
  3619                           l2707:
  3620  00248A                     ;MaquinaDeLavar.c: 114:         }
  3621                           	movlb	0	; () banked
  3622  00248A  0100               	decf	((_tempo))&0ffh
  3623  00248C  07F6               	btfss	status,0
  3624  00248E  A0D8               	decf	((_tempo+1))&0ffh
  3625  002490  07F7               	
  3626                           l2709:; BSR set to: 0
  3627  002492                     
  3628                           	btfsc	((_tempo+1))&0ffh,7
  3629  002492  BFF7               	goto	u2420
  3630  002494  EF50  F012         	goto	u2421
  3631  002498  EF4E  F012         
  3632                           u2421:
  3633  00249C                     	goto	l2699
  3634  00249C  EF1C  F012         u2420:
  3635  0024A0                     	goto	l166
  3636  0024A0  EF52  F012         	
  3637                           l164:; BSR set to: 0
  3638  0024A4                     
  3639                           	line	115
  3640                           	
  3641                           l166:; BSR set to: 0
  3642  0024A4                     
  3643                           	return	;funcret
  3644  0024A4  0012               	opt stack 0
  3645                           GLOBAL	__end_of_tempo1
  3646                           	__end_of_tempo1:
  3647  0024A6                     	signat	_tempo1,89
  3648                           	global	_sprintf
  3649                           
  3650 ;; *************** function _sprintf *****************
  3651 ;; Defined at:
  3652 ;;		line 9 in file "E:\ProgramasWindowns\Microchip\xc8\v2.00\pic\sources\c99\common\nf_sprintf.c"
  3653 ;; Parameters:    Size  Location     Type
  3654 ;;  s               2   87[BANK0 ] PTR unsigned char 
  3655 ;;		 -> estadoMes(15), tempoDis(5), 
  3656 ;;  fmt             2   89[BANK0 ] PTR const unsigned char 
  3657 ;;		 -> STR_11(10), STR_10(9), STR_9(7), STR_8(7), 
  3658 ;;		 -> STR_7(9), STR_6(9), STR_5(7), STR_4(7), 
  3659 ;;		 -> STR_3(7), STR_2(10), STR_1(3), 
  3660 ;; Auto vars:     Size  Location     Type
  3661 ;;  f               6   97[BANK0 ] struct _IO_FILE
  3662 ;;  ap              2   95[BANK0 ] PTR void [1]
  3663 ;;		 -> ?_sprintf(2), 
  3664 ;;  ret             2   93[BANK0 ] int 
  3665 ;; Return value:  Size  Location     Type
  3666 ;;                  2   87[BANK0 ] int 
  3667 ;; Registers used:
  3668 ;;		wreg, fsr1l, fsr1h, fsr2l, fsr2h, status,2, status,0, tblptrl, tblptrh, tblptru, cstack
  3669 ;; Tracked objects:
  3670 ;;		On entry : 0/0
  3671 ;;		On exit  : 0/0
  3672 ;;		Unchanged: 0/0
  3673 ;; Data sizes:     COMRAM   BANK0   BANK1   BANK2   BANK3   BANK4   BANK5
  3674 ;;      Params:         0       6       0       0       0       0       0
  3675 ;;      Locals:         0      10       0       0       0       0       0
  3676 ;;      Temps:          0       0       0       0       0       0       0
  3677 ;;      Totals:         0      16       0       0       0       0       0
  3678 ;;Total ram usage:       16 bytes
  3679 ;; Hardware stack levels used:    1
  3680 ;; Hardware stack levels required when called:   18
  3681 ;; This function calls:
  3682 ;;		_vfprintf
  3683 ;; This function is called by:
  3684 ;;		_tempo1
  3685 ;;		_estadosMaquina
  3686 ;; This function uses a non-reentrant model
  3687 ;;
  3688                           psect	text4,class=CODE,space=0,reloc=2,group=2
  3689                           	file	"E:\ProgramasWindowns\Microchip\xc8\v2.00\pic\sources\c99\common\nf_sprintf.c"
  3690                           	line	9
  3691                           global __ptext4
  3692                           __ptext4:
  3693  002738                     psect	text4
  3694                           	file	"E:\ProgramasWindowns\Microchip\xc8\v2.00\pic\sources\c99\common\nf_sprintf.c"
  3695                           	line	9
  3696                           	global	__size_of_sprintf
  3697                           	__size_of_sprintf	equ	__end_of_sprintf-_sprintf
  3698  0000                     	
  3699                           _sprintf:; BSR set to: 0
  3700  002738                     
  3701                           ;incstack = 0
  3702                           	opt	stack 10
  3703                           	line	15
  3704                           	
  3705                           l2641:
  3706  002738                     		movlw	low(?_sprintf+04h)
  3707  002738  0EDB               	movlb	0	; () banked
  3708  00273A  0100               	movwf	((sprintf@ap))&0ffh
  3709  00273C  6FDF               	movlw	high(?_sprintf+04h)
  3710  00273E  0E00               	movwf	((sprintf@ap+1))&0ffh
  3711  002740  6FE0               
  3712                           	line	16
  3713                           		movff	(sprintf@s),(sprintf@f)
  3714  002742  C0D7  F0E1         	movff	(sprintf@s+1),(sprintf@f+1)
  3715  002746  C0D8  F0E2         
  3716                           	line	17
  3717                           	
  3718                           l2643:; BSR set to: 0
  3719  00274A                     
  3720                           	movlw	high(0)
  3721  00274A  0E00               	movwf	(1+(sprintf@f+02h))&0ffh
  3722  00274C  6FE4               	movlw	low(0)
  3723  00274E  0E00               	movwf	(0+(sprintf@f+02h))&0ffh
  3724  002750  6FE3               	line	18
  3725                           	
  3726                           l2645:; BSR set to: 0
  3727  002752                     
  3728                           	movlw	high(0)
  3729  002752  0E00               	movwf	(1+(sprintf@f+04h))&0ffh
  3730  002754  6FE6               	movlw	low(0)
  3731  002756  0E00               	movwf	(0+(sprintf@f+04h))&0ffh
  3732  002758  6FE5               	line	19
  3733                           	
  3734                           l2647:; BSR set to: 0
  3735  00275A                     
  3736                           		movlw	low(sprintf@f)
  3737  00275A  0EE1               	movwf	((vfprintf@fp))&0ffh
  3738  00275C  6FCF               	movlw	high(sprintf@f)
  3739  00275E  0E00               	movwf	((vfprintf@fp+1))&0ffh
  3740  002760  6FD0               
  3741                           		movff	(sprintf@fmt),(vfprintf@fmt)
  3742  002762  C0D9  F0D1         	movff	(sprintf@fmt+1),(vfprintf@fmt+1)
  3743  002766  C0DA  F0D2         
  3744                           		movlw	low(sprintf@ap)
  3745  00276A  0EDF               	movwf	((vfprintf@ap))&0ffh
  3746  00276C  6FD3               	movlw	high(sprintf@ap)
  3747  00276E  0E00               	movwf	((vfprintf@ap+1))&0ffh
  3748  002770  6FD4               
  3749                           	call	_vfprintf	;wreg free
  3750  002772  EC36  F013         	movff	0+?_vfprintf,(sprintf@ret)
  3751  002776  C0CF  F0DD         	movff	1+?_vfprintf,(sprintf@ret+1)
  3752  00277A  C0D0  F0DE         	line	20
  3753                           	
  3754                           l2649:
  3755  00277E                     	movlb	0	; () banked
  3756  00277E  0100               	movf	(0+(sprintf@f+02h))&0ffh,w
  3757  002780  51E3               	addwf	((sprintf@s))&0ffh,w
  3758  002782  25D7               	movwf	c:fsr2l
  3759  002784  6ED9               	movf	(1+(sprintf@f+02h))&0ffh,w
  3760  002786  51E4               	addwfc	((sprintf@s+1))&0ffh,w
  3761  002788  21D8               	movwf	1+c:fsr2l
  3762  00278A  6EDA               	movlw	low(0)
  3763  00278C  0E00               	movwf	indf2
  3764  00278E  6EDF               	goto	l974
  3765  002790  EFCA  F013         	line	22
  3766                           	
  3767                           l2651:; BSR set to: 0
  3768  002794                     
  3769                           	line	23
  3770                           ;	Return value of _sprintf is never used
  3771                           	
  3772                           l974:; BSR set to: 0
  3773  002794                     
  3774                           	return	;funcret
  3775  002794  0012               	opt stack 0
  3776                           GLOBAL	__end_of_sprintf
  3777                           	__end_of_sprintf:
  3778  002796                     	signat	_sprintf,4698
  3779                           	global	_vfprintf
  3780                           
  3781 ;; *************** function _vfprintf *****************
  3782 ;; Defined at:
  3783 ;;		line 1368 in file "E:\ProgramasWindowns\Microchip\xc8\v2.00\pic\sources\c99\common\doprnt.c"
  3784 ;; Parameters:    Size  Location     Type
  3785 ;;  fp              2   79[BANK0 ] PTR struct _IO_FILE
  3786 ;;		 -> sprintf@f(6), 
  3787 ;;  fmt             2   81[BANK0 ] PTR const unsigned char 
  3788 ;;		 -> STR_11(10), STR_10(9), STR_9(7), STR_8(7), 
  3789 ;;		 -> STR_7(9), STR_6(9), STR_5(7), STR_4(7), 
  3790 ;;		 -> STR_3(7), STR_2(10), STR_1(3), 
  3791 ;;  ap              2   83[BANK0 ] PTR PTR void 
  3792 ;;		 -> sprintf@ap(2), 
  3793 ;; Auto vars:     Size  Location     Type
  3794 ;;  cfmt            2   85[BANK0 ] PTR unsigned char 
  3795 ;;		 -> STR_11(10), STR_10(9), STR_9(7), STR_8(7), 
  3796 ;;		 -> STR_7(9), STR_6(9), STR_5(7), STR_4(7), 
  3797 ;;		 -> STR_3(7), STR_2(10), STR_1(3), 
  3798 ;; Return value:  Size  Location     Type
  3799 ;;                  2   79[BANK0 ] int 
  3800 ;; Registers used:
  3801 ;;		wreg, fsr1l, fsr1h, fsr2l, fsr2h, status,2, status,0, tblptrl, tblptrh, tblptru, cstack
  3802 ;; Tracked objects:
  3803 ;;		On entry : 0/0
  3804 ;;		On exit  : 0/0
  3805 ;;		Unchanged: 0/0
  3806 ;; Data sizes:     COMRAM   BANK0   BANK1   BANK2   BANK3   BANK4   BANK5
  3807 ;;      Params:         0       6       0       0       0       0       0
  3808 ;;      Locals:         0       2       0       0       0       0       0
  3809 ;;      Temps:          0       0       0       0       0       0       0
  3810 ;;      Totals:         0       8       0       0       0       0       0
  3811 ;;Total ram usage:        8 bytes
  3812 ;; Hardware stack levels used:    1
  3813 ;; Hardware stack levels required when called:   17
  3814 ;; This function calls:
  3815 ;;		_vfpfcnvrt
  3816 ;; This function is called by:
  3817 ;;		_sprintf
  3818 ;; This function uses a non-reentrant model
  3819 ;;
  3820                           psect	text5,class=CODE,space=0,reloc=2,group=0
  3821                           	file	"E:\ProgramasWindowns\Microchip\xc8\v2.00\pic\sources\c99\common\doprnt.c"
  3822                           	line	1368
  3823                           global __ptext5
  3824                           __ptext5:
  3825  00266C                     psect	text5
  3826                           	file	"E:\ProgramasWindowns\Microchip\xc8\v2.00\pic\sources\c99\common\doprnt.c"
  3827                           	line	1368
  3828                           	global	__size_of_vfprintf
  3829                           	__size_of_vfprintf	equ	__end_of_vfprintf-_vfprintf
  3830  0000                     	
  3831                           _vfprintf:; BSR set to: 0
  3832  00266C                     
  3833                           ;incstack = 0
  3834                           	opt	stack 10
  3835                           	line	1373
  3836                           	
  3837                           l2607:
  3838  00266C                     ;E:\ProgramasWindowns\Microchip\xc8\v2.00\pic\sources\c99\common\doprnt.c: 1368: int vfp
                                 rintf(FILE *fp, const char *fmt, va_list ap);E:\ProgramasWindowns\Microchip\xc8\v2.00\pi
                                 c\sources\c99\common\doprnt.c: 1369: {;E:\ProgramasWindowns\Microchip\xc8\v2.00\pic\sour
                                 ces\c99\common\doprnt.c: 1371:     char *cfmt;;E:\ProgramasWindowns\Microchip\xc8\v2.00\
                                 pic\sources\c99\common\doprnt.c: 1373:     cfmt = (char *)fmt;
  3839                           		movff	(vfprintf@fmt),(vfprintf@cfmt)
  3840  00266C  C0D1  F0D5         	movff	(vfprintf@fmt+1),(vfprintf@cfmt+1)
  3841  002670  C0D2  F0D6         
  3842                           	line	1374
  3843                           	
  3844                           l2609:
  3845  002674                     ;E:\ProgramasWindowns\Microchip\xc8\v2.00\pic\sources\c99\common\doprnt.c: 1374:     nou
                                 t = 0;
  3846                           	movlw	high(0)
  3847  002674  0E00               	movlb	0	; () banked
  3848  002676  0100               	movwf	((_nout+1))&0ffh
  3849  002678  6FED               	movlw	low(0)
  3850  00267A  0E00               	movwf	((_nout))&0ffh
  3851  00267C  6FEC               	line	1375
  3852                           ;E:\ProgramasWindowns\Microchip\xc8\v2.00\pic\sources\c99\common\doprnt.c: 1375:     whi
                                 le (*cfmt) {
  3853                           	goto	l2613
  3854  00267E  EF56  F013         	
  3855                           l264:; BSR set to: 0
  3856  002682                     
  3857                           	line	1376
  3858                           	
  3859                           l2611:; BSR set to: 0
  3860  002682                     
  3861                           ;E:\ProgramasWindowns\Microchip\xc8\v2.00\pic\sources\c99\common\doprnt.c: 1376:        
                                  nout += vfpfcnvrt(fp, &cfmt, ap);
  3862                           		movff	(vfprintf@fp),(vfpfcnvrt@fp)
  3863  002682  C0CF  F0BF         	movff	(vfprintf@fp+1),(vfpfcnvrt@fp+1)
  3864  002686  C0D0  F0C0         
  3865                           		movlw	low(vfprintf@cfmt)
  3866  00268A  0ED5               	movwf	((vfpfcnvrt@fmt))&0ffh
  3867  00268C  6FC1               	movlw	high(vfprintf@cfmt)
  3868  00268E  0E00               	movwf	((vfpfcnvrt@fmt+1))&0ffh
  3869  002690  6FC2               
  3870                           		movff	(vfprintf@ap),(vfpfcnvrt@ap)
  3871  002692  C0D3  F0C3         	movff	(vfprintf@ap+1),(vfpfcnvrt@ap+1)
  3872  002696  C0D4  F0C4         
  3873                           	call	_vfpfcnvrt	;wreg free
  3874  00269A  EC00  F00A         	movlb	0	; () banked
  3875  00269E  0100               	movf	(0+?_vfpfcnvrt)&0ffh,w
  3876  0026A0  51BF               	addwf	((_nout))&0ffh
  3877  0026A2  27EC               	movf	(1+?_vfpfcnvrt)&0ffh,w
  3878  0026A4  51C0               	addwfc	((_nout+1))&0ffh
  3879  0026A6  23ED               
  3880                           	goto	l2613
  3881  0026A8  EF56  F013         	line	1377
  3882                           ;E:\ProgramasWindowns\Microchip\xc8\v2.00\pic\sources\c99\common\doprnt.c: 1377:     }
  3883                           	
  3884                           l263:; BSR set to: 0
  3885  0026AC                     
  3886                           	line	1375
  3887                           	
  3888                           l2613:; BSR set to: 0
  3889  0026AC                     
  3890                           ;E:\ProgramasWindowns\Microchip\xc8\v2.00\pic\sources\c99\common\doprnt.c: 1375:     whi
                                 le (*cfmt) {
  3891                           	movff	(vfprintf@cfmt),tblptrl
  3892  0026AC  C0D5  FFF6         	movff	(vfprintf@cfmt+1),tblptrh
  3893  0026B0  C0D6  FFF7         	if	0	;tblptru may be non-zero
  3894  0026B4                     	clrf	tblptru
  3896  0026B4                     	if	0	;tblptru may be non-zero
  3897  0026B4                     	global __mediumconst
  3898                           movlw	low highword(__mediumconst)
  3901  0026B4                     	tblrd	*
  3902  0026B4  0008               	
  3903                           	movf	tablat,w
  3904  0026B6  50F5               	iorlw	0
  3905  0026B8  0900               	btfss	status,2
  3906  0026BA  A4D8               	goto	u2351
  3907  0026BC  EF62  F013         	goto	u2350
  3908  0026C0  EF64  F013         u2351:
  3909  0026C4                     	goto	l2611
  3910  0026C4  EF41  F013         u2350:
  3911  0026C8                     	
  3912                           l265:; BSR set to: 0
  3913  0026C8                     
  3914                           	line	1378
  3915                           ;E:\ProgramasWindowns\Microchip\xc8\v2.00\pic\sources\c99\common\doprnt.c: 1378:     ret
                                 urn nout;
  3916                           	movff	(_nout),(?_vfprintf)
  3917  0026C8  C0EC  F0CF         	movff	(_nout+1),(?_vfprintf+1)
  3918  0026CC  C0ED  F0D0         	line	1382
  3919                           	
  3920                           l266:; BSR set to: 0
  3921  0026D0                     
  3922                           	return	;funcret
  3923  0026D0  0012               	opt stack 0
  3924                           GLOBAL	__end_of_vfprintf
  3925                           	__end_of_vfprintf:
  3926  0026D2                     	signat	_vfprintf,12410
  3927                           	global	_vfpfcnvrt
  3928                           
  3929 ;; *************** function _vfpfcnvrt *****************
  3930 ;; Defined at:
  3931 ;;		line 670 in file "E:\ProgramasWindowns\Microchip\xc8\v2.00\pic\sources\c99\common\doprnt.c"
  3932 ;; Parameters:    Size  Location     Type
  3933 ;;  fp              2   63[BANK0 ] PTR struct _IO_FILE
  3934 ;;		 -> sprintf@f(6), 
  3935 ;;  fmt             2   65[BANK0 ] PTR PTR unsigned char 
  3936 ;;		 -> vfprintf@cfmt(2), 
  3937 ;;  ap              2   67[BANK0 ] PTR PTR void 
  3938 ;;		 -> sprintf@ap(2), 
  3939 ;; Auto vars:     Size  Location     Type
  3940 ;;  ll              8   71[BANK0 ] long long 
  3941 ;;  llu             8    0        unsigned long long 
  3942 ;;  f               4    0        unsigned long long 
  3943 ;;  vp              3    0        PTR void 
  3944 ;;  ct              3    0        unsigned char [3]
  3945 ;;  cp              3    0        PTR unsigned char 
  3946 ;;  i               2    0        int 
  3947 ;;  done            2    0        int 
  3948 ;;  c               1    0        unsigned char 
  3949 ;; Return value:  Size  Location     Type
  3950 ;;                  2   63[BANK0 ] int 
  3951 ;; Registers used:
  3952 ;;		wreg, fsr1l, fsr1h, fsr2l, fsr2h, status,2, status,0, tblptrl, tblptrh, tblptru, cstack
  3953 ;; Tracked objects:
  3954 ;;		On entry : 0/0
  3955 ;;		On exit  : 0/0
  3956 ;;		Unchanged: 0/0
  3957 ;; Data sizes:     COMRAM   BANK0   BANK1   BANK2   BANK3   BANK4   BANK5
  3958 ;;      Params:         0       6       0       0       0       0       0
  3959 ;;      Locals:         0       8       0       0       0       0       0
  3960 ;;      Temps:          0       2       0       0       0       0       0
  3961 ;;      Totals:         0      16       0       0       0       0       0
  3962 ;;Total ram usage:       16 bytes
  3963 ;; Hardware stack levels used:    1
  3964 ;; Hardware stack levels required when called:   16
  3965 ;; This function calls:
  3966 ;;		_dtoa
  3967 ;;		_fputc
  3968 ;; This function is called by:
  3969 ;;		_vfprintf
  3970 ;; This function uses a non-reentrant model
  3971 ;;
  3972                           psect	text6,class=CODE,space=0,reloc=2,group=0
  3973                           	line	670
  3974                           global __ptext6
  3975                           __ptext6:
  3976  001400                     psect	text6
  3977                           	file	"E:\ProgramasWindowns\Microchip\xc8\v2.00\pic\sources\c99\common\doprnt.c"
  3978                           	line	670
  3979                           	global	__size_of_vfpfcnvrt
  3980                           	__size_of_vfpfcnvrt	equ	__end_of_vfpfcnvrt-_vfpfcnvrt
  3981  0000                     	
  3982                           _vfpfcnvrt:; BSR set to: 0
  3983  001400                     
  3984                           ;incstack = 0
  3985                           	opt	stack 10
  3986                           	line	680
  3987                           	
  3988                           l2497:
  3989  001400                     ;E:\ProgramasWindowns\Microchip\xc8\v2.00\pic\sources\c99\common\doprnt.c: 670: static i
                                 nt vfpfcnvrt(FILE *fp, char *fmt[], va_list ap);E:\ProgramasWindowns\Microchip\xc8\v2.00
                                 \pic\sources\c99\common\doprnt.c: 671: {;E:\ProgramasWindowns\Microchip\xc8\v2.00\pic\so
                                 urces\c99\common\doprnt.c: 672:     char c, *cp, ct[3];;E:\ProgramasWindowns\Microchip\x
                                 c8\v2.00\pic\sources\c99\common\doprnt.c: 673:     int done, i;;E:\ProgramasWindowns\Mic
                                 rochip\xc8\v2.00\pic\sources\c99\common\doprnt.c: 674:     long long ll;
  3990                           	movff	(vfpfcnvrt@fmt),fsr2l
  3991  001400  C0C1  FFD9         	movff	(vfpfcnvrt@fmt+1),fsr2h
  3992  001404  C0C2  FFDA         	movff	postinc2,tblptrl
  3993  001408  CFDE FFF6          	movff	postdec2,tblptrh
  3994  00140C  CFDD FFF7          	if	0	;tblptru may be non-zero
  3995  001410                     	clrf	tblptru
  3997  001410                     	if	0	;tblptru may be non-zero
  3998  001410                     	global __mediumconst
  3999                           movlw	low highword(__mediumconst)
  4002  001410                     	tblrd	*
  4003  001410  0008               	
  4004                           	movf	tablat,w
  4005  001412  50F5               	xorlw	025h
  4006  001414  0A25               	btfss	status,2
  4007  001416  A4D8               	goto	u2241
  4008  001418  EF10  F00A         	goto	u2240
  4009  00141C  EF12  F00A         u2241:
  4010  001420                     	goto	l2531
  4011  001420  EFC9  F00A         u2240:
  4012  001424                     	line	681
  4013                           	
  4014                           l2499:
  4015  001424                     ;E:\ProgramasWindowns\Microchip\xc8\v2.00\pic\sources\c99\common\doprnt.c: 681:         
                                 ++*fmt;
  4016                           	movff	(vfpfcnvrt@fmt),fsr2l
  4017  001424  C0C1  FFD9         	movff	(vfpfcnvrt@fmt+1),fsr2h
  4018  001428  C0C2  FFDA         	incf	postinc2
  4019  00142C  2ADE               	movlw	0
  4020  00142E  0E00               	addwfc	postdec2
  4021  001430  22DD               	line	683
  4022                           	
  4023                           l2501:
  4024  001432                     ;E:\ProgramasWindowns\Microchip\xc8\v2.00\pic\sources\c99\common\doprnt.c: 683:         
                                 flags = width = 0;
  4025                           	movlw	high(0)
  4026  001432  0E00               	movlb	0	; () banked
  4027  001434  0100               	movwf	((_width+1))&0ffh
  4028  001436  6FEF               	movlw	low(0)
  4029  001438  0E00               	movwf	((_width))&0ffh
  4030  00143A  6FEE               	movff	(_width),(_flags)
  4031  00143C  C0EE  F0F2         	movff	(_width+1),(_flags+1)
  4032  001440  C0EF  F0F3         	line	684
  4033                           	
  4034                           l2503:; BSR set to: 0
  4035  001444                     
  4036                           ;E:\ProgramasWindowns\Microchip\xc8\v2.00\pic\sources\c99\common\doprnt.c: 684:         
                                 prec = -1;
  4037                           	setf	((_prec))&0ffh
  4038  001444  69F0               	setf	((_prec+1))&0ffh
  4039  001446  69F1               	line	825
  4040                           	
  4041                           l2505:; BSR set to: 0
  4042  001448                     
  4043                           ;E:\ProgramasWindowns\Microchip\xc8\v2.00\pic\sources\c99\common\doprnt.c: 825:         
                                 if ((*fmt[0] == 'd') || (*fmt[0] == 'i')) {
  4044                           	movff	(vfpfcnvrt@fmt),fsr2l
  4045  001448  C0C1  FFD9         	movff	(vfpfcnvrt@fmt+1),fsr2h
  4046  00144C  C0C2  FFDA         	movff	postinc2,tblptrl
  4047  001450  CFDE FFF6          	movff	postdec2,tblptrh
  4048  001454  CFDD FFF7          	if	0	;tblptru may be non-zero
  4049  001458                     	clrf	tblptru
  4051  001458                     	if	0	;tblptru may be non-zero
  4052  001458                     	global __mediumconst
  4053                           movlw	low highword(__mediumconst)
  4056  001458                     	tblrd	*
  4057  001458  0008               	
  4058                           	movf	tablat,w
  4059  00145A  50F5               	xorlw	064h
  4060  00145C  0A64               	btfsc	status,2
  4061  00145E  B4D8               	goto	u2251
  4062  001460  EF34  F00A         	goto	u2250
  4063  001464  EF36  F00A         u2251:
  4064  001468                     	goto	l2509
  4065  001468  EF4A  F00A         u2250:
  4066  00146C                     	
  4067                           l2507:; BSR set to: 0
  4068  00146C                     
  4069                           	movff	(vfpfcnvrt@fmt),fsr2l
  4070  00146C  C0C1  FFD9         	movff	(vfpfcnvrt@fmt+1),fsr2h
  4071  001470  C0C2  FFDA         	movff	postinc2,tblptrl
  4072  001474  CFDE FFF6          	movff	postdec2,tblptrh
  4073  001478  CFDD FFF7          	if	0	;tblptru may be non-zero
  4074  00147C                     	clrf	tblptru
  4076  00147C                     	if	0	;tblptru may be non-zero
  4077  00147C                     	global __mediumconst
  4078                           movlw	low highword(__mediumconst)
  4081  00147C                     	tblrd	*
  4082  00147C  0008               	
  4083                           	movf	tablat,w
  4084  00147E  50F5               	xorlw	069h
  4085  001480  0A69               	btfss	status,2
  4086  001482  A4D8               	goto	u2261
  4087  001484  EF46  F00A         	goto	u2260
  4088  001488  EF48  F00A         u2261:
  4089  00148C                     	goto	l2515
  4090  00148C  EF8C  F00A         u2260:
  4091  001490                     	goto	l2509
  4092  001490  EF4A  F00A         	
  4093                           l258:; BSR set to: 0
  4094  001494                     
  4095                           	line	827
  4096                           	
  4097                           l2509:; BSR set to: 0
  4098  001494                     
  4099                           ;E:\ProgramasWindowns\Microchip\xc8\v2.00\pic\sources\c99\common\doprnt.c: 827:         
                                     ++*fmt;
  4100                           	movff	(vfpfcnvrt@fmt),fsr2l
  4101  001494  C0C1  FFD9         	movff	(vfpfcnvrt@fmt+1),fsr2h
  4102  001498  C0C2  FFDA         	incf	postinc2
  4103  00149C  2ADE               	movlw	0
  4104  00149E  0E00               	addwfc	postdec2
  4105  0014A0  22DD               	line	828
  4106                           ;E:\ProgramasWindowns\Microchip\xc8\v2.00\pic\sources\c99\common\doprnt.c: 828:         
                                     ll = (long long)(*(int *)__va_arg(*(int **)ap, (int)0));
  4107                           	movff	(vfpfcnvrt@ap),fsr2l
  4108  0014A2  C0C3  FFD9         	movff	(vfpfcnvrt@ap+1),fsr2h
  4109  0014A6  C0C4  FFDA         	movff	indf2,??_vfpfcnvrt+0+0
  4110  0014AA  CFDF F0C5          	movlw	low(02h)
  4111  0014AE  0E02               	addwf	postinc2
  4112  0014B0  26DE               	movff	indf2,??_vfpfcnvrt+0+0+1
  4113  0014B2  CFDF F0C6          	movlw	high(02h)
  4114  0014B6  0E00               	addwfc	postdec2
  4115  0014B8  22DD               	movff	??_vfpfcnvrt+0+0,fsr2l
  4116  0014BA  C0C5  FFD9         	movff	??_vfpfcnvrt+0+1,fsr2h
  4117  0014BE  C0C6  FFDA         	movff	postinc2,(vfpfcnvrt@ll)
  4118  0014C2  CFDE F0C7          	movff	postdec2,(vfpfcnvrt@ll+1)
  4119  0014C6  CFDD F0C8          	movlw	0
  4120  0014CA  0E00               	btfsc	((vfpfcnvrt@ll+1))&0ffh,7
  4121  0014CC  BFC8               	movlw	-1
  4122  0014CE  0EFF               	movwf	((vfpfcnvrt@ll+2))&0ffh
  4123  0014D0  6FC9               	movwf	((vfpfcnvrt@ll+3))&0ffh
  4124  0014D2  6FCA               	movwf	((vfpfcnvrt@ll+4))&0ffh
  4125  0014D4  6FCB               	movwf	((vfpfcnvrt@ll+5))&0ffh
  4126  0014D6  6FCC               	movwf	((vfpfcnvrt@ll+6))&0ffh
  4127  0014D8  6FCD               	movwf	((vfpfcnvrt@ll+7))&0ffh
  4128  0014DA  6FCE               	line	830
  4129                           	
  4130                           l2511:; BSR set to: 0
  4131  0014DC                     
  4132                           ;E:\ProgramasWindowns\Microchip\xc8\v2.00\pic\sources\c99\common\doprnt.c: 830:         
                                     return dtoa(fp, ll);
  4133                           		movff	(vfpfcnvrt@fp),(dtoa@fp)
  4134  0014DC  C0BF  F09B         	movff	(vfpfcnvrt@fp+1),(dtoa@fp+1)
  4135  0014E0  C0C0  F09C         
  4136                           	movff	(vfpfcnvrt@ll),(dtoa@d)
  4137  0014E4  C0C7  F09D         	movff	(vfpfcnvrt@ll+1),(dtoa@d+1)
  4138  0014E8  C0C8  F09E         	movff	(vfpfcnvrt@ll+2),(dtoa@d+2)
  4139  0014EC  C0C9  F09F         	movff	(vfpfcnvrt@ll+3),(dtoa@d+3)
  4140  0014F0  C0CA  F0A0         	movff	(vfpfcnvrt@ll+4),(dtoa@d+4)
  4141  0014F4  C0CB  F0A1         	movff	(vfpfcnvrt@ll+5),(dtoa@d+5)
  4142  0014F8  C0CC  F0A2         	movff	(vfpfcnvrt@ll+6),(dtoa@d+6)
  4143  0014FC  C0CD  F0A3         	movff	(vfpfcnvrt@ll+7),(dtoa@d+7)
  4144  001500  C0CE  F0A4         	call	_dtoa	;wreg free
  4145  001504  ECE2  F006         	movff	0+?_dtoa,(?_vfpfcnvrt)
  4146  001508  C09B  F0BF         	movff	1+?_dtoa,(?_vfpfcnvrt+1)
  4147  00150C  C09C  F0C0         	goto	l259
  4148  001510  EFEA  F00A         	
  4149                           l2513:
  4150  001514                     	goto	l259
  4151  001514  EFEA  F00A         	line	831
  4152                           ;E:\ProgramasWindowns\Microchip\xc8\v2.00\pic\sources\c99\common\doprnt.c: 831:         
                                 }
  4153                           	
  4154                           l256:
  4155  001518                     	line	1350
  4156                           	
  4157                           l2515:
  4158  001518                     ;E:\ProgramasWindowns\Microchip\xc8\v2.00\pic\sources\c99\common\doprnt.c: 1350:        
                                  if ((*fmt)[0] == '%') {
  4159                           	movff	(vfpfcnvrt@fmt),fsr2l
  4160  001518  C0C1  FFD9         	movff	(vfpfcnvrt@fmt+1),fsr2h
  4161  00151C  C0C2  FFDA         	movff	postinc2,tblptrl
  4162  001520  CFDE FFF6          	movff	postdec2,tblptrh
  4163  001524  CFDD FFF7          	if	0	;tblptru may be non-zero
  4164  001528                     	clrf	tblptru
  4166  001528                     	if	0	;tblptru may be non-zero
  4167  001528                     	global __mediumconst
  4168                           movlw	low highword(__mediumconst)
  4171  001528                     	tblrd	*
  4172  001528  0008               	
  4173                           	movf	tablat,w
  4174  00152A  50F5               	xorlw	025h
  4175  00152C  0A25               	btfss	status,2
  4176  00152E  A4D8               	goto	u2271
  4177  001530  EF9C  F00A         	goto	u2270
  4178  001534  EF9E  F00A         u2271:
  4179  001538                     	goto	l2525
  4180  001538  EFB9  F00A         u2270:
  4181  00153C                     	line	1351
  4182                           	
  4183                           l2517:
  4184  00153C                     ;E:\ProgramasWindowns\Microchip\xc8\v2.00\pic\sources\c99\common\doprnt.c: 1351:        
                                      ++*fmt;
  4185                           	movff	(vfpfcnvrt@fmt),fsr2l
  4186  00153C  C0C1  FFD9         	movff	(vfpfcnvrt@fmt+1),fsr2h
  4187  001540  C0C2  FFDA         	incf	postinc2
  4188  001544  2ADE               	movlw	0
  4189  001546  0E00               	addwfc	postdec2
  4190  001548  22DD               	line	1352
  4191                           	
  4192                           l2519:
  4193  00154A                     ;E:\ProgramasWindowns\Microchip\xc8\v2.00\pic\sources\c99\common\doprnt.c: 1352:        
                                      fputc((int)'%', fp);
  4194                           	movlw	high(025h)
  4195  00154A  0E00               	movlb	0	; () banked
  4196  00154C  0100               	movwf	((fputc@c+1))&0ffh
  4197  00154E  6F81               	movlw	low(025h)
  4198  001550  0E25               	movwf	((fputc@c))&0ffh
  4199  001552  6F80               		movff	(vfpfcnvrt@fp),(fputc@fp)
  4200  001554  C0BF  F082         	movff	(vfpfcnvrt@fp+1),(fputc@fp+1)
  4201  001558  C0C0  F083         
  4202                           	call	_fputc	;wreg free
  4203  00155C  EC54  F010         	line	1353
  4204                           	
  4205                           l2521:
  4206  001560                     ;E:\ProgramasWindowns\Microchip\xc8\v2.00\pic\sources\c99\common\doprnt.c: 1353:        
                                      return 1;
  4207                           	movlw	high(01h)
  4208  001560  0E00               	movlb	0	; () banked
  4209  001562  0100               	movwf	((?_vfpfcnvrt+1))&0ffh
  4210  001564  6FC0               	movlw	low(01h)
  4211  001566  0E01               	movwf	((?_vfpfcnvrt))&0ffh
  4212  001568  6FBF               	goto	l259
  4213  00156A  EFEA  F00A         	
  4214                           l2523:; BSR set to: 0
  4215  00156E                     
  4216                           	goto	l259
  4217  00156E  EFEA  F00A         	line	1354
  4218                           ;E:\ProgramasWindowns\Microchip\xc8\v2.00\pic\sources\c99\common\doprnt.c: 1354:        
                                  }
  4219                           	
  4220                           l260:; BSR set to: 0
  4221  001572                     
  4222                           	line	1357
  4223                           	
  4224                           l2525:
  4225  001572                     ;E:\ProgramasWindowns\Microchip\xc8\v2.00\pic\sources\c99\common\doprnt.c: 1357:        
                                  ++*fmt;
  4226                           	movff	(vfpfcnvrt@fmt),fsr2l
  4227  001572  C0C1  FFD9         	movff	(vfpfcnvrt@fmt+1),fsr2h
  4228  001576  C0C2  FFDA         	incf	postinc2
  4229  00157A  2ADE               	movlw	0
  4230  00157C  0E00               	addwfc	postdec2
  4231  00157E  22DD               	line	1358
  4232                           	
  4233                           l2527:
  4234  001580                     ;E:\ProgramasWindowns\Microchip\xc8\v2.00\pic\sources\c99\common\doprnt.c: 1358:        
                                  return 0;
  4235                           	movlw	high(0)
  4236  001580  0E00               	movlb	0	; () banked
  4237  001582  0100               	movwf	((?_vfpfcnvrt+1))&0ffh
  4238  001584  6FC0               	movlw	low(0)
  4239  001586  0E00               	movwf	((?_vfpfcnvrt))&0ffh
  4240  001588  6FBF               	goto	l259
  4241  00158A  EFEA  F00A         	
  4242                           l2529:; BSR set to: 0
  4243  00158E                     
  4244                           	goto	l259
  4245  00158E  EFEA  F00A         	line	1359
  4246                           ;E:\ProgramasWindowns\Microchip\xc8\v2.00\pic\sources\c99\common\doprnt.c: 1359:     }
  4247                           	
  4248                           l255:; BSR set to: 0
  4249  001592                     
  4250                           	line	1362
  4251                           	
  4252                           l2531:
  4253  001592                     ;E:\ProgramasWindowns\Microchip\xc8\v2.00\pic\sources\c99\common\doprnt.c: 1362:     fpu
                                 tc((int)(*fmt)[0], fp);
  4254                           	movff	(vfpfcnvrt@fmt),fsr2l
  4255  001592  C0C1  FFD9         	movff	(vfpfcnvrt@fmt+1),fsr2h
  4256  001596  C0C2  FFDA         	movff	postinc2,tblptrl
  4257  00159A  CFDE FFF6          	movff	postdec2,tblptrh
  4258  00159E  CFDD FFF7          	if	0	;tblptru may be non-zero
  4259  0015A2                     	clrf	tblptru
  4261  0015A2                     	if	0	;tblptru may be non-zero
  4262  0015A2                     	global __mediumconst
  4263                           movlw	low highword(__mediumconst)
  4266  0015A2                     	tblrd	*
  4267  0015A2  0008               	
  4268                           	movf	tablat,w
  4269  0015A4  50F5               
  4270                           	movlb	0	; () banked
  4271  0015A6  0100               	movwf	((fputc@c))&0ffh
  4272  0015A8  6F80               	clrf	((fputc@c+1))&0ffh
  4273  0015AA  6B81               		movff	(vfpfcnvrt@fp),(fputc@fp)
  4274  0015AC  C0BF  F082         	movff	(vfpfcnvrt@fp+1),(fputc@fp+1)
  4275  0015B0  C0C0  F083         
  4276                           	call	_fputc	;wreg free
  4277  0015B4  EC54  F010         	line	1363
  4278                           	
  4279                           l2533:
  4280  0015B8                     ;E:\ProgramasWindowns\Microchip\xc8\v2.00\pic\sources\c99\common\doprnt.c: 1363:     ++*
                                 fmt;
  4281                           	movff	(vfpfcnvrt@fmt),fsr2l
  4282  0015B8  C0C1  FFD9         	movff	(vfpfcnvrt@fmt+1),fsr2h
  4283  0015BC  C0C2  FFDA         	incf	postinc2
  4284  0015C0  2ADE               	movlw	0
  4285  0015C2  0E00               	addwfc	postdec2
  4286  0015C4  22DD               	line	1364
  4287                           	
  4288                           l2535:
  4289  0015C6                     ;E:\ProgramasWindowns\Microchip\xc8\v2.00\pic\sources\c99\common\doprnt.c: 1364:     ret
                                 urn 1;
  4290                           	movlw	high(01h)
  4291  0015C6  0E00               	movlb	0	; () banked
  4292  0015C8  0100               	movwf	((?_vfpfcnvrt+1))&0ffh
  4293  0015CA  6FC0               	movlw	low(01h)
  4294  0015CC  0E01               	movwf	((?_vfpfcnvrt))&0ffh
  4295  0015CE  6FBF               	goto	l259
  4296  0015D0  EFEA  F00A         	
  4297                           l2537:; BSR set to: 0
  4298  0015D4                     
  4299                           	line	1365
  4300                           	
  4301                           l259:
  4302  0015D4                     	return	;funcret
  4303  0015D4  0012               	opt stack 0
  4304                           GLOBAL	__end_of_vfpfcnvrt
  4305                           	__end_of_vfpfcnvrt:
  4306  0015D6                     	signat	_vfpfcnvrt,12410
  4307                           	global	_dtoa
  4308                           
  4309 ;; *************** function _dtoa *****************
  4310 ;; Defined at:
  4311 ;;		line 274 in file "E:\ProgramasWindowns\Microchip\xc8\v2.00\pic\sources\c99\common\doprnt.c"
  4312 ;; Parameters:    Size  Location     Type
  4313 ;;  fp              2   27[BANK0 ] PTR struct _IO_FILE
  4314 ;;		 -> sprintf@f(6), 
  4315 ;;  d               8   29[BANK0 ] long long 
  4316 ;; Auto vars:     Size  Location     Type
  4317 ;;  n               8   53[BANK0 ] long long 
  4318 ;;  i               2   61[BANK0 ] int 
  4319 ;;  s               2   51[BANK0 ] int 
  4320 ;;  w               2   49[BANK0 ] int 
  4321 ;;  p               2   47[BANK0 ] int 
  4322 ;; Return value:  Size  Location     Type
  4323 ;;                  2   27[BANK0 ] int 
  4324 ;; Registers used:
  4325 ;;		wreg, fsr1l, fsr1h, fsr2l, fsr2h, status,2, status,0, cstack
  4326 ;; Tracked objects:
  4327 ;;		On entry : 0/0
  4328 ;;		On exit  : 0/0
  4329 ;;		Unchanged: 0/0
  4330 ;; Data sizes:     COMRAM   BANK0   BANK1   BANK2   BANK3   BANK4   BANK5
  4331 ;;      Params:         0      10       0       0       0       0       0
  4332 ;;      Locals:         0      18       0       0       0       0       0
  4333 ;;      Temps:          0       8       0       0       0       0       0
  4334 ;;      Totals:         0      36       0       0       0       0       0
  4335 ;;Total ram usage:       36 bytes
  4336 ;; Hardware stack levels used:    1
  4337 ;; Hardware stack levels required when called:   15
  4338 ;; This function calls:
  4339 ;;		___aodiv
  4340 ;;		___aomod
  4341 ;;		_abs
  4342 ;;		_pad
  4343 ;; This function is called by:
  4344 ;;		_vfpfcnvrt
  4345 ;; This function uses a non-reentrant model
  4346 ;;
  4347                           psect	text7,class=CODE,space=0,reloc=2,group=0
  4348                           	line	274
  4349                           global __ptext7
  4350                           __ptext7:
  4351  000DC4                     psect	text7
  4352                           	file	"E:\ProgramasWindowns\Microchip\xc8\v2.00\pic\sources\c99\common\doprnt.c"
  4353                           	line	274
  4354                           	global	__size_of_dtoa
  4355                           	__size_of_dtoa	equ	__end_of_dtoa-_dtoa
  4356  0000                     	
  4357                           _dtoa:
  4358  000DC4                     ;incstack = 0
  4359                           	opt	stack 10
  4360                           	line	280
  4361                           	
  4362                           l2365:
  4363  000DC4                     ;E:\ProgramasWindowns\Microchip\xc8\v2.00\pic\sources\c99\common\doprnt.c: 274: static i
                                 nt dtoa(FILE *fp, long long d);E:\ProgramasWindowns\Microchip\xc8\v2.00\pic\sources\c99\
                                 common\doprnt.c: 275: {;E:\ProgramasWindowns\Microchip\xc8\v2.00\pic\sources\c99\common\
                                 doprnt.c: 276:     int i, p, s, w;;E:\ProgramasWindowns\Microchip\xc8\v2.00\pic\sources\
                                 c99\common\doprnt.c: 277:     long long n;;E:\ProgramasWindowns\Microchip\xc8\v2.00\pic\
                                 sources\c99\common\doprnt.c: 280:     n = d;
  4364                           	movff	(dtoa@d),(dtoa@n)
  4365  000DC4  C09D  F0B5         	movff	(dtoa@d+1),(dtoa@n+1)
  4366  000DC8  C09E  F0B6         	movff	(dtoa@d+2),(dtoa@n+2)
  4367  000DCC  C09F  F0B7         	movff	(dtoa@d+3),(dtoa@n+3)
  4368  000DD0  C0A0  F0B8         	movff	(dtoa@d+4),(dtoa@n+4)
  4369  000DD4  C0A1  F0B9         	movff	(dtoa@d+5),(dtoa@n+5)
  4370  000DD8  C0A2  F0BA         	movff	(dtoa@d+6),(dtoa@n+6)
  4371  000DDC  C0A3  F0BB         	movff	(dtoa@d+7),(dtoa@n+7)
  4372  000DE0  C0A4  F0BC         	line	281
  4373                           	
  4374                           l2367:
  4375  000DE4                     ;E:\ProgramasWindowns\Microchip\xc8\v2.00\pic\sources\c99\common\doprnt.c: 281:     s = 
                                 n < 0 ? 1 : 0;
  4376                           	movlb	0	; () banked
  4377  000DE4  0100               	btfsc	((dtoa@n+7))&0ffh,7
  4378  000DE6  BFBC               	goto	u1941
  4379  000DE8  EFF8  F006         	goto	u1940
  4380  000DEC  EFFB  F006         
  4381                           u1941:
  4382  000DF0                     	movlw	1
  4383  000DF0  0E01               	goto	u1950
  4384  000DF2  EFFC  F006         u1940:
  4385  000DF6                     	movlw	0
  4386  000DF6  0E00               u1950:
  4387  000DF8                     	movwf	((dtoa@s))&0ffh
  4388  000DF8  6FB3               	clrf	((dtoa@s+1))&0ffh
  4389  000DFA  6BB4               	line	282
  4390                           ;E:\ProgramasWindowns\Microchip\xc8\v2.00\pic\sources\c99\common\doprnt.c: 282:     if (
                                 s) {
  4391                           	movf	((dtoa@s))&0ffh,w
  4392  000DFC  51B3               iorwf	((dtoa@s+1))&0ffh,w
  4393  000DFE  11B4               	btfsc	status,2
  4394  000E00  B4D8               	goto	u1961
  4395  000E02  EF05  F007         	goto	u1960
  4396  000E06  EF07  F007         
  4397                           u1961:
  4398  000E0A                     	goto	l2371
  4399  000E0A  EF19  F007         u1960:
  4400  000E0E                     	line	283
  4401                           	
  4402                           l2369:; BSR set to: 0
  4403  000E0E                     
  4404                           ;E:\ProgramasWindowns\Microchip\xc8\v2.00\pic\sources\c99\common\doprnt.c: 283:         
                                 n = -n;
  4405                           	comf	((dtoa@n+7))&0ffh
  4406  000E0E  1FBC               	comf	((dtoa@n+6))&0ffh
  4407  000E10  1FBB               	comf	((dtoa@n+5))&0ffh
  4408  000E12  1FBA               	comf	((dtoa@n+4))&0ffh
  4409  000E14  1FB9               	comf	((dtoa@n+3))&0ffh
  4410  000E16  1FB8               	comf	((dtoa@n+2))&0ffh
  4411  000E18  1FB7               	comf	((dtoa@n+1))&0ffh
  4412  000E1A  1FB6               	negf	((dtoa@n))&0ffh
  4413  000E1C  6DB5               	movlw	0
  4414  000E1E  0E00               	addwfc	((dtoa@n+1))&0ffh
  4415  000E20  23B6               	addwfc	((dtoa@n+2))&0ffh
  4416  000E22  23B7               	addwfc	((dtoa@n+3))&0ffh
  4417  000E24  23B8               	addwfc	((dtoa@n+4))&0ffh
  4418  000E26  23B9               	addwfc	((dtoa@n+5))&0ffh
  4419  000E28  23BA               	addwfc	((dtoa@n+6))&0ffh
  4420  000E2A  23BB               	addwfc	((dtoa@n+7))&0ffh
  4421  000E2C  23BC               	goto	l2371
  4422  000E2E  EF19  F007         	line	284
  4423                           ;E:\ProgramasWindowns\Microchip\xc8\v2.00\pic\sources\c99\common\doprnt.c: 284:     }
  4424                           	
  4425                           l229:; BSR set to: 0
  4426  000E32                     
  4427                           	line	287
  4428                           	
  4429                           l2371:; BSR set to: 0
  4430  000E32                     
  4431                           ;E:\ProgramasWindowns\Microchip\xc8\v2.00\pic\sources\c99\common\doprnt.c: 287:     if (
                                 !(prec < 0)) {
  4432                           	btfsc	((_prec+1))&0ffh,7
  4433  000E32  BFF1               	goto	u1971
  4434  000E34  EF1E  F007         	goto	u1970
  4435  000E38  EF20  F007         
  4436                           u1971:
  4437  000E3C                     	goto	l2375
  4438  000E3C  EF23  F007         u1970:
  4439  000E40                     	line	288
  4440                           	
  4441                           l2373:; BSR set to: 0
  4442  000E40                     
  4443                           ;E:\ProgramasWindowns\Microchip\xc8\v2.00\pic\sources\c99\common\doprnt.c: 288:         
                                 flags &= ~(1 << 1);
  4444                           	bcf	(0+(1/8)+(_flags))&0ffh,(1)&7
  4445  000E40  93F2               	goto	l2375
  4446  000E42  EF23  F007         	line	289
  4447                           ;E:\ProgramasWindowns\Microchip\xc8\v2.00\pic\sources\c99\common\doprnt.c: 289:     }
  4448                           	
  4449                           l230:; BSR set to: 0
  4450  000E46                     
  4451                           	line	290
  4452                           	
  4453                           l2375:; BSR set to: 0
  4454  000E46                     
  4455                           ;E:\ProgramasWindowns\Microchip\xc8\v2.00\pic\sources\c99\common\doprnt.c: 290:     p = 
                                 (0 < prec) ? prec : 1;
  4456                           	btfsc	((_prec+1))&0ffh,7
  4457  000E46  BFF1               	goto	u1980
  4458  000E48  EF30  F007         	movf	((_prec+1))&0ffh,w
  4459  000E4C  51F1               	bnz	u1981
  4460  000E4E  E106               	decf	((_prec))&0ffh,w
  4461  000E50  05F0               	btfsc	status,0
  4462  000E52  B0D8               	goto	u1981
  4463  000E54  EF2E  F007         	goto	u1980
  4464  000E58  EF30  F007         
  4465                           u1981:
  4466  000E5C                     	goto	l232
  4467  000E5C  EF36  F007         u1980:
  4468  000E60                     	
  4469                           l2377:; BSR set to: 0
  4470  000E60                     
  4471                           	movlw	high(01h)
  4472  000E60  0E00               	movwf	((dtoa@p+1))&0ffh
  4473  000E62  6FB0               	movlw	low(01h)
  4474  000E64  0E01               	movwf	((dtoa@p))&0ffh
  4475  000E66  6FAF               	goto	l234
  4476  000E68  EF3A  F007         	
  4477                           l232:; BSR set to: 0
  4478  000E6C                     
  4479                           	movff	(_prec),(dtoa@p)
  4480  000E6C  C0F0  F0AF         	movff	(_prec+1),(dtoa@p+1)
  4481  000E70  C0F1  F0B0         	
  4482                           l234:; BSR set to: 0
  4483  000E74                     
  4484                           	line	291
  4485                           ;E:\ProgramasWindowns\Microchip\xc8\v2.00\pic\sources\c99\common\doprnt.c: 291:     w = 
                                 width;
  4486                           	movff	(_width),(dtoa@w)
  4487  000E74  C0EE  F0B1         	movff	(_width+1),(dtoa@w+1)
  4488  000E78  C0EF  F0B2         	line	292
  4489                           	
  4490                           l2379:; BSR set to: 0
  4491  000E7C                     
  4492                           ;E:\ProgramasWindowns\Microchip\xc8\v2.00\pic\sources\c99\common\doprnt.c: 292:     if (
                                 s || (flags & (1 << 2))) {
  4493                           	movf	((dtoa@s))&0ffh,w
  4494  000E7C  51B3               iorwf	((dtoa@s+1))&0ffh,w
  4495  000E7E  11B4               	btfss	status,2
  4496  000E80  A4D8               	goto	u1991
  4497  000E82  EF45  F007         	goto	u1990
  4498  000E86  EF47  F007         
  4499                           u1991:
  4500  000E8A                     	goto	l2383
  4501  000E8A  EF50  F007         u1990:
  4502  000E8E                     	
  4503                           l2381:; BSR set to: 0
  4504  000E8E                     
  4505                           	
  4506                           	btfss	((_flags))&0ffh,(2)&7
  4507  000E8E  A5F2               	goto	u2001
  4508  000E90  EF4C  F007         	goto	u2000
  4509  000E94  EF4E  F007         u2001:
  4510  000E98                     	goto	l2385
  4511  000E98  EF55  F007         u2000:
  4512  000E9C                     	goto	l2383
  4513  000E9C  EF50  F007         	
  4514                           l237:; BSR set to: 0
  4515  000EA0                     
  4516                           	line	293
  4517                           	
  4518                           l2383:; BSR set to: 0
  4519  000EA0                     
  4520                           ;E:\ProgramasWindowns\Microchip\xc8\v2.00\pic\sources\c99\common\doprnt.c: 293:         
                                 --w;
  4521                           	decf	((dtoa@w))&0ffh
  4522  000EA0  07B1               	btfss	status,0
  4523  000EA2  A0D8               	decf	((dtoa@w+1))&0ffh
  4524  000EA4  07B2               	goto	l2385
  4525  000EA6  EF55  F007         	line	294
  4526                           ;E:\ProgramasWindowns\Microchip\xc8\v2.00\pic\sources\c99\common\doprnt.c: 294:     }
  4527                           	
  4528                           l235:; BSR set to: 0
  4529  000EAA                     
  4530                           	line	297
  4531                           	
  4532                           l2385:; BSR set to: 0
  4533  000EAA                     
  4534                           ;E:\ProgramasWindowns\Microchip\xc8\v2.00\pic\sources\c99\common\doprnt.c: 297:     i = 
                                 sizeof(dbuf) - 1;
  4535                           	movlw	high(01Fh)
  4536  000EAA  0E00               	movwf	((dtoa@i+1))&0ffh
  4537  000EAC  6FBE               	movlw	low(01Fh)
  4538  000EAE  0E1F               	movwf	((dtoa@i))&0ffh
  4539  000EB0  6FBD               	line	298
  4540                           	
  4541                           l2387:; BSR set to: 0
  4542  000EB2                     
  4543                           ;E:\ProgramasWindowns\Microchip\xc8\v2.00\pic\sources\c99\common\doprnt.c: 298:     dbuf
                                 [i] = '\0';
  4544                           	movlw	low(_dbuf)
  4545  000EB2  0E00               	addwf	((dtoa@i))&0ffh,w
  4546  000EB4  25BD               	movwf	c:fsr2l
  4547  000EB6  6ED9               	movlw	high(_dbuf)
  4548  000EB8  0E01               	addwfc	((dtoa@i+1))&0ffh,w
  4549  000EBA  21BE               	movwf	1+c:fsr2l
  4550  000EBC  6EDA               	movlw	low(0)
  4551  000EBE  0E00               	movwf	indf2
  4552  000EC0  6EDF               	line	299
  4553                           ;E:\ProgramasWindowns\Microchip\xc8\v2.00\pic\sources\c99\common\doprnt.c: 299:     whil
                                 e (!(i < 1) && (n || (0 < p) || ((0 < w) && (flags & (1 << 1))))) {
  4554                           	goto	l2399
  4555  000EC2  EFE2  F007         	
  4556                           l239:; BSR set to: 0
  4557  000EC6                     
  4558                           	line	300
  4559                           	
  4560                           l2389:; BSR set to: 0
  4561  000EC6                     
  4562                           ;E:\ProgramasWindowns\Microchip\xc8\v2.00\pic\sources\c99\common\doprnt.c: 300:         
                                 --i;
  4563                           	decf	((dtoa@i))&0ffh
  4564  000EC6  07BD               	btfss	status,0
  4565  000EC8  A0D8               	decf	((dtoa@i+1))&0ffh
  4566  000ECA  07BE               	line	301
  4567                           	
  4568                           l2391:; BSR set to: 0
  4569  000ECC                     
  4570                           ;E:\ProgramasWindowns\Microchip\xc8\v2.00\pic\sources\c99\common\doprnt.c: 301:         
                                 dbuf[i] = '0' + abs(n % 10);
  4571                           	movlw	low(_dbuf)
  4572  000ECC  0E00               	addwf	((dtoa@i))&0ffh,w
  4573  000ECE  25BD               	movwf	c:fsr2l
  4574  000ED0  6ED9               	movlw	high(_dbuf)
  4575  000ED2  0E01               	addwfc	((dtoa@i+1))&0ffh,w
  4576  000ED4  21BE               	movwf	1+c:fsr2l
  4577  000ED6  6EDA               	movff	(dtoa@n),(___aomod@dividend)
  4578  000ED8  C0B5  F080         	movff	(dtoa@n+1),(___aomod@dividend+1)
  4579  000EDC  C0B6  F081         	movff	(dtoa@n+2),(___aomod@dividend+2)
  4580  000EE0  C0B7  F082         	movff	(dtoa@n+3),(___aomod@dividend+3)
  4581  000EE4  C0B8  F083         	movff	(dtoa@n+4),(___aomod@dividend+4)
  4582  000EE8  C0B9  F084         	movff	(dtoa@n+5),(___aomod@dividend+5)
  4583  000EEC  C0BA  F085         	movff	(dtoa@n+6),(___aomod@dividend+6)
  4584  000EF0  C0BB  F086         	movff	(dtoa@n+7),(___aomod@dividend+7)
  4585  000EF4  C0BC  F087         	movlw	byte0(0Ah)
  4586  000EF8  0E0A               	movwf	((___aomod@divisor))&0ffh
  4587  000EFA  6F88               	movlw	byte1(0Ah)
  4588  000EFC  0E00               	movwf	((___aomod@divisor+1))&0ffh
  4589  000EFE  6F89               	movlw	byte2(0Ah)
  4590  000F00  0E00               	movwf	((___aomod@divisor+2))&0ffh
  4591  000F02  6F8A               	movlw	byte3(0Ah)
  4592  000F04  0E00               	movwf	((___aomod@divisor+3))&0ffh
  4593  000F06  6F8B               	movlw	byte4(0Ah)
  4594  000F08  0E00               	movwf	((___aomod@divisor+4))&0ffh
  4595  000F0A  6F8C               	movlw	byte5(0Ah)
  4596  000F0C  0E00               	movwf	((___aomod@divisor+5))&0ffh
  4597  000F0E  6F8D               	movlw	byte6(0Ah)
  4598  000F10  0E00               	movwf	((___aomod@divisor+6))&0ffh
  4599  000F12  6F8E               	movlw	byte7(0Ah)
  4600  000F14  0E00               	movwf	((___aomod@divisor+7))&0ffh
  4601  000F16  6F8F               	call	___aomod	;wreg free
  4602  000F18  EC82  F00D         	movff	0+?___aomod,??_dtoa+0+0
  4603  000F1C  C080  F0A5         	movff	1+?___aomod,??_dtoa+0+0+1
  4604  000F20  C081  F0A6         	movff	2+?___aomod,??_dtoa+0+0+2
  4605  000F24  C082  F0A7         	movff	3+?___aomod,??_dtoa+0+0+3
  4606  000F28  C083  F0A8         	movff	4+?___aomod,??_dtoa+0+0+4
  4607  000F2C  C084  F0A9         	movff	5+?___aomod,??_dtoa+0+0+5
  4608  000F30  C085  F0AA         	movff	6+?___aomod,??_dtoa+0+0+6
  4609  000F34  C086  F0AB         	movff	7+?___aomod,??_dtoa+0+0+7
  4610  000F38  C087  F0AC         	
  4611                           	movff	??_dtoa+0+0,(abs@a)
  4612  000F3C  C0A5  F092         	movff	??_dtoa+0+2,(abs@a+1)
  4613  000F40  C0A7  F093         	call	_abs	;wreg free
  4614  000F44  ECBF  F014         	movlb	0	; () banked
  4615  000F48  0100               	movf	(0+?_abs)&0ffh,w
  4616  000F4A  5192               	addlw	low(030h)
  4617  000F4C  0F30               	movwf	indf2,c
  4618  000F4E  6EDF               
  4619                           	line	302
  4620                           	
  4621                           l2393:; BSR set to: 0
  4622  000F50                     
  4623                           ;E:\ProgramasWindowns\Microchip\xc8\v2.00\pic\sources\c99\common\doprnt.c: 302:         
                                 --p;
  4624                           	decf	((dtoa@p))&0ffh
  4625  000F50  07AF               	btfss	status,0
  4626  000F52  A0D8               	decf	((dtoa@p+1))&0ffh
  4627  000F54  07B0               	line	303
  4628                           	
  4629                           l2395:; BSR set to: 0
  4630  000F56                     
  4631                           ;E:\ProgramasWindowns\Microchip\xc8\v2.00\pic\sources\c99\common\doprnt.c: 303:         
                                 --w;
  4632                           	decf	((dtoa@w))&0ffh
  4633  000F56  07B1               	btfss	status,0
  4634  000F58  A0D8               	decf	((dtoa@w+1))&0ffh
  4635  000F5A  07B2               	line	304
  4636                           	
  4637                           l2397:; BSR set to: 0
  4638  000F5C                     
  4639                           ;E:\ProgramasWindowns\Microchip\xc8\v2.00\pic\sources\c99\common\doprnt.c: 304:         
                                 n = n / 10;
  4640                           	movff	(dtoa@n),(___aodiv@dividend)
  4641  000F5C  C0B5  F080         	movff	(dtoa@n+1),(___aodiv@dividend+1)
  4642  000F60  C0B6  F081         	movff	(dtoa@n+2),(___aodiv@dividend+2)
  4643  000F64  C0B7  F082         	movff	(dtoa@n+3),(___aodiv@dividend+3)
  4644  000F68  C0B8  F083         	movff	(dtoa@n+4),(___aodiv@dividend+4)
  4645  000F6C  C0B9  F084         	movff	(dtoa@n+5),(___aodiv@dividend+5)
  4646  000F70  C0BA  F085         	movff	(dtoa@n+6),(___aodiv@dividend+6)
  4647  000F74  C0BB  F086         	movff	(dtoa@n+7),(___aodiv@dividend+7)
  4648  000F78  C0BC  F087         	movlw	byte0(0Ah)
  4649  000F7C  0E0A               	movwf	((___aodiv@divisor))&0ffh
  4650  000F7E  6F88               	movlw	byte1(0Ah)
  4651  000F80  0E00               	movwf	((___aodiv@divisor+1))&0ffh
  4652  000F82  6F89               	movlw	byte2(0Ah)
  4653  000F84  0E00               	movwf	((___aodiv@divisor+2))&0ffh
  4654  000F86  6F8A               	movlw	byte3(0Ah)
  4655  000F88  0E00               	movwf	((___aodiv@divisor+3))&0ffh
  4656  000F8A  6F8B               	movlw	byte4(0Ah)
  4657  000F8C  0E00               	movwf	((___aodiv@divisor+4))&0ffh
  4658  000F8E  6F8C               	movlw	byte5(0Ah)
  4659  000F90  0E00               	movwf	((___aodiv@divisor+5))&0ffh
  4660  000F92  6F8D               	movlw	byte6(0Ah)
  4661  000F94  0E00               	movwf	((___aodiv@divisor+6))&0ffh
  4662  000F96  6F8E               	movlw	byte7(0Ah)
  4663  000F98  0E00               	movwf	((___aodiv@divisor+7))&0ffh
  4664  000F9A  6F8F               	call	___aodiv	;wreg free
  4665  000F9C  ECD1  F00B         	movff	0+?___aodiv,(dtoa@n)
  4666  000FA0  C080  F0B5         	movff	1+?___aodiv,(dtoa@n+1)
  4667  000FA4  C081  F0B6         	movff	2+?___aodiv,(dtoa@n+2)
  4668  000FA8  C082  F0B7         	movff	3+?___aodiv,(dtoa@n+3)
  4669  000FAC  C083  F0B8         	movff	4+?___aodiv,(dtoa@n+4)
  4670  000FB0  C084  F0B9         	movff	5+?___aodiv,(dtoa@n+5)
  4671  000FB4  C085  F0BA         	movff	6+?___aodiv,(dtoa@n+6)
  4672  000FB8  C086  F0BB         	movff	7+?___aodiv,(dtoa@n+7)
  4673  000FBC  C087  F0BC         	
  4674                           	goto	l2399
  4675  000FC0  EFE2  F007         	line	305
  4676                           ;E:\ProgramasWindowns\Microchip\xc8\v2.00\pic\sources\c99\common\doprnt.c: 305:     }
  4677                           	
  4678                           l238:
  4679  000FC4                     	line	299
  4680                           	
  4681                           l2399:
  4682  000FC4                     ;E:\ProgramasWindowns\Microchip\xc8\v2.00\pic\sources\c99\common\doprnt.c: 299:     whil
                                 e (!(i < 1) && (n || (0 < p) || ((0 < w) && (flags & (1 << 1))))) {
  4683                           	movlb	0	; () banked
  4684  000FC4  0100               	btfsc	((dtoa@i+1))&0ffh,7
  4685  000FC6  BFBE               	goto	u2011
  4686  000FC8  EFEE  F007         	movf	((dtoa@i+1))&0ffh,w
  4687  000FCC  51BE               	bnz	u2010
  4688  000FCE  E108               	decf	((dtoa@i))&0ffh,w
  4689  000FD0  05BD               	btfss	status,0
  4690  000FD2  A0D8               	goto	u2011
  4691  000FD4  EFEE  F007         	goto	u2010
  4692  000FD8  EFF0  F007         
  4693                           u2011:
  4694  000FDC                     	goto	l2409
  4695  000FDC  EF26  F008         u2010:
  4696  000FE0                     	
  4697                           l2401:; BSR set to: 0
  4698  000FE0                     
  4699                           	movf	((dtoa@n))&0ffh,w
  4700  000FE0  51B5               iorwf	((dtoa@n+1))&0ffh,w
  4701  000FE2  11B6               iorwf	((dtoa@n+2))&0ffh,w
  4702  000FE4  11B7               iorwf	((dtoa@n+3))&0ffh,w
  4703  000FE6  11B8               iorwf	((dtoa@n+4))&0ffh,w
  4704  000FE8  11B9               iorwf	((dtoa@n+5))&0ffh,w
  4705  000FEA  11BA               iorwf	((dtoa@n+6))&0ffh,w
  4706  000FEC  11BB               iorwf	((dtoa@n+7))&0ffh,w
  4707  000FEE  11BC               	btfss	status,2
  4708  000FF0  A4D8               	goto	u2021
  4709  000FF2  EFFD  F007         	goto	u2020
  4710  000FF6  EFFF  F007         
  4711                           u2021:
  4712  000FFA                     	goto	l2389
  4713  000FFA  EF63  F007         u2020:
  4714  000FFE                     	
  4715                           l2403:; BSR set to: 0
  4716  000FFE                     
  4717                           	btfsc	((dtoa@p+1))&0ffh,7
  4718  000FFE  BFB0               	goto	u2030
  4719  001000  EF0C  F008         	movf	((dtoa@p+1))&0ffh,w
  4720  001004  51B0               	bnz	u2031
  4721  001006  E106               	decf	((dtoa@p))&0ffh,w
  4722  001008  05AF               	btfsc	status,0
  4723  00100A  B0D8               	goto	u2031
  4724  00100C  EF0A  F008         	goto	u2030
  4725  001010  EF0C  F008         
  4726                           u2031:
  4727  001014                     	goto	l2389
  4728  001014  EF63  F007         u2030:
  4729  001018                     	
  4730                           l2405:; BSR set to: 0
  4731  001018                     
  4732                           	btfsc	((dtoa@w+1))&0ffh,7
  4733  001018  BFB2               	goto	u2041
  4734  00101A  EF17  F008         	movf	((dtoa@w+1))&0ffh,w
  4735  00101E  51B2               	bnz	u2040
  4736  001020  E108               	decf	((dtoa@w))&0ffh,w
  4737  001022  05B1               	btfss	status,0
  4738  001024  A0D8               	goto	u2041
  4739  001026  EF17  F008         	goto	u2040
  4740  00102A  EF19  F008         
  4741                           u2041:
  4742  00102E                     	goto	l2409
  4743  00102E  EF26  F008         u2040:
  4744  001032                     	
  4745                           l2407:; BSR set to: 0
  4746  001032                     
  4747                           	
  4748                           	btfsc	((_flags))&0ffh,(1)&7
  4749  001032  B3F2               	goto	u2051
  4750  001034  EF1E  F008         	goto	u2050
  4751  001038  EF20  F008         u2051:
  4752  00103C                     	goto	l2389
  4753  00103C  EF63  F007         u2050:
  4754  001040                     	goto	l2409
  4755  001040  EF26  F008         	
  4756                           l243:; BSR set to: 0
  4757  001044                     
  4758                           	goto	l2409
  4759  001044  EF26  F008         	
  4760                           l241:; BSR set to: 0
  4761  001048                     
  4762                           	goto	l2409
  4763  001048  EF26  F008         	
  4764                           l244:; BSR set to: 0
  4765  00104C                     
  4766                           	line	308
  4767                           	
  4768                           l2409:; BSR set to: 0
  4769  00104C                     
  4770                           ;E:\ProgramasWindowns\Microchip\xc8\v2.00\pic\sources\c99\common\doprnt.c: 308:     if (
                                 s || (flags & (1 << 2))) {
  4771                           	movf	((dtoa@s))&0ffh,w
  4772  00104C  51B3               iorwf	((dtoa@s+1))&0ffh,w
  4773  00104E  11B4               	btfss	status,2
  4774  001050  A4D8               	goto	u2061
  4775  001052  EF2D  F008         	goto	u2060
  4776  001056  EF2F  F008         
  4777                           u2061:
  4778  00105A                     	goto	l2413
  4779  00105A  EF38  F008         u2060:
  4780  00105E                     	
  4781                           l2411:; BSR set to: 0
  4782  00105E                     
  4783                           	
  4784                           	btfss	((_flags))&0ffh,(2)&7
  4785  00105E  A5F2               	goto	u2071
  4786  001060  EF34  F008         	goto	u2070
  4787  001064  EF36  F008         u2071:
  4788  001068                     	goto	l2423
  4789  001068  EF5A  F008         u2070:
  4790  00106C                     	goto	l2413
  4791  00106C  EF38  F008         	
  4792                           l247:; BSR set to: 0
  4793  001070                     
  4794                           	line	309
  4795                           	
  4796                           l2413:; BSR set to: 0
  4797  001070                     
  4798                           ;E:\ProgramasWindowns\Microchip\xc8\v2.00\pic\sources\c99\common\doprnt.c: 309:         
                                 --i;
  4799                           	decf	((dtoa@i))&0ffh
  4800  001070  07BD               	btfss	status,0
  4801  001072  A0D8               	decf	((dtoa@i+1))&0ffh
  4802  001074  07BE               	line	310
  4803                           	
  4804                           l2415:; BSR set to: 0
  4805  001076                     
  4806                           ;E:\ProgramasWindowns\Microchip\xc8\v2.00\pic\sources\c99\common\doprnt.c: 310:         
                                 dbuf[i] = s ? '-' : '+';
  4807                           	movf	((dtoa@s))&0ffh,w
  4808  001076  51B3               iorwf	((dtoa@s+1))&0ffh,w
  4809  001078  11B4               	btfss	status,2
  4810  00107A  A4D8               	goto	u2081
  4811  00107C  EF42  F008         	goto	u2080
  4812  001080  EF44  F008         
  4813                           u2081:
  4814  001084                     	goto	l2419
  4815  001084  EF4A  F008         u2080:
  4816  001088                     	
  4817                           l2417:; BSR set to: 0
  4818  001088                     
  4819                           	movlw	high(02Bh)
  4820  001088  0E00               	movwf	((_dtoa$347+1))&0ffh
  4821  00108A  6FAE               	movlw	low(02Bh)
  4822  00108C  0E2B               	movwf	((_dtoa$347))&0ffh
  4823  00108E  6FAD               	goto	l2421
  4824  001090  EF50  F008         	
  4825                           l249:; BSR set to: 0
  4826  001094                     
  4827                           	
  4828                           l2419:; BSR set to: 0
  4829  001094                     
  4830                           	movlw	high(02Dh)
  4831  001094  0E00               	movwf	((_dtoa$347+1))&0ffh
  4832  001096  6FAE               	movlw	low(02Dh)
  4833  001098  0E2D               	movwf	((_dtoa$347))&0ffh
  4834  00109A  6FAD               	goto	l2421
  4835  00109C  EF50  F008         	
  4836                           l251:; BSR set to: 0
  4837  0010A0                     
  4838                           	
  4839                           l2421:; BSR set to: 0
  4840  0010A0                     
  4841                           	movlw	low(_dbuf)
  4842  0010A0  0E00               	addwf	((dtoa@i))&0ffh,w
  4843  0010A2  25BD               	movwf	c:fsr2l
  4844  0010A4  6ED9               	movlw	high(_dbuf)
  4845  0010A6  0E01               	addwfc	((dtoa@i+1))&0ffh,w
  4846  0010A8  21BE               	movwf	1+c:fsr2l
  4847  0010AA  6EDA               	movff	(_dtoa$347),indf2
  4848  0010AC  C0AD  FFDF         
  4849                           	goto	l2423
  4850  0010B0  EF5A  F008         	line	311
  4851                           ;E:\ProgramasWindowns\Microchip\xc8\v2.00\pic\sources\c99\common\doprnt.c: 311:     }
  4852                           	
  4853                           l245:; BSR set to: 0
  4854  0010B4                     
  4855                           	line	314
  4856                           	
  4857                           l2423:; BSR set to: 0
  4858  0010B4                     
  4859                           ;E:\ProgramasWindowns\Microchip\xc8\v2.00\pic\sources\c99\common\doprnt.c: 314:     retu
                                 rn pad(fp, &dbuf[i], w);
  4860                           		movff	(dtoa@fp),(pad@fp)
  4861  0010B4  C09B  F090         	movff	(dtoa@fp+1),(pad@fp+1)
  4862  0010B8  C09C  F091         
  4863                           	movlw	low(_dbuf)
  4864  0010BC  0E00               	addwf	((dtoa@i))&0ffh,w
  4865  0010BE  25BD               	movwf	((pad@buf))&0ffh
  4866  0010C0  6F92               	movlw	high(_dbuf)
  4867  0010C2  0E01               	addwfc	((dtoa@i+1))&0ffh,w
  4868  0010C4  21BE               	movwf	1+((pad@buf))&0ffh
  4869  0010C6  6F93               	movff	(dtoa@w),(pad@p)
  4870  0010C8  C0B1  F094         	movff	(dtoa@w+1),(pad@p+1)
  4871  0010CC  C0B2  F095         	call	_pad	;wreg free
  4872  0010D0  EC34  F011         	movff	0+?_pad,(?_dtoa)
  4873  0010D4  C090  F09B         	movff	1+?_pad,(?_dtoa+1)
  4874  0010D8  C091  F09C         	goto	l252
  4875  0010DC  EF70  F008         	
  4876                           l2425:
  4877  0010E0                     	line	315
  4878                           	
  4879                           l252:
  4880  0010E0                     	return	;funcret
  4881  0010E0  0012               	opt stack 0
  4882                           GLOBAL	__end_of_dtoa
  4883                           	__end_of_dtoa:
  4884  0010E2                     	signat	_dtoa,8314
  4885                           	global	_pad
  4886                           
  4887 ;; *************** function _pad *****************
  4888 ;; Defined at:
  4889 ;;		line 72 in file "E:\ProgramasWindowns\Microchip\xc8\v2.00\pic\sources\c99\common\doprnt.c"
  4890 ;; Parameters:    Size  Location     Type
  4891 ;;  fp              2   16[BANK0 ] PTR struct _IO_FILE
  4892 ;;		 -> sprintf@f(6), 
  4893 ;;  buf             2   18[BANK0 ] PTR unsigned char 
  4894 ;;		 -> dbuf(32), 
  4895 ;;  p               2   20[BANK0 ] int 
  4896 ;; Auto vars:     Size  Location     Type
  4897 ;;  w               2   25[BANK0 ] int 
  4898 ;;  i               2   23[BANK0 ] int 
  4899 ;; Return value:  Size  Location     Type
  4900 ;;                  2   16[BANK0 ] int 
  4901 ;; Registers used:
  4902 ;;		wreg, fsr1l, fsr1h, fsr2l, fsr2h, status,2, status,0, cstack
  4903 ;; Tracked objects:
  4904 ;;		On entry : 0/0
  4905 ;;		On exit  : 0/0
  4906 ;;		Unchanged: 0/0
  4907 ;; Data sizes:     COMRAM   BANK0   BANK1   BANK2   BANK3   BANK4   BANK5
  4908 ;;      Params:         0       6       0       0       0       0       0
  4909 ;;      Locals:         0       4       0       0       0       0       0
  4910 ;;      Temps:          0       1       0       0       0       0       0
  4911 ;;      Totals:         0      11       0       0       0       0       0
  4912 ;;Total ram usage:       11 bytes
  4913 ;; Hardware stack levels used:    1
  4914 ;; Hardware stack levels required when called:   14
  4915 ;; This function calls:
  4916 ;;		_fputc
  4917 ;;		_fputs
  4918 ;;		_strlen
  4919 ;; This function is called by:
  4920 ;;		_dtoa
  4921 ;; This function uses a non-reentrant model
  4922 ;;
  4923                           psect	text8,class=CODE,space=0,reloc=2,group=0
  4924                           	line	72
  4925                           global __ptext8
  4926                           __ptext8:
  4927  002268                     psect	text8
  4928                           	file	"E:\ProgramasWindowns\Microchip\xc8\v2.00\pic\sources\c99\common\doprnt.c"
  4929                           	line	72
  4930                           	global	__size_of_pad
  4931                           	__size_of_pad	equ	__end_of_pad-_pad
  4932  0000                     	
  4933                           _pad:
  4934  002268                     ;incstack = 0
  4935                           	opt	stack 10
  4936                           	line	77
  4937                           	
  4938                           l2153:
  4939  002268                     ;E:\ProgramasWindowns\Microchip\xc8\v2.00\pic\sources\c99\common\doprnt.c: 72: static in
                                 t pad(FILE *fp, char *buf, int p);E:\ProgramasWindowns\Microchip\xc8\v2.00\pic\sources\c
                                 99\common\doprnt.c: 73: {;E:\ProgramasWindowns\Microchip\xc8\v2.00\pic\sources\c99\commo
                                 n\doprnt.c: 74:     int i, w;;E:\ProgramasWindowns\Microchip\xc8\v2.00\pic\sources\c99\c
                                 ommon\doprnt.c: 77:     if (flags & (1 << 0)) {
  4940                           	movlb	0	; () banked
  4941  002268  0100               	
  4942                           	btfss	((_flags))&0ffh,(0)&7
  4943  00226A  A1F2               	goto	u1581
  4944  00226C  EF3A  F011         	goto	u1580
  4945  002270  EF3C  F011         u1581:
  4946  002274                     	goto	l2157
  4947  002274  EF48  F011         u1580:
  4948  002278                     	line	78
  4949                           	
  4950                           l2155:; BSR set to: 0
  4951  002278                     
  4952                           ;E:\ProgramasWindowns\Microchip\xc8\v2.00\pic\sources\c99\common\doprnt.c: 78:         f
                                 puts((const char *)buf, fp);
  4953                           		movff	(pad@buf),(fputs@s)
  4954  002278  C092  F089         	movff	(pad@buf+1),(fputs@s+1)
  4955  00227C  C093  F08A         
  4956                           		movff	(pad@fp),(fputs@fp)
  4957  002280  C090  F08B         	movff	(pad@fp+1),(fputs@fp+1)
  4958  002284  C091  F08C         
  4959                           	call	_fputs	;wreg free
  4960  002288  EC4C  F014         	goto	l2157
  4961  00228C  EF48  F011         	line	79
  4962                           ;E:\ProgramasWindowns\Microchip\xc8\v2.00\pic\sources\c99\common\doprnt.c: 79:     }
  4963                           	
  4964                           l217:
  4965  002290                     	line	82
  4966                           	
  4967                           l2157:
  4968  002290                     ;E:\ProgramasWindowns\Microchip\xc8\v2.00\pic\sources\c99\common\doprnt.c: 82:     w = (
                                 p < 0) ? 0 : p;
  4969                           	movlb	0	; () banked
  4970  002290  0100               	btfsc	((pad@p+1))&0ffh,7
  4971  002292  BF95               	goto	u1591
  4972  002294  EF4E  F011         	goto	u1590
  4973  002298  EF50  F011         
  4974                           u1591:
  4975  00229C                     	goto	l2161
  4976  00229C  EF56  F011         u1590:
  4977  0022A0                     	
  4978                           l2159:; BSR set to: 0
  4979  0022A0                     
  4980                           	movff	(pad@p),(pad@w)
  4981  0022A0  C094  F099         	movff	(pad@p+1),(pad@w+1)
  4982  0022A4  C095  F09A         	goto	l221
  4983  0022A8  EF5A  F011         	
  4984                           l219:; BSR set to: 0
  4985  0022AC                     
  4986                           	
  4987                           l2161:; BSR set to: 0
  4988  0022AC                     
  4989                           	movlw	high(0)
  4990  0022AC  0E00               	movwf	((pad@w+1))&0ffh
  4991  0022AE  6F9A               	movlw	low(0)
  4992  0022B0  0E00               	movwf	((pad@w))&0ffh
  4993  0022B2  6F99               	
  4994                           l221:; BSR set to: 0
  4995  0022B4                     
  4996                           	line	83
  4997                           ;E:\ProgramasWindowns\Microchip\xc8\v2.00\pic\sources\c99\common\doprnt.c: 83:     i = 0
                                 ;
  4998                           	movlw	high(0)
  4999  0022B4  0E00               	movwf	((pad@i+1))&0ffh
  5000  0022B6  6F98               	movlw	low(0)
  5001  0022B8  0E00               	movwf	((pad@i))&0ffh
  5002  0022BA  6F97               	line	84
  5003                           ;E:\ProgramasWindowns\Microchip\xc8\v2.00\pic\sources\c99\common\doprnt.c: 84:     while
                                  (i < w) {
  5004                           	goto	l2167
  5005  0022BC  EF6F  F011         	
  5006                           l223:; BSR set to: 0
  5007  0022C0                     
  5008                           	line	85
  5009                           	
  5010                           l2163:; BSR set to: 0
  5011  0022C0                     
  5012                           ;E:\ProgramasWindowns\Microchip\xc8\v2.00\pic\sources\c99\common\doprnt.c: 85:         f
                                 putc(' ', fp);
  5013                           	movlw	high(020h)
  5014  0022C0  0E00               	movwf	((fputc@c+1))&0ffh
  5015  0022C2  6F81               	movlw	low(020h)
  5016  0022C4  0E20               	movwf	((fputc@c))&0ffh
  5017  0022C6  6F80               		movff	(pad@fp),(fputc@fp)
  5018  0022C8  C090  F082         	movff	(pad@fp+1),(fputc@fp+1)
  5019  0022CC  C091  F083         
  5020                           	call	_fputc	;wreg free
  5021  0022D0  EC54  F010         	line	86
  5022                           	
  5023                           l2165:
  5024  0022D4                     ;E:\ProgramasWindowns\Microchip\xc8\v2.00\pic\sources\c99\common\doprnt.c: 86:         +
                                 +i;
  5025                           	movlb	0	; () banked
  5026  0022D4  0100               	infsnz	((pad@i))&0ffh
  5027  0022D6  4B97               	incf	((pad@i+1))&0ffh
  5028  0022D8  2B98               	goto	l2167
  5029  0022DA  EF6F  F011         	line	87
  5030                           ;E:\ProgramasWindowns\Microchip\xc8\v2.00\pic\sources\c99\common\doprnt.c: 87:     }
  5031                           	
  5032                           l222:; BSR set to: 0
  5033  0022DE                     
  5034                           	line	84
  5035                           	
  5036                           l2167:; BSR set to: 0
  5037  0022DE                     
  5038                           ;E:\ProgramasWindowns\Microchip\xc8\v2.00\pic\sources\c99\common\doprnt.c: 84:     while
                                  (i < w) {
  5039                           		movf	((pad@w))&0ffh,w
  5040  0022DE  5199               	subwf	((pad@i))&0ffh,w
  5041  0022E0  5D97               	movf	((pad@i+1))&0ffh,w
  5042  0022E2  5198               	xorlw	80h
  5043  0022E4  0A80               	movwf	(??_pad+0+0)&0ffh
  5044  0022E6  6F96               	movf	((pad@w+1))&0ffh,w
  5045  0022E8  519A               	xorlw	80h
  5046  0022EA  0A80               	subwfb	(??_pad+0+0)&0ffh,w
  5047  0022EC  5996               	btfss	status,0
  5048  0022EE  A0D8               	goto	u1601
  5049  0022F0  EF7C  F011         	goto	u1600
  5050  0022F4  EF7E  F011         
  5051                           u1601:
  5052  0022F8                     	goto	l2163
  5053  0022F8  EF60  F011         u1600:
  5054  0022FC                     	
  5055                           l224:; BSR set to: 0
  5056  0022FC                     
  5057                           	line	90
  5058                           ;E:\ProgramasWindowns\Microchip\xc8\v2.00\pic\sources\c99\common\doprnt.c: 90:     if (!
                                 (flags & (1 << 0))) {
  5059                           	
  5060                           	btfsc	((_flags))&0ffh,(0)&7
  5061  0022FC  B1F2               	goto	u1611
  5062  0022FE  EF83  F011         	goto	u1610
  5063  002302  EF85  F011         u1611:
  5064  002306                     	goto	l2171
  5065  002306  EF91  F011         u1610:
  5066  00230A                     	line	91
  5067                           	
  5068                           l2169:; BSR set to: 0
  5069  00230A                     
  5070                           ;E:\ProgramasWindowns\Microchip\xc8\v2.00\pic\sources\c99\common\doprnt.c: 91:         f
                                 puts((const char *)buf, fp);
  5071                           		movff	(pad@buf),(fputs@s)
  5072  00230A  C092  F089         	movff	(pad@buf+1),(fputs@s+1)
  5073  00230E  C093  F08A         
  5074                           		movff	(pad@fp),(fputs@fp)
  5075  002312  C090  F08B         	movff	(pad@fp+1),(fputs@fp+1)
  5076  002316  C091  F08C         
  5077                           	call	_fputs	;wreg free
  5078  00231A  EC4C  F014         	goto	l2171
  5079  00231E  EF91  F011         	line	92
  5080                           ;E:\ProgramasWindowns\Microchip\xc8\v2.00\pic\sources\c99\common\doprnt.c: 92:     }
  5081                           	
  5082                           l225:
  5083  002322                     	line	94
  5084                           	
  5085                           l2171:
  5086  002322                     ;E:\ProgramasWindowns\Microchip\xc8\v2.00\pic\sources\c99\common\doprnt.c: 94:     retur
                                 n strlen(buf) + w;
  5087                           		movff	(pad@buf),(strlen@s)
  5088  002322  C092  F080         	movff	(pad@buf+1),(strlen@s+1)
  5089  002326  C093  F081         
  5090                           	call	_strlen	;wreg free
  5091  00232A  ECF8  F013         	movlb	0	; () banked
  5092  00232E  0100               	movf	((pad@w))&0ffh,w
  5093  002330  5199               	addwf	(0+?_strlen)&0ffh,w
  5094  002332  2580               	movwf	((?_pad))&0ffh
  5095  002334  6F90               	movf	((pad@w+1))&0ffh,w
  5096  002336  519A               	addwfc	(1+?_strlen)&0ffh,w
  5097  002338  2181               	movwf	1+((?_pad))&0ffh
  5098  00233A  6F91               	goto	l226
  5099  00233C  EFA0  F011         	
  5100                           l2173:; BSR set to: 0
  5101  002340                     
  5102                           	line	95
  5103                           	
  5104                           l226:; BSR set to: 0
  5105  002340                     
  5106                           	return	;funcret
  5107  002340  0012               	opt stack 0
  5108                           GLOBAL	__end_of_pad
  5109                           	__end_of_pad:
  5110  002342                     	signat	_pad,12410
  5111                           	global	_strlen
  5112                           
  5113 ;; *************** function _strlen *****************
  5114 ;; Defined at:
  5115 ;;		line 12 in file "E:\ProgramasWindowns\Microchip\xc8\v2.00\pic\sources\c99\common\strlen.c"
  5116 ;; Parameters:    Size  Location     Type
  5117 ;;  s               2    0[BANK0 ] PTR const unsigned char 
  5118 ;;		 -> dbuf(32), 
  5119 ;; Auto vars:     Size  Location     Type
  5120 ;;  a               2    4[BANK0 ] PTR const unsigned char 
  5121 ;;		 -> dbuf(32), 
  5122 ;; Return value:  Size  Location     Type
  5123 ;;                  2    0[BANK0 ] unsigned int 
  5124 ;; Registers used:
  5125 ;;		wreg, fsr2l, fsr2h, status,2, status,0
  5126 ;; Tracked objects:
  5127 ;;		On entry : 0/0
  5128 ;;		On exit  : 0/0
  5129 ;;		Unchanged: 0/0
  5130 ;; Data sizes:     COMRAM   BANK0   BANK1   BANK2   BANK3   BANK4   BANK5
  5131 ;;      Params:         0       2       0       0       0       0       0
  5132 ;;      Locals:         0       2       0       0       0       0       0
  5133 ;;      Temps:          0       2       0       0       0       0       0
  5134 ;;      Totals:         0       6       0       0       0       0       0
  5135 ;;Total ram usage:        6 bytes
  5136 ;; Hardware stack levels used:    1
  5137 ;; Hardware stack levels required when called:   11
  5138 ;; This function calls:
  5139 ;;		Nothing
  5140 ;; This function is called by:
  5141 ;;		_pad
  5142 ;; This function uses a non-reentrant model
  5143 ;;
  5144                           psect	text9,class=CODE,space=0,reloc=2,group=2
  5145                           	file	"E:\ProgramasWindowns\Microchip\xc8\v2.00\pic\sources\c99\common\strlen.c"
  5146                           	line	12
  5147                           global __ptext9
  5148                           __ptext9:
  5149  0027F0                     psect	text9
  5150                           	file	"E:\ProgramasWindowns\Microchip\xc8\v2.00\pic\sources\c99\common\strlen.c"
  5151                           	line	12
  5152                           	global	__size_of_strlen
  5153                           	__size_of_strlen	equ	__end_of_strlen-_strlen
  5154  0000                     	
  5155                           _strlen:; BSR set to: 0
  5156  0027F0                     
  5157                           ;incstack = 0
  5158                           	opt	stack 12
  5159                           	line	14
  5160                           	
  5161                           l2125:
  5162  0027F0                     		movff	(strlen@s),(strlen@a)
  5163  0027F0  C080  F084         	movff	(strlen@s+1),(strlen@a+1)
  5164  0027F4  C081  F085         
  5165                           	line	16
  5166                           	goto	l2129
  5167  0027F8  EF03  F014         	
  5168                           l981:
  5169  0027FC                     	line	17
  5170                           	
  5171                           l2127:
  5172  0027FC                     	movlb	0	; () banked
  5173  0027FC  0100               	infsnz	((strlen@s))&0ffh
  5174  0027FE  4B80               	incf	((strlen@s+1))&0ffh
  5175  002800  2B81               	goto	l2129
  5176  002802  EF03  F014         	line	18
  5177                           	
  5178                           l980:; BSR set to: 0
  5179  002806                     
  5180                           	line	16
  5181                           	
  5182                           l2129:
  5183  002806                     	movff	(strlen@s),fsr2l
  5184  002806  C080  FFD9         	movff	(strlen@s+1),fsr2h
  5185  00280A  C081  FFDA         	movf	indf2,w
  5186  00280E  50DF               	btfss	status,2
  5187  002810  A4D8               	goto	u1551
  5188  002812  EF0D  F014         	goto	u1550
  5189  002816  EF0F  F014         u1551:
  5190  00281A                     	goto	l2127
  5191  00281A  EFFE  F013         u1550:
  5192  00281E                     	goto	l2131
  5193  00281E  EF11  F014         	
  5194                           l982:
  5195  002822                     	line	25
  5196                           	
  5197                           l2131:
  5198  002822                     	movff	(strlen@a),??_strlen+0+0
  5199  002822  C084  F082         	movff	(strlen@a+1),??_strlen+0+0+1
  5200  002826  C085  F083         	movlb	0	; () banked
  5201  00282A  0100               	comf	(??_strlen+0+0)&0ffh
  5202  00282C  1F82               	comf	(??_strlen+0+1)&0ffh
  5203  00282E  1F83               	infsnz	(??_strlen+0+0)&0ffh
  5204  002830  4B82               	incf	(??_strlen+0+1)&0ffh
  5205  002832  2B83               	movf	((strlen@s))&0ffh,w
  5206  002834  5180               	addwf	(??_strlen+0+0)&0ffh,w
  5207  002836  2582               	movwf	((?_strlen))&0ffh
  5208  002838  6F80               	movf	((strlen@s+1))&0ffh,w
  5209  00283A  5181               	addwfc	(??_strlen+0+1)&0ffh,w
  5210  00283C  2183               	movwf	1+((?_strlen))&0ffh
  5211  00283E  6F81               	goto	l983
  5212  002840  EF22  F014         	
  5213                           l2133:; BSR set to: 0
  5214  002844                     
  5215                           	line	26
  5216                           	
  5217                           l983:; BSR set to: 0
  5218  002844                     
  5219                           	return	;funcret
  5220  002844  0012               	opt stack 0
  5221                           GLOBAL	__end_of_strlen
  5222                           	__end_of_strlen:
  5223  002846                     	signat	_strlen,4218
  5224                           	global	_fputs
  5225                           
  5226 ;; *************** function _fputs *****************
  5227 ;; Defined at:
  5228 ;;		line 8 in file "E:\ProgramasWindowns\Microchip\xc8\v2.00\pic\sources\c99\common\nf_fputs.c"
  5229 ;; Parameters:    Size  Location     Type
  5230 ;;  s               2    9[BANK0 ] PTR const unsigned char 
  5231 ;;		 -> dbuf(32), 
  5232 ;;  fp              2   11[BANK0 ] PTR struct _IO_FILE
  5233 ;;		 -> sprintf@f(6), 
  5234 ;; Auto vars:     Size  Location     Type
  5235 ;;  i               2   14[BANK0 ] int 
  5236 ;;  c               1   13[BANK0 ] unsigned char 
  5237 ;; Return value:  Size  Location     Type
  5238 ;;                  2    9[BANK0 ] int 
  5239 ;; Registers used:
  5240 ;;		wreg, fsr1l, fsr1h, fsr2l, fsr2h, status,2, status,0, cstack
  5241 ;; Tracked objects:
  5242 ;;		On entry : 0/0
  5243 ;;		On exit  : 0/0
  5244 ;;		Unchanged: 0/0
  5245 ;; Data sizes:     COMRAM   BANK0   BANK1   BANK2   BANK3   BANK4   BANK5
  5246 ;;      Params:         0       4       0       0       0       0       0
  5247 ;;      Locals:         0       3       0       0       0       0       0
  5248 ;;      Temps:          0       0       0       0       0       0       0
  5249 ;;      Totals:         0       7       0       0       0       0       0
  5250 ;;Total ram usage:        7 bytes
  5251 ;; Hardware stack levels used:    1
  5252 ;; Hardware stack levels required when called:   13
  5253 ;; This function calls:
  5254 ;;		_fputc
  5255 ;; This function is called by:
  5256 ;;		_pad
  5257 ;; This function uses a non-reentrant model
  5258 ;;
  5259                           psect	text10,class=CODE,space=0,reloc=2,group=2
  5260                           	file	"E:\ProgramasWindowns\Microchip\xc8\v2.00\pic\sources\c99\common\nf_fputs.c"
  5261                           	line	8
  5262                           global __ptext10
  5263                           __ptext10:
  5264  002898                     psect	text10
  5265                           	file	"E:\ProgramasWindowns\Microchip\xc8\v2.00\pic\sources\c99\common\nf_fputs.c"
  5266                           	line	8
  5267                           	global	__size_of_fputs
  5268                           	__size_of_fputs	equ	__end_of_fputs-_fputs
  5269  0000                     	
  5270                           _fputs:; BSR set to: 0
  5271  002898                     
  5272                           ;incstack = 0
  5273                           	opt	stack 10
  5274                           	line	13
  5275                           	
  5276                           l2117:
  5277  002898                     	movlw	high(0)
  5278  002898  0E00               	movlb	0	; () banked
  5279  00289A  0100               	movwf	((fputs@i+1))&0ffh
  5280  00289C  6F8F               	movlw	low(0)
  5281  00289E  0E00               	movwf	((fputs@i))&0ffh
  5282  0028A0  6F8E               	line	14
  5283                           	goto	l2123
  5284  0028A2  EF61  F014         	
  5285                           l965:; BSR set to: 0
  5286  0028A6                     
  5287                           	line	15
  5288                           	
  5289                           l2119:; BSR set to: 0
  5290  0028A6                     
  5291                           	movff	(fputs@c),(fputc@c)
  5292  0028A6  C08D  F080         	clrf	((fputc@c+1))&0ffh
  5293  0028AA  6B81               		movff	(fputs@fp),(fputc@fp)
  5294  0028AC  C08B  F082         	movff	(fputs@fp+1),(fputc@fp+1)
  5295  0028B0  C08C  F083         
  5296                           	call	_fputc	;wreg free
  5297  0028B4  EC54  F010         	line	16
  5298                           	
  5299                           l2121:
  5300  0028B8                     	movlb	0	; () banked
  5301  0028B8  0100               	infsnz	((fputs@i))&0ffh
  5302  0028BA  4B8E               	incf	((fputs@i+1))&0ffh
  5303  0028BC  2B8F               	goto	l2123
  5304  0028BE  EF61  F014         	line	17
  5305                           	
  5306                           l964:; BSR set to: 0
  5307  0028C2                     
  5308                           	line	14
  5309                           	
  5310                           l2123:; BSR set to: 0
  5311  0028C2                     
  5312                           	movf	((fputs@i))&0ffh,w
  5313  0028C2  518E               	addwf	((fputs@s))&0ffh,w
  5314  0028C4  2589               	movwf	c:fsr2l
  5315  0028C6  6ED9               	movf	((fputs@i+1))&0ffh,w
  5316  0028C8  518F               	addwfc	((fputs@s+1))&0ffh,w
  5317  0028CA  218A               	movwf	1+c:fsr2l
  5318  0028CC  6EDA               	movf	indf2,w
  5319  0028CE  50DF               	movwf	((fputs@c))&0ffh
  5320  0028D0  6F8D               	movf	((fputs@c))&0ffh,w
  5321  0028D2  518D               	btfss	status,2
  5322  0028D4  A4D8               	goto	u1541
  5323  0028D6  EF6F  F014         	goto	u1540
  5324  0028DA  EF71  F014         u1541:
  5325  0028DE                     	goto	l2119
  5326  0028DE  EF53  F014         u1540:
  5327  0028E2                     	goto	l967
  5328  0028E2  EF73  F014         	
  5329                           l966:; BSR set to: 0
  5330  0028E6                     
  5331                           	line	19
  5332                           ;	Return value of _fputs is never used
  5333                           	
  5334                           l967:; BSR set to: 0
  5335  0028E6                     
  5336                           	return	;funcret
  5337  0028E6  0012               	opt stack 0
  5338                           GLOBAL	__end_of_fputs
  5339                           	__end_of_fputs:
  5340  0028E8                     	signat	_fputs,8314
  5341                           	global	_fputc
  5342                           
  5343 ;; *************** function _fputc *****************
  5344 ;; Defined at:
  5345 ;;		line 8 in file "E:\ProgramasWindowns\Microchip\xc8\v2.00\pic\sources\c99\common\nf_fputc.c"
  5346 ;; Parameters:    Size  Location     Type
  5347 ;;  c               2    0[BANK0 ] int 
  5348 ;;  fp              2    2[BANK0 ] PTR struct _IO_FILE
  5349 ;;		 -> sprintf@f(6), 
  5350 ;; Auto vars:     Size  Location     Type
  5351 ;;		None
  5352 ;; Return value:  Size  Location     Type
  5353 ;;                  2    0[BANK0 ] int 
  5354 ;; Registers used:
  5355 ;;		wreg, fsr1l, fsr1h, fsr2l, fsr2h, status,2, status,0, cstack
  5356 ;; Tracked objects:
  5357 ;;		On entry : 0/0
  5358 ;;		On exit  : 0/0
  5359 ;;		Unchanged: 0/0
  5360 ;; Data sizes:     COMRAM   BANK0   BANK1   BANK2   BANK3   BANK4   BANK5
  5361 ;;      Params:         0       4       0       0       0       0       0
  5362 ;;      Locals:         0       0       0       0       0       0       0
  5363 ;;      Temps:          0       5       0       0       0       0       0
  5364 ;;      Totals:         0       9       0       0       0       0       0
  5365 ;;Total ram usage:        9 bytes
  5366 ;; Hardware stack levels used:    1
  5367 ;; Hardware stack levels required when called:   12
  5368 ;; This function calls:
  5369 ;;		_putch
  5370 ;; This function is called by:
  5371 ;;		_pad
  5372 ;;		_vfpfcnvrt
  5373 ;;		_fputs
  5374 ;; This function uses a non-reentrant model
  5375 ;;
  5376                           psect	text11,class=CODE,space=0,reloc=2,group=2
  5377                           	file	"E:\ProgramasWindowns\Microchip\xc8\v2.00\pic\sources\c99\common\nf_fputc.c"
  5378                           	line	8
  5379                           global __ptext11
  5380                           __ptext11:
  5381  0020A8                     psect	text11
  5382                           	file	"E:\ProgramasWindowns\Microchip\xc8\v2.00\pic\sources\c99\common\nf_fputc.c"
  5383                           	line	8
  5384                           	global	__size_of_fputc
  5385                           	__size_of_fputc	equ	__end_of_fputc-_fputc
  5386  0000                     	
  5387                           _fputc:; BSR set to: 0
  5388  0020A8                     
  5389                           ;incstack = 0
  5390                           	opt	stack 13
  5391                           	line	12
  5392                           	
  5393                           l2089:
  5394  0020A8                     	movlb	0	; () banked
  5395  0020A8  0100               	movf	((fputc@fp))&0ffh,w
  5396  0020AA  5182               iorwf	((fputc@fp+1))&0ffh,w
  5397  0020AC  1183               	btfsc	status,2
  5398  0020AE  B4D8               	goto	u1461
  5399  0020B0  EF5C  F010         	goto	u1460
  5400  0020B4  EF5E  F010         
  5401                           u1461:
  5402  0020B8                     	goto	l2093
  5403  0020B8  EF69  F010         u1460:
  5404  0020BC                     	
  5405                           l2091:; BSR set to: 0
  5406  0020BC                     
  5407                           	movf	((fputc@fp))&0ffh,w
  5408  0020BC  5182               iorwf	((fputc@fp+1))&0ffh,w
  5409  0020BE  1183               	btfss	status,2
  5410  0020C0  A4D8               	goto	u1471
  5411  0020C2  EF65  F010         	goto	u1470
  5412  0020C6  EF67  F010         
  5413                           u1471:
  5414  0020CA                     	goto	l2095
  5415  0020CA  EF6E  F010         u1470:
  5416  0020CE                     	goto	l2093
  5417  0020CE  EF69  F010         	
  5418                           l954:; BSR set to: 0
  5419  0020D2                     
  5420                           	line	13
  5421                           	
  5422                           l2093:; BSR set to: 0
  5423  0020D2                     
  5424                           	movf	((fputc@c))&0ffh,w
  5425  0020D2  5180               	
  5426                           	call	_putch
  5427  0020D4  ECC4  F015         	line	14
  5428                           	goto	l959
  5429  0020D8  EFC4  F010         	
  5430                           l952:
  5431  0020DC                     	line	15
  5432                           	
  5433                           l2095:
  5434  0020DC                     	movlb	0	; () banked
  5435  0020DC  0100               	lfsr	2,04h
  5436  0020DE  EE20 F004          	movf	((fputc@fp))&0ffh,w
  5437  0020E2  5182               	addwf	fsr2l
  5438  0020E4  26D9               	movf	((fputc@fp+1))&0ffh,w
  5439  0020E6  5183               	addwfc	fsr2h
  5440  0020E8  22DA               	movf	postinc2,w
  5441  0020EA  50DE               iorwf	postinc2,w
  5442  0020EC  10DE               	btfsc	status,2
  5443  0020EE  B4D8               	goto	u1481
  5444  0020F0  EF7C  F010         	goto	u1480
  5445  0020F4  EF7E  F010         
  5446                           u1481:
  5447  0020F8                     	goto	l2099
  5448  0020F8  EF9B  F010         u1480:
  5449  0020FC                     	
  5450                           l2097:; BSR set to: 0
  5451  0020FC                     
  5452                           	lfsr	2,04h
  5453  0020FC  EE20 F004          	movf	((fputc@fp))&0ffh,w
  5454  002100  5182               	addwf	fsr2l
  5455  002102  26D9               	movf	((fputc@fp+1))&0ffh,w
  5456  002104  5183               	addwfc	fsr2h
  5457  002106  22DA               	lfsr	1,02h
  5458  002108  EE10 F002          	movf	((fputc@fp))&0ffh,w
  5459  00210C  5182               	addwf	fsr1l
  5460  00210E  26E1               	movf	((fputc@fp+1))&0ffh,w
  5461  002110  5183               	addwfc	fsr1h
  5462  002112  22E2               		movf	postinc2,w
  5463  002114  50DE               	subwf	postinc1,w
  5464  002116  5CE6               	movf	postinc1,w
  5465  002118  50E6               	xorlw	80h
  5466  00211A  0A80               	movwf	(??_fputc+4+0)&0ffh
  5467  00211C  6F88               	movf	postinc2,w
  5468  00211E  50DE               	xorlw	80h
  5469  002120  0A80               	subwfb	(??_fputc+4+0)&0ffh,w
  5470  002122  5988               	btfsc	status,0
  5471  002124  B0D8               	goto	u1491
  5472  002126  EF97  F010         	goto	u1490
  5473  00212A  EF99  F010         
  5474                           u1491:
  5475  00212E                     	goto	l959
  5476  00212E  EFC4  F010         u1490:
  5477  002132                     	goto	l2099
  5478  002132  EF9B  F010         	
  5479                           l958:; BSR set to: 0
  5480  002136                     
  5481                           	line	16
  5482                           	
  5483                           l2099:; BSR set to: 0
  5484  002136                     
  5485                           	lfsr	2,02h
  5486  002136  EE20 F002          	movf	((fputc@fp))&0ffh,w
  5487  00213A  5182               	addwf	fsr2l
  5488  00213C  26D9               	movf	((fputc@fp+1))&0ffh,w
  5489  00213E  5183               	addwfc	fsr2h
  5490  002140  22DA               	movff	postinc2,??_fputc+0+0
  5491  002142  CFDE F084          	movff	postdec2,??_fputc+0+0+1
  5492  002146  CFDD F085          	movff	(fputc@fp),fsr2l
  5493  00214A  C082  FFD9         	movff	(fputc@fp+1),fsr2h
  5494  00214E  C083  FFDA         	movff	postinc2,??_fputc+2+0
  5495  002152  CFDE F086          	movff	postdec2,??_fputc+2+0+1
  5496  002156  CFDD F087          	movf	(??_fputc+0+0)&0ffh,w
  5497  00215A  5184               	addwf	(??_fputc+2+0)&0ffh,w
  5498  00215C  2586               	movwf	c:fsr2l
  5499  00215E  6ED9               	movf	(??_fputc+0+1)&0ffh,w
  5500  002160  5185               	addwfc	(??_fputc+2+1)&0ffh,w
  5501  002162  2187               	movwf	1+c:fsr2l
  5502  002164  6EDA               	movff	(fputc@c),indf2
  5503  002166  C080  FFDF         
  5504                           	line	17
  5505                           	lfsr	2,02h
  5506  00216A  EE20 F002          	movf	((fputc@fp))&0ffh,w
  5507  00216E  5182               	addwf	fsr2l
  5508  002170  26D9               	movf	((fputc@fp+1))&0ffh,w
  5509  002172  5183               	addwfc	fsr2h
  5510  002174  22DA               	incf	postinc2
  5511  002176  2ADE               	movlw	0
  5512  002178  0E00               	addwfc	postdec2
  5513  00217A  22DD               	goto	l959
  5514  00217C  EFC4  F010         	line	18
  5515                           	
  5516                           l956:; BSR set to: 0
  5517  002180                     
  5518                           	goto	l959
  5519  002180  EFC4  F010         	line	19
  5520                           	
  5521                           l955:; BSR set to: 0
  5522  002184                     
  5523                           	goto	l959
  5524  002184  EFC4  F010         	line	20
  5525                           	
  5526                           l2101:; BSR set to: 0
  5527  002188                     
  5528                           	line	21
  5529                           ;	Return value of _fputc is never used
  5530                           	
  5531                           l959:
  5532  002188                     	return	;funcret
  5533  002188  0012               	opt stack 0
  5534                           GLOBAL	__end_of_fputc
  5535                           	__end_of_fputc:
  5536  00218A                     	signat	_fputc,8314
  5537                           	global	_putch
  5538                           
  5539 ;; *************** function _putch *****************
  5540 ;; Defined at:
  5541 ;;		line 7 in file "E:\ProgramasWindowns\Microchip\xc8\v2.00\pic\sources\c99\common\putch.c"
  5542 ;; Parameters:    Size  Location     Type
  5543 ;;  c               1    wreg     unsigned char 
  5544 ;; Auto vars:     Size  Location     Type
  5545 ;;  c               1    0[COMRAM] unsigned char 
  5546 ;; Return value:  Size  Location     Type
  5547 ;;                  1    wreg      void 
  5548 ;; Registers used:
  5549 ;;		wreg
  5550 ;; Tracked objects:
  5551 ;;		On entry : 0/0
  5552 ;;		On exit  : 0/0
  5553 ;;		Unchanged: 0/0
  5554 ;; Data sizes:     COMRAM   BANK0   BANK1   BANK2   BANK3   BANK4   BANK5
  5555 ;;      Params:         0       0       0       0       0       0       0
  5556 ;;      Locals:         0       0       0       0       0       0       0
  5557 ;;      Temps:          0       0       0       0       0       0       0
  5558 ;;      Totals:         0       0       0       0       0       0       0
  5559 ;;Total ram usage:        0 bytes
  5560 ;; Hardware stack levels used:    1
  5561 ;; Hardware stack levels required when called:   11
  5562 ;; This function calls:
  5563 ;;		Nothing
  5564 ;; This function is called by:
  5565 ;;		_fputc
  5566 ;; This function uses a non-reentrant model
  5567 ;;
  5568                           psect	text12,class=CODE,space=0,reloc=2,group=2
  5569                           	file	"E:\ProgramasWindowns\Microchip\xc8\v2.00\pic\sources\c99\common\putch.c"
  5570                           	line	7
  5571                           global __ptext12
  5572                           __ptext12:
  5573  002B88                     psect	text12
  5574                           	file	"E:\ProgramasWindowns\Microchip\xc8\v2.00\pic\sources\c99\common\putch.c"
  5575                           	line	7
  5576                           	global	__size_of_putch
  5577                           	__size_of_putch	equ	__end_of_putch-_putch
  5578  0000                     	
  5579                           _putch:
  5580  002B88                     ;incstack = 0
  5581                           	opt	stack 13
  5582                           	line	9
  5583                           	
  5584                           l977:
  5585  002B88                     	return	;funcret
  5586  002B88  0012               	opt stack 0
  5587                           GLOBAL	__end_of_putch
  5588                           	__end_of_putch:
  5589  002B8A                     	signat	_putch,4217
  5590                           	global	_abs
  5591                           
  5592 ;; *************** function _abs *****************
  5593 ;; Defined at:
  5594 ;;		line 1 in file "E:\ProgramasWindowns\Microchip\xc8\v2.00\pic\sources\c99\common\abs.c"
  5595 ;; Parameters:    Size  Location     Type
  5596 ;;  a               2   18[BANK0 ] int 
  5597 ;; Auto vars:     Size  Location     Type
  5598 ;;		None
  5599 ;; Return value:  Size  Location     Type
  5600 ;;                  2   18[BANK0 ] int 
  5601 ;; Registers used:
  5602 ;;		wreg, status,2, status,0
  5603 ;; Tracked objects:
  5604 ;;		On entry : 0/0
  5605 ;;		On exit  : 0/0
  5606 ;;		Unchanged: 0/0
  5607 ;; Data sizes:     COMRAM   BANK0   BANK1   BANK2   BANK3   BANK4   BANK5
  5608 ;;      Params:         0       2       0       0       0       0       0
  5609 ;;      Locals:         0       0       0       0       0       0       0
  5610 ;;      Temps:          0       2       0       0       0       0       0
  5611 ;;      Totals:         0       4       0       0       0       0       0
  5612 ;;Total ram usage:        4 bytes
  5613 ;; Hardware stack levels used:    1
  5614 ;; Hardware stack levels required when called:   11
  5615 ;; This function calls:
  5616 ;;		Nothing
  5617 ;; This function is called by:
  5618 ;;		_dtoa
  5619 ;; This function uses a non-reentrant model
  5620 ;;
  5621                           psect	text13,class=CODE,space=0,reloc=2,group=2
  5622                           	file	"E:\ProgramasWindowns\Microchip\xc8\v2.00\pic\sources\c99\common\abs.c"
  5623                           	line	1
  5624                           global __ptext13
  5625                           __ptext13:
  5626  00297E                     psect	text13
  5627                           	file	"E:\ProgramasWindowns\Microchip\xc8\v2.00\pic\sources\c99\common\abs.c"
  5628                           	line	1
  5629                           	global	__size_of_abs
  5630                           	__size_of_abs	equ	__end_of_abs-_abs
  5631  0000                     	
  5632                           _abs:
  5633  00297E                     ;incstack = 0
  5634                           	opt	stack 13
  5635                           	line	3
  5636                           	
  5637                           l2175:
  5638  00297E                     	movlb	0	; () banked
  5639  00297E  0100               	btfsc	((abs@a+1))&0ffh,7
  5640  002980  BF93               	goto	u1620
  5641  002982  EFCD  F014         	movf	((abs@a+1))&0ffh,w
  5642  002986  5193               	bnz	u1621
  5643  002988  E106               	decf	((abs@a))&0ffh,w
  5644  00298A  0592               	btfsc	status,0
  5645  00298C  B0D8               	goto	u1621
  5646  00298E  EFCB  F014         	goto	u1620
  5647  002992  EFCD  F014         
  5648                           u1621:
  5649  002996                     	goto	l944
  5650  002996  EFDB  F014         u1620:
  5651  00299A                     	
  5652                           l2177:; BSR set to: 0
  5653  00299A                     
  5654                           	movff	(abs@a),??_abs+0+0
  5655  00299A  C092  F094         	movff	(abs@a+1),??_abs+0+0+1
  5656  00299E  C093  F095         	comf	(??_abs+0+0)&0ffh
  5657  0029A2  1F94               	comf	(??_abs+0+1)&0ffh
  5658  0029A4  1F95               	infsnz	(??_abs+0+0)&0ffh
  5659  0029A6  4B94               	incf	(??_abs+0+1)&0ffh
  5660  0029A8  2B95               	movff	??_abs+0+0,(?_abs)
  5661  0029AA  C094  F092         	movff	??_abs+0+1,(?_abs+1)
  5662  0029AE  C095  F093         	goto	l947
  5663  0029B2  EFE1  F014         	
  5664                           l944:; BSR set to: 0
  5665  0029B6                     
  5666                           	movff	(abs@a),(?_abs)
  5667  0029B6  C092  F092         	movff	(abs@a+1),(?_abs+1)
  5668  0029BA  C093  F093         	goto	l947
  5669  0029BE  EFE1  F014         	
  5670                           l946:; BSR set to: 0
  5671  0029C2                     
  5672                           	line	4
  5673                           	
  5674                           l947:; BSR set to: 0
  5675  0029C2                     
  5676                           	return	;funcret
  5677  0029C2  0012               	opt stack 0
  5678                           GLOBAL	__end_of_abs
  5679                           	__end_of_abs:
  5680  0029C4                     	signat	_abs,4218
  5681                           	global	___aomod
  5682                           
  5683 ;; *************** function ___aomod *****************
  5684 ;; Defined at:
  5685 ;;		line 9 in file "E:\ProgramasWindowns\Microchip\xc8\v2.00\pic\sources\c99\common\aomod.c"
  5686 ;; Parameters:    Size  Location     Type
  5687 ;;  dividend        8    0[BANK0 ] long long 
  5688 ;;  divisor         8    8[BANK0 ] long long 
  5689 ;; Auto vars:     Size  Location     Type
  5690 ;;  sign            1   17[BANK0 ] unsigned char 
  5691 ;;  counter         1   16[BANK0 ] unsigned char 
  5692 ;; Return value:  Size  Location     Type
  5693 ;;                  8    0[BANK0 ] long long 
  5694 ;; Registers used:
  5695 ;;		wreg, status,2, status,0
  5696 ;; Tracked objects:
  5697 ;;		On entry : 0/0
  5698 ;;		On exit  : 0/0
  5699 ;;		Unchanged: 0/0
  5700 ;; Data sizes:     COMRAM   BANK0   BANK1   BANK2   BANK3   BANK4   BANK5
  5701 ;;      Params:         0      16       0       0       0       0       0
  5702 ;;      Locals:         0       2       0       0       0       0       0
  5703 ;;      Temps:          0       0       0       0       0       0       0
  5704 ;;      Totals:         0      18       0       0       0       0       0
  5705 ;;Total ram usage:       18 bytes
  5706 ;; Hardware stack levels used:    1
  5707 ;; Hardware stack levels required when called:   11
  5708 ;; This function calls:
  5709 ;;		Nothing
  5710 ;; This function is called by:
  5711 ;;		_dtoa
  5712 ;; This function uses a non-reentrant model
  5713 ;;
  5714                           psect	text14,class=CODE,space=0,reloc=2,group=1
  5715                           	file	"E:\ProgramasWindowns\Microchip\xc8\v2.00\pic\sources\c99\common\aomod.c"
  5716                           	line	9
  5717                           global __ptext14
  5718                           __ptext14:
  5719  001B04                     psect	text14
  5720                           	file	"E:\ProgramasWindowns\Microchip\xc8\v2.00\pic\sources\c99\common\aomod.c"
  5721                           	line	9
  5722                           	global	__size_of___aomod
  5723                           	__size_of___aomod	equ	__end_of___aomod-___aomod
  5724  0000                     	
  5725                           ___aomod:; BSR set to: 0
  5726  001B04                     
  5727                           ;incstack = 0
  5728                           	opt	stack 13
  5729                           	line	14
  5730                           	
  5731                           l2223:
  5732  001B04                     	movlw	low(0)
  5733  001B04  0E00               	movlb	0	; () banked
  5734  001B06  0100               	movwf	((___aomod@sign))&0ffh
  5735  001B08  6F91               	line	15
  5736                           	
  5737                           l2225:; BSR set to: 0
  5738  001B0A                     
  5739                           	btfsc	((___aomod@dividend+7))&0ffh,7
  5740  001B0A  BF87               	goto	u1700
  5741  001B0C  EF8C  F00D         	goto	u1701
  5742  001B10  EF8A  F00D         
  5743                           u1701:
  5744  001B14                     	goto	l2231
  5745  001B14  EFA0  F00D         u1700:
  5746  001B18                     	line	16
  5747                           	
  5748                           l2227:; BSR set to: 0
  5749  001B18                     
  5750                           	comf	((___aomod@dividend+7))&0ffh
  5751  001B18  1F87               	comf	((___aomod@dividend+6))&0ffh
  5752  001B1A  1F86               	comf	((___aomod@dividend+5))&0ffh
  5753  001B1C  1F85               	comf	((___aomod@dividend+4))&0ffh
  5754  001B1E  1F84               	comf	((___aomod@dividend+3))&0ffh
  5755  001B20  1F83               	comf	((___aomod@dividend+2))&0ffh
  5756  001B22  1F82               	comf	((___aomod@dividend+1))&0ffh
  5757  001B24  1F81               	negf	((___aomod@dividend))&0ffh
  5758  001B26  6D80               	movlw	0
  5759  001B28  0E00               	addwfc	((___aomod@dividend+1))&0ffh
  5760  001B2A  2381               	addwfc	((___aomod@dividend+2))&0ffh
  5761  001B2C  2382               	addwfc	((___aomod@dividend+3))&0ffh
  5762  001B2E  2383               	addwfc	((___aomod@dividend+4))&0ffh
  5763  001B30  2384               	addwfc	((___aomod@dividend+5))&0ffh
  5764  001B32  2385               	addwfc	((___aomod@dividend+6))&0ffh
  5765  001B34  2386               	addwfc	((___aomod@dividend+7))&0ffh
  5766  001B36  2387               	line	17
  5767                           	
  5768                           l2229:; BSR set to: 0
  5769  001B38                     
  5770                           	movlw	low(01h)
  5771  001B38  0E01               	movwf	((___aomod@sign))&0ffh
  5772  001B3A  6F91               	goto	l2231
  5773  001B3C  EFA0  F00D         	line	18
  5774                           	
  5775                           l386:; BSR set to: 0
  5776  001B40                     
  5777                           	line	19
  5778                           	
  5779                           l2231:; BSR set to: 0
  5780  001B40                     
  5781                           	btfsc	((___aomod@divisor+7))&0ffh,7
  5782  001B40  BF8F               	goto	u1710
  5783  001B42  EFA7  F00D         	goto	u1711
  5784  001B46  EFA5  F00D         
  5785                           u1711:
  5786  001B4A                     	goto	l2235
  5787  001B4A  EFB9  F00D         u1710:
  5788  001B4E                     	line	20
  5789                           	
  5790                           l2233:; BSR set to: 0
  5791  001B4E                     
  5792                           	comf	((___aomod@divisor+7))&0ffh
  5793  001B4E  1F8F               	comf	((___aomod@divisor+6))&0ffh
  5794  001B50  1F8E               	comf	((___aomod@divisor+5))&0ffh
  5795  001B52  1F8D               	comf	((___aomod@divisor+4))&0ffh
  5796  001B54  1F8C               	comf	((___aomod@divisor+3))&0ffh
  5797  001B56  1F8B               	comf	((___aomod@divisor+2))&0ffh
  5798  001B58  1F8A               	comf	((___aomod@divisor+1))&0ffh
  5799  001B5A  1F89               	negf	((___aomod@divisor))&0ffh
  5800  001B5C  6D88               	movlw	0
  5801  001B5E  0E00               	addwfc	((___aomod@divisor+1))&0ffh
  5802  001B60  2389               	addwfc	((___aomod@divisor+2))&0ffh
  5803  001B62  238A               	addwfc	((___aomod@divisor+3))&0ffh
  5804  001B64  238B               	addwfc	((___aomod@divisor+4))&0ffh
  5805  001B66  238C               	addwfc	((___aomod@divisor+5))&0ffh
  5806  001B68  238D               	addwfc	((___aomod@divisor+6))&0ffh
  5807  001B6A  238E               	addwfc	((___aomod@divisor+7))&0ffh
  5808  001B6C  238F               	goto	l2235
  5809  001B6E  EFB9  F00D         	
  5810                           l387:; BSR set to: 0
  5811  001B72                     
  5812                           	line	21
  5813                           	
  5814                           l2235:; BSR set to: 0
  5815  001B72                     
  5816                           	movf	((___aomod@divisor))&0ffh,w
  5817  001B72  5188               iorwf	((___aomod@divisor+1))&0ffh,w
  5818  001B74  1189               iorwf	((___aomod@divisor+2))&0ffh,w
  5819  001B76  118A               iorwf	((___aomod@divisor+3))&0ffh,w
  5820  001B78  118B               iorwf	((___aomod@divisor+4))&0ffh,w
  5821  001B7A  118C               iorwf	((___aomod@divisor+5))&0ffh,w
  5822  001B7C  118D               iorwf	((___aomod@divisor+6))&0ffh,w
  5823  001B7E  118E               iorwf	((___aomod@divisor+7))&0ffh,w
  5824  001B80  118F               	btfsc	status,2
  5825  001B82  B4D8               	goto	u1721
  5826  001B84  EFC6  F00D         	goto	u1720
  5827  001B88  EFC8  F00D         
  5828                           u1721:
  5829  001B8C                     	goto	l2251
  5830  001B8C  EF1C  F00E         u1720:
  5831  001B90                     	line	22
  5832                           	
  5833                           l2237:; BSR set to: 0
  5834  001B90                     
  5835                           	movlw	low(01h)
  5836  001B90  0E01               	movwf	((___aomod@counter))&0ffh
  5837  001B92  6F90               	line	23
  5838                           	goto	l2241
  5839  001B94  EFD8  F00D         	
  5840                           l390:; BSR set to: 0
  5841  001B98                     
  5842                           	line	24
  5843                           	
  5844                           l2239:; BSR set to: 0
  5845  001B98                     
  5846                           	bcf	status,0
  5847  001B98  90D8               	rlcf	((___aomod@divisor))&0ffh
  5848  001B9A  3788               	rlcf	((___aomod@divisor+1))&0ffh
  5849  001B9C  3789               	rlcf	((___aomod@divisor+2))&0ffh
  5850  001B9E  378A               	rlcf	((___aomod@divisor+3))&0ffh
  5851  001BA0  378B               	rlcf	((___aomod@divisor+4))&0ffh
  5852  001BA2  378C               	rlcf	((___aomod@divisor+5))&0ffh
  5853  001BA4  378D               	rlcf	((___aomod@divisor+6))&0ffh
  5854  001BA6  378E               	rlcf	((___aomod@divisor+7))&0ffh
  5855  001BA8  378F               	line	25
  5856                           	incf	((___aomod@counter))&0ffh
  5857  001BAA  2B90               	goto	l2241
  5858  001BAC  EFD8  F00D         	line	26
  5859                           	
  5860                           l389:; BSR set to: 0
  5861  001BB0                     
  5862                           	line	23
  5863                           	
  5864                           l2241:; BSR set to: 0
  5865  001BB0                     
  5866                           	
  5867                           	btfss	((___aomod@divisor+7))&0ffh,(63)&7
  5868  001BB0  AF8F               	goto	u1731
  5869  001BB2  EFDD  F00D         	goto	u1730
  5870  001BB6  EFDF  F00D         u1731:
  5871  001BBA                     	goto	l2239
  5872  001BBA  EFCC  F00D         u1730:
  5873  001BBE                     	goto	l2243
  5874  001BBE  EFE3  F00D         	
  5875                           l391:; BSR set to: 0
  5876  001BC2                     
  5877                           	goto	l2243
  5878  001BC2  EFE3  F00D         	line	27
  5879                           	
  5880                           l392:; BSR set to: 0
  5881  001BC6                     
  5882                           	line	28
  5883                           	
  5884                           l2243:; BSR set to: 0
  5885  001BC6                     
  5886                           		movf	((___aomod@divisor))&0ffh,w
  5887  001BC6  5188               	subwf	((___aomod@dividend))&0ffh,w
  5888  001BC8  5D80               	movf	((___aomod@divisor+1))&0ffh,w
  5889  001BCA  5189               	subwfb	((___aomod@dividend+1))&0ffh,w
  5890  001BCC  5981               	movf	((___aomod@divisor+2))&0ffh,w
  5891  001BCE  518A               	subwfb	((___aomod@dividend+2))&0ffh,w
  5892  001BD0  5982               	movf	((___aomod@divisor+3))&0ffh,w
  5893  001BD2  518B               	subwfb	((___aomod@dividend+3))&0ffh,w
  5894  001BD4  5983               	movf	((___aomod@divisor+4))&0ffh,w
  5895  001BD6  518C               	subwfb	((___aomod@dividend+4))&0ffh,w
  5896  001BD8  5984               	movf	((___aomod@divisor+5))&0ffh,w
  5897  001BDA  518D               	subwfb	((___aomod@dividend+5))&0ffh,w
  5898  001BDC  5985               	movf	((___aomod@divisor+6))&0ffh,w
  5899  001BDE  518E               	subwfb	((___aomod@dividend+6))&0ffh,w
  5900  001BE0  5986               	movf	((___aomod@divisor+7))&0ffh,w
  5901  001BE2  518F               	subwfb	((___aomod@dividend+7))&0ffh,w
  5902  001BE4  5987               	btfss	status,0
  5903  001BE6  A0D8               	goto	u1741
  5904  001BE8  EFF8  F00D         	goto	u1740
  5905  001BEC  EFFA  F00D         
  5906                           u1741:
  5907  001BF0                     	goto	l2247
  5908  001BF0  EF0C  F00E         u1740:
  5909  001BF4                     	line	29
  5910                           	
  5911                           l2245:; BSR set to: 0
  5912  001BF4                     
  5913                           	movf	((___aomod@divisor))&0ffh,w
  5914  001BF4  5188               	subwf	((___aomod@dividend))&0ffh
  5915  001BF6  5F80               	movf	((___aomod@divisor+1))&0ffh,w
  5916  001BF8  5189               	subwfb	((___aomod@dividend+1))&0ffh
  5917  001BFA  5B81               	movf	((___aomod@divisor+2))&0ffh,w
  5918  001BFC  518A               	subwfb	((___aomod@dividend+2))&0ffh
  5919  001BFE  5B82               	movf	((___aomod@divisor+3))&0ffh,w
  5920  001C00  518B               	subwfb	((___aomod@dividend+3))&0ffh
  5921  001C02  5B83               	movf	((___aomod@divisor+4))&0ffh,w
  5922  001C04  518C               	subwfb	((___aomod@dividend+4))&0ffh
  5923  001C06  5B84               	movf	((___aomod@divisor+5))&0ffh,w
  5924  001C08  518D               	subwfb	((___aomod@dividend+5))&0ffh
  5925  001C0A  5B85               	movf	((___aomod@divisor+6))&0ffh,w
  5926  001C0C  518E               	subwfb	((___aomod@dividend+6))&0ffh
  5927  001C0E  5B86               	movf	((___aomod@divisor+7))&0ffh,w
  5928  001C10  518F               	subwfb	((___aomod@dividend+7))&0ffh
  5929  001C12  5B87               	goto	l2247
  5930  001C14  EF0C  F00E         	
  5931                           l393:; BSR set to: 0
  5932  001C18                     
  5933                           	line	30
  5934                           	
  5935                           l2247:; BSR set to: 0
  5936  001C18                     
  5937                           	bcf	status,0
  5938  001C18  90D8               	rrcf	((___aomod@divisor+7))&0ffh
  5939  001C1A  338F               	rrcf	((___aomod@divisor+6))&0ffh
  5940  001C1C  338E               	rrcf	((___aomod@divisor+5))&0ffh
  5941  001C1E  338D               	rrcf	((___aomod@divisor+4))&0ffh
  5942  001C20  338C               	rrcf	((___aomod@divisor+3))&0ffh
  5943  001C22  338B               	rrcf	((___aomod@divisor+2))&0ffh
  5944  001C24  338A               	rrcf	((___aomod@divisor+1))&0ffh
  5945  001C26  3389               	rrcf	((___aomod@divisor))&0ffh
  5946  001C28  3388               	line	31
  5947                           	
  5948                           l2249:; BSR set to: 0
  5949  001C2A                     
  5950                           	decfsz	((___aomod@counter))&0ffh
  5951  001C2A  2F90               	
  5952                           	goto	l2243
  5953  001C2C  EFE3  F00D         	goto	l2251
  5954  001C30  EF1C  F00E         	
  5955                           l394:; BSR set to: 0
  5956  001C34                     
  5957                           	goto	l2251
  5958  001C34  EF1C  F00E         	line	32
  5959                           	
  5960                           l388:; BSR set to: 0
  5961  001C38                     
  5962                           	line	33
  5963                           	
  5964                           l2251:; BSR set to: 0
  5965  001C38                     
  5966                           	movf	((___aomod@sign))&0ffh,w
  5967  001C38  5191               	btfsc	status,2
  5968  001C3A  B4D8               	goto	u1751
  5969  001C3C  EF22  F00E         	goto	u1750
  5970  001C40  EF24  F00E         u1751:
  5971  001C44                     	goto	l2255
  5972  001C44  EF36  F00E         u1750:
  5973  001C48                     	line	34
  5974                           	
  5975                           l2253:; BSR set to: 0
  5976  001C48                     
  5977                           	comf	((___aomod@dividend+7))&0ffh
  5978  001C48  1F87               	comf	((___aomod@dividend+6))&0ffh
  5979  001C4A  1F86               	comf	((___aomod@dividend+5))&0ffh
  5980  001C4C  1F85               	comf	((___aomod@dividend+4))&0ffh
  5981  001C4E  1F84               	comf	((___aomod@dividend+3))&0ffh
  5982  001C50  1F83               	comf	((___aomod@dividend+2))&0ffh
  5983  001C52  1F82               	comf	((___aomod@dividend+1))&0ffh
  5984  001C54  1F81               	negf	((___aomod@dividend))&0ffh
  5985  001C56  6D80               	movlw	0
  5986  001C58  0E00               	addwfc	((___aomod@dividend+1))&0ffh
  5987  001C5A  2381               	addwfc	((___aomod@dividend+2))&0ffh
  5988  001C5C  2382               	addwfc	((___aomod@dividend+3))&0ffh
  5989  001C5E  2383               	addwfc	((___aomod@dividend+4))&0ffh
  5990  001C60  2384               	addwfc	((___aomod@dividend+5))&0ffh
  5991  001C62  2385               	addwfc	((___aomod@dividend+6))&0ffh
  5992  001C64  2386               	addwfc	((___aomod@dividend+7))&0ffh
  5993  001C66  2387               	goto	l2255
  5994  001C68  EF36  F00E         	
  5995                           l395:; BSR set to: 0
  5996  001C6C                     
  5997                           	line	35
  5998                           	
  5999                           l2255:; BSR set to: 0
  6000  001C6C                     
  6001                           	movff	(___aomod@dividend),(?___aomod)
  6002  001C6C  C080  F080         	movff	(___aomod@dividend+1),(?___aomod+1)
  6003  001C70  C081  F081         	movff	(___aomod@dividend+2),(?___aomod+2)
  6004  001C74  C082  F082         	movff	(___aomod@dividend+3),(?___aomod+3)
  6005  001C78  C083  F083         	movff	(___aomod@dividend+4),(?___aomod+4)
  6006  001C7C  C084  F084         	movff	(___aomod@dividend+5),(?___aomod+5)
  6007  001C80  C085  F085         	movff	(___aomod@dividend+6),(?___aomod+6)
  6008  001C84  C086  F086         	movff	(___aomod@dividend+7),(?___aomod+7)
  6009  001C88  C087  F087         	goto	l396
  6010  001C8C  EF48  F00E         	
  6011                           l2257:; BSR set to: 0
  6012  001C90                     
  6013                           	line	36
  6014                           	
  6015                           l396:; BSR set to: 0
  6016  001C90                     
  6017                           	return	;funcret
  6018  001C90  0012               	opt stack 0
  6019                           GLOBAL	__end_of___aomod
  6020                           	__end_of___aomod:
  6021  001C92                     	signat	___aomod,8319
  6022                           	global	___aodiv
  6023                           
  6024 ;; *************** function ___aodiv *****************
  6025 ;; Defined at:
  6026 ;;		line 9 in file "E:\ProgramasWindowns\Microchip\xc8\v2.00\pic\sources\c99\common\aodiv.c"
  6027 ;; Parameters:    Size  Location     Type
  6028 ;;  dividend        8    0[BANK0 ] long long 
  6029 ;;  divisor         8    8[BANK0 ] long long 
  6030 ;; Auto vars:     Size  Location     Type
  6031 ;;  quotient        8   18[BANK0 ] long long 
  6032 ;;  sign            1   17[BANK0 ] unsigned char 
  6033 ;;  counter         1   16[BANK0 ] unsigned char 
  6034 ;; Return value:  Size  Location     Type
  6035 ;;                  8    0[BANK0 ] long long 
  6036 ;; Registers used:
  6037 ;;		wreg, fsr2l, fsr2h, status,2, status,0
  6038 ;; Tracked objects:
  6039 ;;		On entry : 0/0
  6040 ;;		On exit  : 0/0
  6041 ;;		Unchanged: 0/0
  6042 ;; Data sizes:     COMRAM   BANK0   BANK1   BANK2   BANK3   BANK4   BANK5
  6043 ;;      Params:         0      16       0       0       0       0       0
  6044 ;;      Locals:         0      10       0       0       0       0       0
  6045 ;;      Temps:          0       0       0       0       0       0       0
  6046 ;;      Totals:         0      26       0       0       0       0       0
  6047 ;;Total ram usage:       26 bytes
  6048 ;; Hardware stack levels used:    1
  6049 ;; Hardware stack levels required when called:   11
  6050 ;; This function calls:
  6051 ;;		Nothing
  6052 ;; This function is called by:
  6053 ;;		_dtoa
  6054 ;; This function uses a non-reentrant model
  6055 ;;
  6056                           psect	text15,class=CODE,space=0,reloc=2,group=1
  6057                           	file	"E:\ProgramasWindowns\Microchip\xc8\v2.00\pic\sources\c99\common\aodiv.c"
  6058                           	line	9
  6059                           global __ptext15
  6060                           __ptext15:
  6061  0017A2                     psect	text15
  6062                           	file	"E:\ProgramasWindowns\Microchip\xc8\v2.00\pic\sources\c99\common\aodiv.c"
  6063                           	line	9
  6064                           	global	__size_of___aodiv
  6065                           	__size_of___aodiv	equ	__end_of___aodiv-___aodiv
  6066  0000                     	
  6067                           ___aodiv:; BSR set to: 0
  6068  0017A2                     
  6069                           ;incstack = 0
  6070                           	opt	stack 13
  6071                           	line	15
  6072                           	
  6073                           l2179:
  6074  0017A2                     	movlw	low(0)
  6075  0017A2  0E00               	movlb	0	; () banked
  6076  0017A4  0100               	movwf	((___aodiv@sign))&0ffh
  6077  0017A6  6F91               	line	16
  6078                           	
  6079                           l2181:; BSR set to: 0
  6080  0017A8                     
  6081                           	btfsc	((___aodiv@divisor+7))&0ffh,7
  6082  0017A8  BF8F               	goto	u1630
  6083  0017AA  EFDB  F00B         	goto	u1631
  6084  0017AE  EFD9  F00B         
  6085                           u1631:
  6086  0017B2                     	goto	l2187
  6087  0017B2  EFEF  F00B         u1630:
  6088  0017B6                     	line	17
  6089                           	
  6090                           l2183:; BSR set to: 0
  6091  0017B6                     
  6092                           	comf	((___aodiv@divisor+7))&0ffh
  6093  0017B6  1F8F               	comf	((___aodiv@divisor+6))&0ffh
  6094  0017B8  1F8E               	comf	((___aodiv@divisor+5))&0ffh
  6095  0017BA  1F8D               	comf	((___aodiv@divisor+4))&0ffh
  6096  0017BC  1F8C               	comf	((___aodiv@divisor+3))&0ffh
  6097  0017BE  1F8B               	comf	((___aodiv@divisor+2))&0ffh
  6098  0017C0  1F8A               	comf	((___aodiv@divisor+1))&0ffh
  6099  0017C2  1F89               	negf	((___aodiv@divisor))&0ffh
  6100  0017C4  6D88               	movlw	0
  6101  0017C6  0E00               	addwfc	((___aodiv@divisor+1))&0ffh
  6102  0017C8  2389               	addwfc	((___aodiv@divisor+2))&0ffh
  6103  0017CA  238A               	addwfc	((___aodiv@divisor+3))&0ffh
  6104  0017CC  238B               	addwfc	((___aodiv@divisor+4))&0ffh
  6105  0017CE  238C               	addwfc	((___aodiv@divisor+5))&0ffh
  6106  0017D0  238D               	addwfc	((___aodiv@divisor+6))&0ffh
  6107  0017D2  238E               	addwfc	((___aodiv@divisor+7))&0ffh
  6108  0017D4  238F               	line	18
  6109                           	
  6110                           l2185:; BSR set to: 0
  6111  0017D6                     
  6112                           	movlw	low(01h)
  6113  0017D6  0E01               	movwf	((___aodiv@sign))&0ffh
  6114  0017D8  6F91               	goto	l2187
  6115  0017DA  EFEF  F00B         	line	19
  6116                           	
  6117                           l373:; BSR set to: 0
  6118  0017DE                     
  6119                           	line	20
  6120                           	
  6121                           l2187:; BSR set to: 0
  6122  0017DE                     
  6123                           	btfsc	((___aodiv@dividend+7))&0ffh,7
  6124  0017DE  BF87               	goto	u1640
  6125  0017E0  EFF6  F00B         	goto	u1641
  6126  0017E4  EFF4  F00B         
  6127                           u1641:
  6128  0017E8                     	goto	l2193
  6129  0017E8  EF0A  F00C         u1640:
  6130  0017EC                     	line	21
  6131                           	
  6132                           l2189:; BSR set to: 0
  6133  0017EC                     
  6134                           	comf	((___aodiv@dividend+7))&0ffh
  6135  0017EC  1F87               	comf	((___aodiv@dividend+6))&0ffh
  6136  0017EE  1F86               	comf	((___aodiv@dividend+5))&0ffh
  6137  0017F0  1F85               	comf	((___aodiv@dividend+4))&0ffh
  6138  0017F2  1F84               	comf	((___aodiv@dividend+3))&0ffh
  6139  0017F4  1F83               	comf	((___aodiv@dividend+2))&0ffh
  6140  0017F6  1F82               	comf	((___aodiv@dividend+1))&0ffh
  6141  0017F8  1F81               	negf	((___aodiv@dividend))&0ffh
  6142  0017FA  6D80               	movlw	0
  6143  0017FC  0E00               	addwfc	((___aodiv@dividend+1))&0ffh
  6144  0017FE  2381               	addwfc	((___aodiv@dividend+2))&0ffh
  6145  001800  2382               	addwfc	((___aodiv@dividend+3))&0ffh
  6146  001802  2383               	addwfc	((___aodiv@dividend+4))&0ffh
  6147  001804  2384               	addwfc	((___aodiv@dividend+5))&0ffh
  6148  001806  2385               	addwfc	((___aodiv@dividend+6))&0ffh
  6149  001808  2386               	addwfc	((___aodiv@dividend+7))&0ffh
  6150  00180A  2387               	line	22
  6151                           	
  6152                           l2191:; BSR set to: 0
  6153  00180C                     
  6154                           	movlw	(01h)&0ffh
  6155  00180C  0E01               	xorwf	((___aodiv@sign))&0ffh
  6156  00180E  1B91               	goto	l2193
  6157  001810  EF0A  F00C         	line	23
  6158                           	
  6159                           l374:; BSR set to: 0
  6160  001814                     
  6161                           	line	24
  6162                           	
  6163                           l2193:; BSR set to: 0
  6164  001814                     
  6165                           	lfsr	2,(___aodiv@quotient)
  6166  001814  EE20  F092         	movlw	8-1
  6167  001818  0E07               u1651:
  6168  00181A                     	clrf	postinc2
  6169  00181A  6ADE               	decf	wreg
  6170  00181C  06E8               	bc	u1651
  6171  00181E  E2FD               	line	25
  6172                           	
  6173                           l2195:; BSR set to: 0
  6174  001820                     
  6175                           	movf	((___aodiv@divisor))&0ffh,w
  6176  001820  5188               iorwf	((___aodiv@divisor+1))&0ffh,w
  6177  001822  1189               iorwf	((___aodiv@divisor+2))&0ffh,w
  6178  001824  118A               iorwf	((___aodiv@divisor+3))&0ffh,w
  6179  001826  118B               iorwf	((___aodiv@divisor+4))&0ffh,w
  6180  001828  118C               iorwf	((___aodiv@divisor+5))&0ffh,w
  6181  00182A  118D               iorwf	((___aodiv@divisor+6))&0ffh,w
  6182  00182C  118E               iorwf	((___aodiv@divisor+7))&0ffh,w
  6183  00182E  118F               	btfsc	status,2
  6184  001830  B4D8               	goto	u1661
  6185  001832  EF1D  F00C         	goto	u1660
  6186  001836  EF1F  F00C         
  6187                           u1661:
  6188  00183A                     	goto	l2215
  6189  00183A  EF7D  F00C         u1660:
  6190  00183E                     	line	26
  6191                           	
  6192                           l2197:; BSR set to: 0
  6193  00183E                     
  6194                           	movlw	low(01h)
  6195  00183E  0E01               	movwf	((___aodiv@counter))&0ffh
  6196  001840  6F90               	line	27
  6197                           	goto	l2201
  6198  001842  EF2F  F00C         	
  6199                           l377:; BSR set to: 0
  6200  001846                     
  6201                           	line	28
  6202                           	
  6203                           l2199:; BSR set to: 0
  6204  001846                     
  6205                           	bcf	status,0
  6206  001846  90D8               	rlcf	((___aodiv@divisor))&0ffh
  6207  001848  3788               	rlcf	((___aodiv@divisor+1))&0ffh
  6208  00184A  3789               	rlcf	((___aodiv@divisor+2))&0ffh
  6209  00184C  378A               	rlcf	((___aodiv@divisor+3))&0ffh
  6210  00184E  378B               	rlcf	((___aodiv@divisor+4))&0ffh
  6211  001850  378C               	rlcf	((___aodiv@divisor+5))&0ffh
  6212  001852  378D               	rlcf	((___aodiv@divisor+6))&0ffh
  6213  001854  378E               	rlcf	((___aodiv@divisor+7))&0ffh
  6214  001856  378F               	line	29
  6215                           	incf	((___aodiv@counter))&0ffh
  6216  001858  2B90               	goto	l2201
  6217  00185A  EF2F  F00C         	line	30
  6218                           	
  6219                           l376:; BSR set to: 0
  6220  00185E                     
  6221                           	line	27
  6222                           	
  6223                           l2201:; BSR set to: 0
  6224  00185E                     
  6225                           	
  6226                           	btfss	((___aodiv@divisor+7))&0ffh,(63)&7
  6227  00185E  AF8F               	goto	u1671
  6228  001860  EF34  F00C         	goto	u1670
  6229  001864  EF36  F00C         u1671:
  6230  001868                     	goto	l2199
  6231  001868  EF23  F00C         u1670:
  6232  00186C                     	goto	l2203
  6233  00186C  EF3A  F00C         	
  6234                           l378:; BSR set to: 0
  6235  001870                     
  6236                           	goto	l2203
  6237  001870  EF3A  F00C         	line	31
  6238                           	
  6239                           l379:; BSR set to: 0
  6240  001874                     
  6241                           	line	32
  6242                           	
  6243                           l2203:; BSR set to: 0
  6244  001874                     
  6245                           	bcf	status,0
  6246  001874  90D8               	rlcf	((___aodiv@quotient))&0ffh
  6247  001876  3792               	rlcf	((___aodiv@quotient+1))&0ffh
  6248  001878  3793               	rlcf	((___aodiv@quotient+2))&0ffh
  6249  00187A  3794               	rlcf	((___aodiv@quotient+3))&0ffh
  6250  00187C  3795               	rlcf	((___aodiv@quotient+4))&0ffh
  6251  00187E  3796               	rlcf	((___aodiv@quotient+5))&0ffh
  6252  001880  3797               	rlcf	((___aodiv@quotient+6))&0ffh
  6253  001882  3798               	rlcf	((___aodiv@quotient+7))&0ffh
  6254  001884  3799               	line	33
  6255                           	
  6256                           l2205:; BSR set to: 0
  6257  001886                     
  6258                           		movf	((___aodiv@divisor))&0ffh,w
  6259  001886  5188               	subwf	((___aodiv@dividend))&0ffh,w
  6260  001888  5D80               	movf	((___aodiv@divisor+1))&0ffh,w
  6261  00188A  5189               	subwfb	((___aodiv@dividend+1))&0ffh,w
  6262  00188C  5981               	movf	((___aodiv@divisor+2))&0ffh,w
  6263  00188E  518A               	subwfb	((___aodiv@dividend+2))&0ffh,w
  6264  001890  5982               	movf	((___aodiv@divisor+3))&0ffh,w
  6265  001892  518B               	subwfb	((___aodiv@dividend+3))&0ffh,w
  6266  001894  5983               	movf	((___aodiv@divisor+4))&0ffh,w
  6267  001896  518C               	subwfb	((___aodiv@dividend+4))&0ffh,w
  6268  001898  5984               	movf	((___aodiv@divisor+5))&0ffh,w
  6269  00189A  518D               	subwfb	((___aodiv@dividend+5))&0ffh,w
  6270  00189C  5985               	movf	((___aodiv@divisor+6))&0ffh,w
  6271  00189E  518E               	subwfb	((___aodiv@dividend+6))&0ffh,w
  6272  0018A0  5986               	movf	((___aodiv@divisor+7))&0ffh,w
  6273  0018A2  518F               	subwfb	((___aodiv@dividend+7))&0ffh,w
  6274  0018A4  5987               	btfss	status,0
  6275  0018A6  A0D8               	goto	u1681
  6276  0018A8  EF58  F00C         	goto	u1680
  6277  0018AC  EF5A  F00C         
  6278                           u1681:
  6279  0018B0                     	goto	l2211
  6280  0018B0  EF6D  F00C         u1680:
  6281  0018B4                     	line	34
  6282                           	
  6283                           l2207:; BSR set to: 0
  6284  0018B4                     
  6285                           	movf	((___aodiv@divisor))&0ffh,w
  6286  0018B4  5188               	subwf	((___aodiv@dividend))&0ffh
  6287  0018B6  5F80               	movf	((___aodiv@divisor+1))&0ffh,w
  6288  0018B8  5189               	subwfb	((___aodiv@dividend+1))&0ffh
  6289  0018BA  5B81               	movf	((___aodiv@divisor+2))&0ffh,w
  6290  0018BC  518A               	subwfb	((___aodiv@dividend+2))&0ffh
  6291  0018BE  5B82               	movf	((___aodiv@divisor+3))&0ffh,w
  6292  0018C0  518B               	subwfb	((___aodiv@dividend+3))&0ffh
  6293  0018C2  5B83               	movf	((___aodiv@divisor+4))&0ffh,w
  6294  0018C4  518C               	subwfb	((___aodiv@dividend+4))&0ffh
  6295  0018C6  5B84               	movf	((___aodiv@divisor+5))&0ffh,w
  6296  0018C8  518D               	subwfb	((___aodiv@dividend+5))&0ffh
  6297  0018CA  5B85               	movf	((___aodiv@divisor+6))&0ffh,w
  6298  0018CC  518E               	subwfb	((___aodiv@dividend+6))&0ffh
  6299  0018CE  5B86               	movf	((___aodiv@divisor+7))&0ffh,w
  6300  0018D0  518F               	subwfb	((___aodiv@dividend+7))&0ffh
  6301  0018D2  5B87               	line	35
  6302                           	
  6303                           l2209:; BSR set to: 0
  6304  0018D4                     
  6305                           	bsf	(0+(0/8)+(___aodiv@quotient))&0ffh,(0)&7
  6306  0018D4  8192               	goto	l2211
  6307  0018D6  EF6D  F00C         	line	36
  6308                           	
  6309                           l380:; BSR set to: 0
  6310  0018DA                     
  6311                           	line	37
  6312                           	
  6313                           l2211:; BSR set to: 0
  6314  0018DA                     
  6315                           	bcf	status,0
  6316  0018DA  90D8               	rrcf	((___aodiv@divisor+7))&0ffh
  6317  0018DC  338F               	rrcf	((___aodiv@divisor+6))&0ffh
  6318  0018DE  338E               	rrcf	((___aodiv@divisor+5))&0ffh
  6319  0018E0  338D               	rrcf	((___aodiv@divisor+4))&0ffh
  6320  0018E2  338C               	rrcf	((___aodiv@divisor+3))&0ffh
  6321  0018E4  338B               	rrcf	((___aodiv@divisor+2))&0ffh
  6322  0018E6  338A               	rrcf	((___aodiv@divisor+1))&0ffh
  6323  0018E8  3389               	rrcf	((___aodiv@divisor))&0ffh
  6324  0018EA  3388               	line	38
  6325                           	
  6326                           l2213:; BSR set to: 0
  6327  0018EC                     
  6328                           	decfsz	((___aodiv@counter))&0ffh
  6329  0018EC  2F90               	
  6330                           	goto	l2203
  6331  0018EE  EF3A  F00C         	goto	l2215
  6332  0018F2  EF7D  F00C         	
  6333                           l381:; BSR set to: 0
  6334  0018F6                     
  6335                           	goto	l2215
  6336  0018F6  EF7D  F00C         	line	39
  6337                           	
  6338                           l375:; BSR set to: 0
  6339  0018FA                     
  6340                           	line	40
  6341                           	
  6342                           l2215:; BSR set to: 0
  6343  0018FA                     
  6344                           	movf	((___aodiv@sign))&0ffh,w
  6345  0018FA  5191               	btfsc	status,2
  6346  0018FC  B4D8               	goto	u1691
  6347  0018FE  EF83  F00C         	goto	u1690
  6348  001902  EF85  F00C         u1691:
  6349  001906                     	goto	l2219
  6350  001906  EF97  F00C         u1690:
  6351  00190A                     	line	41
  6352                           	
  6353                           l2217:; BSR set to: 0
  6354  00190A                     
  6355                           	comf	((___aodiv@quotient+7))&0ffh
  6356  00190A  1F99               	comf	((___aodiv@quotient+6))&0ffh
  6357  00190C  1F98               	comf	((___aodiv@quotient+5))&0ffh
  6358  00190E  1F97               	comf	((___aodiv@quotient+4))&0ffh
  6359  001910  1F96               	comf	((___aodiv@quotient+3))&0ffh
  6360  001912  1F95               	comf	((___aodiv@quotient+2))&0ffh
  6361  001914  1F94               	comf	((___aodiv@quotient+1))&0ffh
  6362  001916  1F93               	negf	((___aodiv@quotient))&0ffh
  6363  001918  6D92               	movlw	0
  6364  00191A  0E00               	addwfc	((___aodiv@quotient+1))&0ffh
  6365  00191C  2393               	addwfc	((___aodiv@quotient+2))&0ffh
  6366  00191E  2394               	addwfc	((___aodiv@quotient+3))&0ffh
  6367  001920  2395               	addwfc	((___aodiv@quotient+4))&0ffh
  6368  001922  2396               	addwfc	((___aodiv@quotient+5))&0ffh
  6369  001924  2397               	addwfc	((___aodiv@quotient+6))&0ffh
  6370  001926  2398               	addwfc	((___aodiv@quotient+7))&0ffh
  6371  001928  2399               	goto	l2219
  6372  00192A  EF97  F00C         	
  6373                           l382:; BSR set to: 0
  6374  00192E                     
  6375                           	line	42
  6376                           	
  6377                           l2219:; BSR set to: 0
  6378  00192E                     
  6379                           	movff	(___aodiv@quotient),(?___aodiv)
  6380  00192E  C092  F080         	movff	(___aodiv@quotient+1),(?___aodiv+1)
  6381  001932  C093  F081         	movff	(___aodiv@quotient+2),(?___aodiv+2)
  6382  001936  C094  F082         	movff	(___aodiv@quotient+3),(?___aodiv+3)
  6383  00193A  C095  F083         	movff	(___aodiv@quotient+4),(?___aodiv+4)
  6384  00193E  C096  F084         	movff	(___aodiv@quotient+5),(?___aodiv+5)
  6385  001942  C097  F085         	movff	(___aodiv@quotient+6),(?___aodiv+6)
  6386  001946  C098  F086         	movff	(___aodiv@quotient+7),(?___aodiv+7)
  6387  00194A  C099  F087         	goto	l383
  6388  00194E  EFA9  F00C         	
  6389                           l2221:; BSR set to: 0
  6390  001952                     
  6391                           	line	43
  6392                           	
  6393                           l383:; BSR set to: 0
  6394  001952                     
  6395                           	return	;funcret
  6396  001952  0012               	opt stack 0
  6397                           GLOBAL	__end_of___aodiv
  6398                           	__end_of___aodiv:
  6399  001954                     	signat	___aodiv,8319
  6400                           	global	_escreve2
  6401                           
  6402 ;; *************** function _escreve2 *****************
  6403 ;; Defined at:
  6404 ;;		line 234 in file "MaquinaDeLavar.c"
  6405 ;; Parameters:    Size  Location     Type
  6406 ;;		None
  6407 ;; Auto vars:     Size  Location     Type
  6408 ;;		None
  6409 ;; Return value:  Size  Location     Type
  6410 ;;                  1    wreg      void 
  6411 ;; Registers used:
  6412 ;;		wreg, fsr1l, fsr1h, status,2, status,0, tblptrl, tblptrh, tblptru, cstack
  6413 ;; Tracked objects:
  6414 ;;		On entry : 0/0
  6415 ;;		On exit  : 0/0
  6416 ;;		Unchanged: 0/0
  6417 ;; Data sizes:     COMRAM   BANK0   BANK1   BANK2   BANK3   BANK4   BANK5
  6418 ;;      Params:         0       0       0       0       0       0       0
  6419 ;;      Locals:         0       0       0       0       0       0       0
  6420 ;;      Temps:          0       0       0       0       0       0       0
  6421 ;;      Totals:         0       0       0       0       0       0       0
  6422 ;;Total ram usage:        0 bytes
  6423 ;; Hardware stack levels used:    1
  6424 ;; Hardware stack levels required when called:   13
  6425 ;; This function calls:
  6426 ;;		_lcd_clear
  6427 ;;		_lcd_goto
  6428 ;;		_lcd_puts
  6429 ;; This function is called by:
  6430 ;;		_tempo1
  6431 ;; This function uses a non-reentrant model
  6432 ;;
  6433                           psect	text16,class=CODE,space=0,reloc=2,group=0
  6434                           	file	"MaquinaDeLavar.c"
  6435                           	line	234
  6436                           global __ptext16
  6437                           __ptext16:
  6438  002934                     psect	text16
  6439                           	file	"MaquinaDeLavar.c"
  6440                           	line	234
  6441                           	global	__size_of_escreve2
  6442                           	__size_of_escreve2	equ	__end_of_escreve2-_escreve2
  6443  0000                     	
  6444                           _escreve2:; BSR set to: 0
  6445  002934                     
  6446                           ;incstack = 0
  6447                           	opt	stack 15
  6448                           	line	237
  6449                           	
  6450                           l2653:
  6451  002934                     ;MaquinaDeLavar.c: 237:     lcd_clear();
  6452                           	call	_lcd_clear	;wreg free
  6453  002934  EC85  F015         	line	238
  6454                           	
  6455                           l2655:
  6456  002938                     ;MaquinaDeLavar.c: 238:     lcd_goto (0);
  6457                           	movlw	(0)&0ffh
  6458  002938  0E00               	
  6459                           	call	_lcd_goto
  6460  00293A  ECB4  F015         	line	239
  6461                           	
  6462                           l2657:
  6463  00293E                     ;MaquinaDeLavar.c: 239:     lcd_puts ( "Estado:");
  6464                           		movlw	low(STR_13)
  6465  00293E  0E1D               	movlb	0	; () banked
  6466  002940  0100               	movwf	((lcd_puts@s))&0ffh
  6467  002942  6F81               	movlw	high(STR_13)
  6468  002944  0E06               	movwf	((lcd_puts@s+1))&0ffh
  6469  002946  6F82               
  6470                           	call	_lcd_puts	;wreg free
  6471  002948  ECCD  F012         	line	240
  6472                           	
  6473                           l2659:
  6474  00294C                     ;MaquinaDeLavar.c: 240:     lcd_puts (estadoMes);
  6475                           		movlw	low(_estadoMes)
  6476  00294C  0E20               	movlb	0	; () banked
  6477  00294E  0100               	movwf	((lcd_puts@s))&0ffh
  6478  002950  6F81               	movlw	high(_estadoMes)
  6479  002952  0E01               	movwf	((lcd_puts@s+1))&0ffh
  6480  002954  6F82               
  6481                           	call	_lcd_puts	;wreg free
  6482  002956  ECCD  F012         	line	241
  6483                           	
  6484                           l2661:
  6485  00295A                     ;MaquinaDeLavar.c: 241:     lcd_goto (40);
  6486                           	movlw	(028h)&0ffh
  6487  00295A  0E28               	
  6488                           	call	_lcd_goto
  6489  00295C  ECB4  F015         	line	242
  6490                           	
  6491                           l2663:
  6492  002960                     ;MaquinaDeLavar.c: 242:     lcd_puts ("Tempo:");
  6493                           		movlw	low(STR_14)
  6494  002960  0E25               	movlb	0	; () banked
  6495  002962  0100               	movwf	((lcd_puts@s))&0ffh
  6496  002964  6F81               	movlw	high(STR_14)
  6497  002966  0E06               	movwf	((lcd_puts@s+1))&0ffh
  6498  002968  6F82               
  6499                           	call	_lcd_puts	;wreg free
  6500  00296A  ECCD  F012         	line	243
  6501                           	
  6502                           l2665:
  6503  00296E                     ;MaquinaDeLavar.c: 243:     lcd_puts (tempoDis);
  6504                           		movlw	low(_tempoDis)
  6505  00296E  0EF8               	movlb	0	; () banked
  6506  002970  0100               	movwf	((lcd_puts@s))&0ffh
  6507  002972  6F81               	movlw	high(_tempoDis)
  6508  002974  0E00               	movwf	((lcd_puts@s+1))&0ffh
  6509  002976  6F82               
  6510                           	call	_lcd_puts	;wreg free
  6511  002978  ECCD  F012         	line	245
  6512                           	
  6513                           l194:
  6514  00297C                     	return	;funcret
  6515  00297C  0012               	opt stack 0
  6516                           GLOBAL	__end_of_escreve2
  6517                           	__end_of_escreve2:
  6518  00297E                     	signat	_escreve2,89
  6519                           	global	_escreve
  6520                           
  6521 ;; *************** function _escreve *****************
  6522 ;; Defined at:
  6523 ;;		line 225 in file "MaquinaDeLavar.c"
  6524 ;; Parameters:    Size  Location     Type
  6525 ;;		None
  6526 ;; Auto vars:     Size  Location     Type
  6527 ;;		None
  6528 ;; Return value:  Size  Location     Type
  6529 ;;                  1    wreg      void 
  6530 ;; Registers used:
  6531 ;;		wreg, fsr1l, fsr1h, status,2, status,0, tblptrl, tblptrh, tblptru, cstack
  6532 ;; Tracked objects:
  6533 ;;		On entry : 0/0
  6534 ;;		On exit  : 0/0
  6535 ;;		Unchanged: 0/0
  6536 ;; Data sizes:     COMRAM   BANK0   BANK1   BANK2   BANK3   BANK4   BANK5
  6537 ;;      Params:         0       0       0       0       0       0       0
  6538 ;;      Locals:         0       0       0       0       0       0       0
  6539 ;;      Temps:          0       0       0       0       0       0       0
  6540 ;;      Totals:         0       0       0       0       0       0       0
  6541 ;;Total ram usage:        0 bytes
  6542 ;; Hardware stack levels used:    1
  6543 ;; Hardware stack levels required when called:   13
  6544 ;; This function calls:
  6545 ;;		_lcd_clear
  6546 ;;		_lcd_goto
  6547 ;;		_lcd_puts
  6548 ;; This function is called by:
  6549 ;;		_estadosMaquina
  6550 ;; This function uses a non-reentrant model
  6551 ;;
  6552                           psect	text17,class=CODE,space=0,reloc=2,group=0
  6553                           	line	225
  6554                           global __ptext17
  6555                           __ptext17:
  6556  002ABE                     psect	text17
  6557                           	file	"MaquinaDeLavar.c"
  6558                           	line	225
  6559                           	global	__size_of_escreve
  6560                           	__size_of_escreve	equ	__end_of_escreve-_escreve
  6561  0000                     	
  6562                           _escreve:
  6563  002ABE                     ;incstack = 0
  6564                           	opt	stack 16
  6565                           	line	228
  6566                           	
  6567                           l2711:
  6568  002ABE                     ;MaquinaDeLavar.c: 228:     lcd_clear();
  6569                           	call	_lcd_clear	;wreg free
  6570  002ABE  EC85  F015         	line	229
  6571                           	
  6572                           l2713:
  6573  002AC2                     ;MaquinaDeLavar.c: 229:     lcd_goto (0);
  6574                           	movlw	(0)&0ffh
  6575  002AC2  0E00               	
  6576                           	call	_lcd_goto
  6577  002AC4  ECB4  F015         	line	230
  6578                           	
  6579                           l2715:
  6580  002AC8                     ;MaquinaDeLavar.c: 230:     lcd_puts ( "Estado:");
  6581                           		movlw	low(STR_12)
  6582  002AC8  0E1D               	movlb	0	; () banked
  6583  002ACA  0100               	movwf	((lcd_puts@s))&0ffh
  6584  002ACC  6F81               	movlw	high(STR_12)
  6585  002ACE  0E06               	movwf	((lcd_puts@s+1))&0ffh
  6586  002AD0  6F82               
  6587                           	call	_lcd_puts	;wreg free
  6588  002AD2  ECCD  F012         	line	231
  6589                           	
  6590                           l2717:
  6591  002AD6                     ;MaquinaDeLavar.c: 231:     lcd_puts (estadoMes);
  6592                           		movlw	low(_estadoMes)
  6593  002AD6  0E20               	movlb	0	; () banked
  6594  002AD8  0100               	movwf	((lcd_puts@s))&0ffh
  6595  002ADA  6F81               	movlw	high(_estadoMes)
  6596  002ADC  0E01               	movwf	((lcd_puts@s+1))&0ffh
  6597  002ADE  6F82               
  6598                           	call	_lcd_puts	;wreg free
  6599  002AE0  ECCD  F012         	line	233
  6600                           	
  6601                           l191:
  6602  002AE4                     	return	;funcret
  6603  002AE4  0012               	opt stack 0
  6604                           GLOBAL	__end_of_escreve
  6605                           	__end_of_escreve:
  6606  002AE6                     	signat	_escreve,89
  6607                           	global	_lcd_puts
  6608                           
  6609 ;; *************** function _lcd_puts *****************
  6610 ;; Defined at:
  6611 ;;		line 62 in file "lcd.c"
  6612 ;; Parameters:    Size  Location     Type
  6613 ;;  s               2    1[BANK0 ] PTR const unsigned char 
  6614 ;;		 -> STR_14(7), STR_13(8), STR_12(8), estadoMes(15), 
  6615 ;;		 -> tempoDis(5), 
  6616 ;; Auto vars:     Size  Location     Type
  6617 ;;		None
  6618 ;; Return value:  Size  Location     Type
  6619 ;;                  1    wreg      void 
  6620 ;; Registers used:
  6621 ;;		wreg, fsr1l, fsr1h, status,2, status,0, tblptrl, tblptrh, tblptru, cstack
  6622 ;; Tracked objects:
  6623 ;;		On entry : 0/0
  6624 ;;		On exit  : 0/0
  6625 ;;		Unchanged: 0/0
  6626 ;; Data sizes:     COMRAM   BANK0   BANK1   BANK2   BANK3   BANK4   BANK5
  6627 ;;      Params:         0       2       0       0       0       0       0
  6628 ;;      Locals:         0       0       0       0       0       0       0
  6629 ;;      Temps:          0       0       0       0       0       0       0
  6630 ;;      Totals:         0       2       0       0       0       0       0
  6631 ;;Total ram usage:        2 bytes
  6632 ;; Hardware stack levels used:    1
  6633 ;; Hardware stack levels required when called:   12
  6634 ;; This function calls:
  6635 ;;		_lcd_write
  6636 ;; This function is called by:
  6637 ;;		_escreve
  6638 ;;		_escreve2
  6639 ;; This function uses a non-reentrant model
  6640 ;;
  6641                           psect	text18,class=CODE,space=0,reloc=2,group=0
  6642                           	file	"lcd.c"
  6643                           	line	62
  6644                           global __ptext18
  6645                           __ptext18:
  6646  00259A                     psect	text18
  6647                           	file	"lcd.c"
  6648                           	line	62
  6649                           	global	__size_of_lcd_puts
  6650                           	__size_of_lcd_puts	equ	__end_of_lcd_puts-_lcd_puts
  6651  0000                     	
  6652                           _lcd_puts:
  6653  00259A                     ;incstack = 0
  6654                           	opt	stack 15
  6655                           	line	64
  6656                           	
  6657                           l2595:
  6658  00259A                     ;lcd.c: 62: lcd_puts(const char * s);lcd.c: 63: {;lcd.c: 64:  LE0 = 1;
  6659                           	bsf	c:(31848/8),(31848)&7	;volatile
  6660  00259A  808D               	line	65
  6661                           ;lcd.c: 65:  while(*s)
  6662                           	goto	l2601
  6663  00259C  EFE7  F012         	
  6664                           l18:
  6665  0025A0                     	line	66
  6666                           	
  6667                           l2597:
  6668  0025A0                     ;lcd.c: 66:   lcd_write(*s++);
  6669                           	movff	(lcd_puts@s),tblptrl
  6670  0025A0  C081  FFF6         	movff	(lcd_puts@s+1),tblptrh
  6671  0025A4  C082  FFF7         	clrf	tblptru
  6672  0025A8  6AF8               	
  6673                           	movlw	high __ramtop-1
  6674  0025AA  0E05               	cpfsgt	tblptrh
  6675  0025AC  64F7               	bra	u2327
  6676  0025AE  D003               	tblrd	*
  6677  0025B0  0008               	
  6678                           	movf	tablat,w
  6679  0025B2  50F5               	bra	u2320
  6680  0025B4  D005               u2327:
  6681  0025B6                     	movff	tblptrl,fsr1l
  6682  0025B6  CFF6 FFE1          	movff	tblptrh,fsr1h
  6683  0025BA  CFF7 FFE2          	movf	indf1,w
  6684  0025BE  50E7               u2320:
  6685  0025C0                     	
  6686                           	call	_lcd_write
  6687  0025C0  EC9F  F015         	
  6688                           l2599:
  6689  0025C4                     	movlb	0	; () banked
  6690  0025C4  0100               	infsnz	((lcd_puts@s))&0ffh
  6691  0025C6  4B81               	incf	((lcd_puts@s+1))&0ffh
  6692  0025C8  2B82               	goto	l2601
  6693  0025CA  EFE7  F012         	
  6694                           l17:; BSR set to: 0
  6695  0025CE                     
  6696                           	line	65
  6697                           	
  6698                           l2601:
  6699  0025CE                     ;lcd.c: 65:  while(*s)
  6700                           	movff	(lcd_puts@s),tblptrl
  6701  0025CE  C081  FFF6         	movff	(lcd_puts@s+1),tblptrh
  6702  0025D2  C082  FFF7         	clrf	tblptru
  6703  0025D6  6AF8               	
  6704                           	movlw	high __ramtop-1
  6705  0025D8  0E05               	cpfsgt	tblptrh
  6706  0025DA  64F7               	bra	u2337
  6707  0025DC  D003               	tblrd	*
  6708  0025DE  0008               	
  6709                           	movf	tablat,w
  6710  0025E0  50F5               	bra	u2330
  6711  0025E2  D005               u2337:
  6712  0025E4                     	movff	tblptrl,fsr1l
  6713  0025E4  CFF6 FFE1          	movff	tblptrh,fsr1h
  6714  0025E8  CFF7 FFE2          	movf	indf1,w
  6715  0025EC  50E7               u2330:
  6716  0025EE                     	iorlw	0
  6717  0025EE  0900               	btfss	status,2
  6718  0025F0  A4D8               	goto	u2341
  6719  0025F2  EFFD  F012         	goto	u2340
  6720  0025F6  EFFF  F012         u2341:
  6721  0025FA                     	goto	l2597
  6722  0025FA  EFD0  F012         u2340:
  6723  0025FE                     	goto	l20
  6724  0025FE  EF01  F013         	
  6725                           l19:
  6726  002602                     	line	67
  6727                           	
  6728                           l20:
  6729  002602                     	return	;funcret
  6730  002602  0012               	opt stack 0
  6731                           GLOBAL	__end_of_lcd_puts
  6732                           	__end_of_lcd_puts:
  6733  002604                     	signat	_lcd_puts,4217
  6734                           	global	_lcd_goto
  6735                           
  6736 ;; *************** function _lcd_goto *****************
  6737 ;; Defined at:
  6738 ;;		line 84 in file "lcd.c"
  6739 ;; Parameters:    Size  Location     Type
  6740 ;;  pos             1    wreg     unsigned char 
  6741 ;; Auto vars:     Size  Location     Type
  6742 ;;  pos             1    1[BANK0 ] unsigned char 
  6743 ;; Return value:  Size  Location     Type
  6744 ;;                  1    wreg      void 
  6745 ;; Registers used:
  6746 ;;		wreg, status,2, status,0, cstack
  6747 ;; Tracked objects:
  6748 ;;		On entry : 0/0
  6749 ;;		On exit  : 0/0
  6750 ;;		Unchanged: 0/0
  6751 ;; Data sizes:     COMRAM   BANK0   BANK1   BANK2   BANK3   BANK4   BANK5
  6752 ;;      Params:         0       0       0       0       0       0       0
  6753 ;;      Locals:         0       1       0       0       0       0       0
  6754 ;;      Temps:          0       0       0       0       0       0       0
  6755 ;;      Totals:         0       1       0       0       0       0       0
  6756 ;;Total ram usage:        1 bytes
  6757 ;; Hardware stack levels used:    1
  6758 ;; Hardware stack levels required when called:   12
  6759 ;; This function calls:
  6760 ;;		_lcd_write
  6761 ;; This function is called by:
  6762 ;;		_escreve
  6763 ;;		_escreve2
  6764 ;; This function uses a non-reentrant model
  6765 ;;
  6766                           psect	text19,class=CODE,space=0,reloc=2,group=0
  6767                           	line	84
  6768                           global __ptext19
  6769                           __ptext19:
  6770  002B68                     psect	text19
  6771                           	file	"lcd.c"
  6772                           	line	84
  6773                           	global	__size_of_lcd_goto
  6774                           	__size_of_lcd_goto	equ	__end_of_lcd_goto-_lcd_goto
  6775  0000                     	
  6776                           _lcd_goto:
  6777  002B68                     ;incstack = 0
  6778                           	opt	stack 15
  6779                           ;lcd_goto@pos stored from wreg
  6780                           	movlb	0	; () banked
  6781  002B68  0100               	movwf	((lcd_goto@pos))&0ffh
  6782  002B6A  6F81               	line	86
  6783                           	
  6784                           l2603:
  6785  002B6C                     ;lcd.c: 84: lcd_goto(unsigned char pos);lcd.c: 85: {;lcd.c: 86:  LE0 = 0;
  6786                           	bcf	c:(31848/8),(31848)&7	;volatile
  6787  002B6C  908D               	line	87
  6788                           	
  6789                           l2605:
  6790  002B6E                     ;lcd.c: 87:  lcd_write(0x80+pos);
  6791                           	movlb	0	; () banked
  6792  002B6E  0100               	movf	((lcd_goto@pos))&0ffh,w
  6793  002B70  5181               	addlw	low(080h)
  6794  002B72  0F80               	
  6795                           	call	_lcd_write
  6796  002B74  EC9F  F015         	line	88
  6797                           	
  6798                           l26:
  6799  002B78                     	return	;funcret
  6800  002B78  0012               	opt stack 0
  6801                           GLOBAL	__end_of_lcd_goto
  6802                           	__end_of_lcd_goto:
  6803  002B7A                     	signat	_lcd_goto,4217
  6804                           	global	_lcd_clear
  6805                           
  6806 ;; *************** function _lcd_clear *****************
  6807 ;; Defined at:
  6808 ;;		line 52 in file "lcd.c"
  6809 ;; Parameters:    Size  Location     Type
  6810 ;;		None
  6811 ;; Auto vars:     Size  Location     Type
  6812 ;;		None
  6813 ;; Return value:  Size  Location     Type
  6814 ;;                  1    wreg      void 
  6815 ;; Registers used:
  6816 ;;		wreg, status,2, cstack
  6817 ;; Tracked objects:
  6818 ;;		On entry : 0/0
  6819 ;;		On exit  : 0/0
  6820 ;;		Unchanged: 0/0
  6821 ;; Data sizes:     COMRAM   BANK0   BANK1   BANK2   BANK3   BANK4   BANK5
  6822 ;;      Params:         0       0       0       0       0       0       0
  6823 ;;      Locals:         0       0       0       0       0       0       0
  6824 ;;      Temps:          0       1       0       0       0       0       0
  6825 ;;      Totals:         0       1       0       0       0       0       0
  6826 ;;Total ram usage:        1 bytes
  6827 ;; Hardware stack levels used:    1
  6828 ;; Hardware stack levels required when called:   12
  6829 ;; This function calls:
  6830 ;;		_lcd_write
  6831 ;; This function is called by:
  6832 ;;		_lcd_init
  6833 ;;		_escreve
  6834 ;;		_escreve2
  6835 ;; This function uses a non-reentrant model
  6836 ;;
  6837                           psect	text20,class=CODE,space=0,reloc=2,group=0
  6838                           	line	52
  6839                           global __ptext20
  6840                           __ptext20:
  6841  002B0A                     psect	text20
  6842                           	file	"lcd.c"
  6843                           	line	52
  6844                           	global	__size_of_lcd_clear
  6845                           	__size_of_lcd_clear	equ	__end_of_lcd_clear-_lcd_clear
  6846  0000                     	
  6847                           _lcd_clear:
  6848  002B0A                     ;incstack = 0
  6849                           	opt	stack 17
  6850                           	line	54
  6851                           	
  6852                           l2589:
  6853  002B0A                     ;lcd.c: 54:  LE0 = 0;
  6854                           	bcf	c:(31848/8),(31848)&7	;volatile
  6855  002B0A  908D               	line	55
  6856                           	
  6857                           l2591:
  6858  002B0C                     ;lcd.c: 55:  lcd_write(0x01);
  6859                           	movlw	(01h)&0ffh
  6860  002B0C  0E01               	
  6861                           	call	_lcd_write
  6862  002B0E  EC9F  F015         	line	56
  6863                           	
  6864                           l2593:
  6865  002B12                     ;lcd.c: 56:  _delay((unsigned long)((2)*(4000000/4000.0)));
  6866                           	opt asmopt_push
  6867                           opt asmopt_off
  6868                           movlw	3
  6869  002B12  0E03               	movlb	0	; () banked
  6870  002B14  0100               movwf	(??_lcd_clear+0+0)&0ffh,f
  6871  002B16  6F81               	movlw	151
  6872  002B18  0E97               u3037:
  6873  002B1A                     decfsz	wreg,f
  6874  002B1A  2EE8               	bra	u3037
  6875  002B1C  D7FE               	decfsz	(??_lcd_clear+0+0)&0ffh,f
  6876  002B1E  2F81               	bra	u3037
  6877  002B20  D7FC               	nop2
  6878  002B22  D000               opt asmopt_pop
  6879                           
  6880                           	line	57
  6881                           	
  6882                           l14:
  6883  002B24                     	return	;funcret
  6884  002B24  0012               	opt stack 0
  6885                           GLOBAL	__end_of_lcd_clear
  6886                           	__end_of_lcd_clear:
  6887  002B26                     	signat	_lcd_clear,89
  6888                           	global	_lcd_write
  6889                           
  6890 ;; *************** function _lcd_write *****************
  6891 ;; Defined at:
  6892 ;;		line 38 in file "lcd.c"
  6893 ;; Parameters:    Size  Location     Type
  6894 ;;  c               1    wreg     unsigned char 
  6895 ;; Auto vars:     Size  Location     Type
  6896 ;;  c               1    0[BANK0 ] unsigned char 
  6897 ;; Return value:  Size  Location     Type
  6898 ;;                  1    wreg      void 
  6899 ;; Registers used:
  6900 ;;		wreg, status,2, cstack
  6901 ;; Tracked objects:
  6902 ;;		On entry : 0/0
  6903 ;;		On exit  : 0/0
  6904 ;;		Unchanged: 0/0
  6905 ;; Data sizes:     COMRAM   BANK0   BANK1   BANK2   BANK3   BANK4   BANK5
  6906 ;;      Params:         0       0       0       0       0       0       0
  6907 ;;      Locals:         0       1       0       0       0       0       0
  6908 ;;      Temps:          0       0       0       0       0       0       0
  6909 ;;      Totals:         0       1       0       0       0       0       0
  6910 ;;Total ram usage:        1 bytes
  6911 ;; Hardware stack levels used:    1
  6912 ;; Hardware stack levels required when called:   11
  6913 ;; This function calls:
  6914 ;;		Nothing
  6915 ;; This function is called by:
  6916 ;;		_lcd_clear
  6917 ;;		_lcd_puts
  6918 ;;		_lcd_goto
  6919 ;;		_lcd_init
  6920 ;;		_lcd_putch
  6921 ;; This function uses a non-reentrant model
  6922 ;;
  6923                           psect	text21,class=CODE,space=0,reloc=2,group=0
  6924                           	line	38
  6925                           global __ptext21
  6926                           __ptext21:
  6927  002B3E                     psect	text21
  6928                           	file	"lcd.c"
  6929                           	line	38
  6930                           	global	__size_of_lcd_write
  6931                           	__size_of_lcd_write	equ	__end_of_lcd_write-_lcd_write
  6932  0000                     	
  6933                           _lcd_write:
  6934  002B3E                     ;incstack = 0
  6935                           	opt	stack 18
  6936                           ;lcd_write@c stored from wreg
  6937                           	movlb	0	; () banked
  6938  002B3E  0100               	movwf	((lcd_write@c))&0ffh
  6939  002B40  6F80               	line	40
  6940                           	
  6941                           l2489:
  6942  002B42                     ;lcd.c: 38: lcd_write(unsigned char c);lcd.c: 39: {;lcd.c: 40:  _delay((unsigned long)((
                                 1)*(4000000/4000.0)));
  6943                           	opt asmopt_push
  6944                           opt asmopt_off
  6945                           	movlw	200
  6946  002B42  0EC8               u3047:
  6947  002B44                     	nop2
  6948  002B44  D000               decfsz	wreg,f
  6949  002B46  2EE8               	bra	u3047
  6950  002B48  D7FD               opt asmopt_pop
  6951                           
  6952                           	line	41
  6953                           	
  6954                           l2491:
  6955  002B4A                     ;lcd.c: 41:     PORTD = ( c );
  6956                           	movff	(lcd_write@c),(c:3971)	;volatile
  6957  002B4A  C080  FF83         	line	42
  6958                           	
  6959                           l2493:
  6960  002B4E                     ;lcd.c: 42:  ((LE1 = 1),(LE1=0));
  6961                           	bsf	c:(31849/8),(31849)&7	;volatile
  6962  002B4E  828D               	
  6963                           l2495:
  6964  002B50                     	bcf	c:(31849/8),(31849)&7	;volatile
  6965  002B50  928D               	line	45
  6966                           	
  6967                           l11:
  6968  002B52                     	return	;funcret
  6969  002B52  0012               	opt stack 0
  6970                           GLOBAL	__end_of_lcd_write
  6971                           	__end_of_lcd_write:
  6972  002B54                     	signat	_lcd_write,4217
  6973                           	global	_config
  6974                           
  6975 ;; *************** function _config *****************
  6976 ;; Defined at:
  6977 ;;		line 72 in file "./configura.h"
  6978 ;; Parameters:    Size  Location     Type
  6979 ;;		None
  6980 ;; Auto vars:     Size  Location     Type
  6981 ;;		None
  6982 ;; Return value:  Size  Location     Type
  6983 ;;                  1    wreg      void 
  6984 ;; Registers used:
  6985 ;;		wreg, status,2
  6986 ;; Tracked objects:
  6987 ;;		On entry : 0/0
  6988 ;;		On exit  : 0/0
  6989 ;;		Unchanged: 0/0
  6990 ;; Data sizes:     COMRAM   BANK0   BANK1   BANK2   BANK3   BANK4   BANK5
  6991 ;;      Params:         0       0       0       0       0       0       0
  6992 ;;      Locals:         0       0       0       0       0       0       0
  6993 ;;      Temps:          0       0       0       0       0       0       0
  6994 ;;      Totals:         0       0       0       0       0       0       0
  6995 ;;Total ram usage:        0 bytes
  6996 ;; Hardware stack levels used:    1
  6997 ;; Hardware stack levels required when called:   11
  6998 ;; This function calls:
  6999 ;;		Nothing
  7000 ;; This function is called by:
  7001 ;;		_main
  7002 ;; This function uses a non-reentrant model
  7003 ;;
  7004                           psect	text22,class=CODE,space=0,reloc=2,group=0
  7005                           	file	"./configura.h"
  7006                           	line	72
  7007                           global __ptext22
  7008                           __ptext22:
  7009  002A08                     psect	text22
  7010                           	file	"./configura.h"
  7011                           	line	72
  7012                           	global	__size_of_config
  7013                           	__size_of_config	equ	__end_of_config-_config
  7014  0000                     	
  7015                           _config:
  7016  002A08                     ;incstack = 0
  7017                           	opt	stack 19
  7018                           	line	74
  7019                           	
  7020                           l2785:
  7021  002A08                     ;./configura.h: 74:     TRISA = 0B11011111;
  7022                           	movlw	low(0DFh)
  7023  002A08  0EDF               	movwf	((c:3986)),c	;volatile
  7024  002A0A  6E92               	line	75
  7025                           ;./configura.h: 75:     TRISB = 0B00000000;
  7026                           	movlw	low(0)
  7027  002A0C  0E00               	movwf	((c:3987)),c	;volatile
  7028  002A0E  6E93               	line	76
  7029                           	
  7030                           l2787:
  7031  002A10                     ;./configura.h: 76:     TRISC = 0B11111111;
  7032                           	setf	((c:3988)),c	;volatile
  7033  002A10  6894               	line	77
  7034                           ;./configura.h: 77:     TRISD = 0B00000000;
  7035                           	movlw	low(0)
  7036  002A12  0E00               	movwf	((c:3989)),c	;volatile
  7037  002A14  6E95               	line	78
  7038                           ;./configura.h: 78:     TRISE = 0B00001100;
  7039                           	movlw	low(0Ch)
  7040  002A16  0E0C               	movwf	((c:3990)),c	;volatile
  7041  002A18  6E96               	line	79
  7042                           ;./configura.h: 79:     OSCCON = 0B01100011;
  7043                           	movlw	low(063h)
  7044  002A1A  0E63               	movwf	((c:4051)),c	;volatile
  7045  002A1C  6ED3               	line	80
  7046                           	
  7047                           l2789:
  7048  002A1E                     ;./configura.h: 80:     IPEN=1;
  7049                           	bsf	c:(32391/8),(32391)&7	;volatile
  7050  002A1E  8ED0               	line	81
  7051                           ;./configura.h: 81:     INTCON = 0B11000000;
  7052                           	movlw	low(0C0h)
  7053  002A20  0EC0               	movwf	((c:4082)),c	;volatile
  7054  002A22  6EF2               	line	82
  7055                           ;./configura.h: 82:     T0CON = 0B11000011;
  7056                           	movlw	low(0C3h)
  7057  002A24  0EC3               	movwf	((c:4053)),c	;volatile
  7058  002A26  6ED5               	line	83
  7059                           ;./configura.h: 83:     ADCON0 = 0B00000001;
  7060                           	movlw	low(01h)
  7061  002A28  0E01               	movwf	((c:4034)),c	;volatile
  7062  002A2A  6EC2               	line	84
  7063                           ;./configura.h: 84:     ADCON1 = 0B00001110;
  7064                           	movlw	low(0Eh)
  7065  002A2C  0E0E               	movwf	((c:4033)),c	;volatile
  7066  002A2E  6EC1               	line	85
  7067                           ;./configura.h: 85:     ADCON2 = 0B10010100;
  7068                           	movlw	low(094h)
  7069  002A30  0E94               	movwf	((c:4032)),c	;volatile
  7070  002A32  6EC0               	line	86
  7071                           ;./configura.h: 86:     TXSTA = 0B00100100;
  7072                           	movlw	low(024h)
  7073  002A34  0E24               	movwf	((c:4012)),c	;volatile
  7074  002A36  6EAC               	line	87
  7075                           ;./configura.h: 87:     RCSTA = 0B10010000;
  7076                           	movlw	low(090h)
  7077  002A38  0E90               	movwf	((c:4011)),c	;volatile
  7078  002A3A  6EAB               	line	88
  7079                           ;./configura.h: 88:     BAUDCON =0;
  7080                           	movlw	low(0)
  7081  002A3C  0E00               	movwf	((c:4024)),c	;volatile
  7082  002A3E  6EB8               	line	89
  7083                           ;./configura.h: 89:     SPBRG = 25;
  7084                           	movlw	low(019h)
  7085  002A40  0E19               	movwf	((c:4015)),c	;volatile
  7086  002A42  6EAF               	line	90
  7087                           	
  7088                           l2791:
  7089  002A44                     ;./configura.h: 90:     RCIE = 1;
  7090                           	bsf	c:(31981/8),(31981)&7	;volatile
  7091  002A44  8A9D               	line	91
  7092                           	
  7093                           l2793:
  7094  002A46                     ;./configura.h: 91:     RCIP = 1;
  7095                           	bsf	c:(31997/8),(31997)&7	;volatile
  7096  002A46  8A9F               	line	92
  7097                           	
  7098                           l104:
  7099  002A48                     	return	;funcret
  7100  002A48  0012               	opt stack 0
  7101                           GLOBAL	__end_of_config
  7102                           	__end_of_config:
  7103  002A4A                     	signat	_config,89
  7104                           	global	_tmr
  7105                           
  7106 ;; *************** function _tmr *****************
  7107 ;; Defined at:
  7108 ;;		line 80 in file "MaquinaDeLavar.c"
  7109 ;; Parameters:    Size  Location     Type
  7110 ;;		None
  7111 ;; Auto vars:     Size  Location     Type
  7112 ;;		None
  7113 ;; Return value:  Size  Location     Type
  7114 ;;                  1    wreg      void 
  7115 ;; Registers used:
  7116 ;;		wreg, fsr1l, fsr1h, fsr2l, fsr2h, status,2, status,0, tblptrl, tblptrh, tblptru, cstack
  7117 ;; Tracked objects:
  7118 ;;		On entry : 0/0
  7119 ;;		On exit  : 0/0
  7120 ;;		Unchanged: 0/0
  7121 ;; Data sizes:     COMRAM   BANK0   BANK1   BANK2   BANK3   BANK4   BANK5
  7122 ;;      Params:         0       0       0       0       0       0       0
  7123 ;;      Locals:         0       0       0       0       0       0       0
  7124 ;;      Temps:          8       0       0       0       0       0       0
  7125 ;;      Totals:         8       0       0       0       0       0       0
  7126 ;;Total ram usage:        8 bytes
  7127 ;; Hardware stack levels used:    1
  7128 ;; Hardware stack levels required when called:   10
  7129 ;; This function calls:
  7130 ;;		i2_estadosMaquina
  7131 ;; This function is called by:
  7132 ;;		Interrupt level 2
  7133 ;; This function uses a non-reentrant model
  7134 ;;
  7135                           psect	intcode,class=CODE,space=0,reloc=2
  7136                           global __pintcode
  7137                           __pintcode:
  7138  000008                     psect	intcode
  7139                           	file	"MaquinaDeLavar.c"
  7140                           	line	80
  7141                           	global	__size_of_tmr
  7142                           	__size_of_tmr	equ	__end_of_tmr-_tmr
  7143  0000                     	
  7144                           _tmr:
  7145  000008                     ;incstack = 0
  7146                           	opt	stack 10
  7147                           	bsf int$flags,1,c ;set compiler interrupt flag (level 2)
  7148  000008  827C               	global	int_func
  7149                           	call	int_func,f	;refresh shadow registers
  7150  00000A  ED0F  F00F         psect	intcode_body,class=CODE,space=0,reloc=2
  7151                           global __pintcode_body
  7152                           __pintcode_body:
  7153  001E1E                     int_func:
  7154  001E1E                     
  7155                           	pop	; remove dummy address from shadow register refresh
  7156  001E1E  0006               	movff	fsr1l+0,??_tmr+0
  7157  001E20  CFE1 F06C          	movff	fsr1h+0,??_tmr+1
  7158  001E24  CFE2 F06D          	movff	fsr2l+0,??_tmr+2
  7159  001E28  CFD9 F06E          	movff	fsr2h+0,??_tmr+3
  7160  001E2C  CFDA F06F          	movff	tblptrl+0,??_tmr+4
  7161  001E30  CFF6 F070          	movff	tblptrh+0,??_tmr+5
  7162  001E34  CFF7 F071          	movff	tblptru+0,??_tmr+6
  7163  001E38  CFF8 F072          	movff	tablat+0,??_tmr+7
  7164  001E3C  CFF5 F073          	line	82
  7165                           	
  7166                           i2l3157:
  7167  001E40                     ;MaquinaDeLavar.c: 82:     if(RCIF)
  7168                           	btfss	c:(31989/8),(31989)&7	;volatile
  7169  001E40  AA9E               	goto	i2u283_41
  7170  001E42  EF25  F00F         	goto	i2u283_40
  7171  001E46  EF27  F00F         i2u283_41:
  7172  001E4A                     	goto	i2l160
  7173  001E4A  EFA2  F00F         i2u283_40:
  7174  001E4E                     	line	84
  7175                           	
  7176                           i2l3159:
  7177  001E4E                     ;MaquinaDeLavar.c: 83:     {;MaquinaDeLavar.c: 84:         RCIF=0;
  7178                           	bcf	c:(31989/8),(31989)&7	;volatile
  7179  001E4E  9A9E               	line	85
  7180                           	
  7181                           i2l3161:
  7182  001E50                     ;MaquinaDeLavar.c: 85:             if (RCREG=='T')
  7183                           		movlw	84
  7184  001E50  0E54               	xorwf	((c:4014)),c,w	;volatile
  7185  001E52  18AE               	btfss	status,2
  7186  001E54  A4D8               	goto	i2u284_41
  7187  001E56  EF2F  F00F         	goto	i2u284_40
  7188  001E5A  EF31  F00F         
  7189                           i2u284_41:
  7190  001E5E                     	goto	i2l3167
  7191  001E5E  EF44  F00F         i2u284_40:
  7192  001E62                     	goto	i2l3165
  7193  001E62  EF37  F00F         	line	87
  7194                           	
  7195                           i2l3163:
  7196  001E66                     ;MaquinaDeLavar.c: 86:             {;MaquinaDeLavar.c: 87:                 while (RCREG=
                                 ='T'){
  7197                           	goto	i2l3165
  7198  001E66  EF37  F00F         	
  7199                           i2l148:
  7200  001E6A                     	goto	i2l3165
  7201  001E6A  EF37  F00F         	line	88
  7202                           ;MaquinaDeLavar.c: 88:                 }
  7203                           	
  7204                           i2l147:
  7205  001E6E                     	line	87
  7206                           	
  7207                           i2l3165:
  7208  001E6E                     ;MaquinaDeLavar.c: 87:                 while (RCREG=='T'){
  7209                           		movlw	84
  7210  001E6E  0E54               	xorwf	((c:4014)),c,w	;volatile
  7211  001E70  18AE               	btfsc	status,2
  7212  001E72  B4D8               	goto	i2u285_41
  7213  001E74  EF3E  F00F         	goto	i2u285_40
  7214  001E78  EF40  F00F         
  7215                           i2u285_41:
  7216  001E7C                     	goto	i2l3165
  7217  001E7C  EF37  F00F         i2u285_40:
  7218  001E80                     	goto	i2l160
  7219  001E80  EFA2  F00F         	
  7220                           i2l149:
  7221  001E84                     	line	89
  7222                           ;MaquinaDeLavar.c: 89:             }else if(RCREG=='Q'){
  7223                           	goto	i2l160
  7224  001E84  EFA2  F00F         	
  7225                           i2l146:
  7226  001E88                     	
  7227                           i2l3167:
  7228  001E88                     		movlw	81
  7229  001E88  0E51               	xorwf	((c:4014)),c,w	;volatile
  7230  001E8A  18AE               	btfss	status,2
  7231  001E8C  A4D8               	goto	i2u286_41
  7232  001E8E  EF4B  F00F         	goto	i2u286_40
  7233  001E92  EF4D  F00F         
  7234                           i2u286_41:
  7235  001E96                     	goto	i2l3171
  7236  001E96  EF51  F00F         i2u286_40:
  7237  001E9A                     	line	90
  7238                           	
  7239                           i2l3169:
  7240  001E9A                     ;MaquinaDeLavar.c: 90:                 estadosMaquina();
  7241                           	call	i2_estadosMaquina	;wreg free
  7242  001E9A  EC0A  F005         	line	91
  7243                           ;MaquinaDeLavar.c: 91:             }
  7244                           	goto	i2l160
  7245  001E9E  EFA2  F00F         	line	92
  7246                           ;MaquinaDeLavar.c: 92:             else if(RCREG=='C'){
  7247                           	
  7248                           i2l151:
  7249  001EA2                     	
  7250                           i2l3171:
  7251  001EA2                     		movlw	67
  7252  001EA2  0E43               	xorwf	((c:4014)),c,w	;volatile
  7253  001EA4  18AE               	btfss	status,2
  7254  001EA6  A4D8               	goto	i2u287_41
  7255  001EA8  EF58  F00F         	goto	i2u287_40
  7256  001EAC  EF5A  F00F         
  7257                           i2u287_41:
  7258  001EB0                     	goto	i2l3175
  7259  001EB0  EF5E  F00F         i2u287_40:
  7260  001EB4                     	line	93
  7261                           	
  7262                           i2l3173:
  7263  001EB4                     ;MaquinaDeLavar.c: 93:                 estadosMaquina();
  7264                           	call	i2_estadosMaquina	;wreg free
  7265  001EB4  EC0A  F005         	line	94
  7266                           ;MaquinaDeLavar.c: 94:             }else if(RCREG=='L'){
  7267                           	goto	i2l160
  7268  001EB8  EFA2  F00F         	
  7269                           i2l153:
  7270  001EBC                     	
  7271                           i2l3175:
  7272  001EBC                     		movlw	76
  7273  001EBC  0E4C               	xorwf	((c:4014)),c,w	;volatile
  7274  001EBE  18AE               	btfss	status,2
  7275  001EC0  A4D8               	goto	i2u288_41
  7276  001EC2  EF65  F00F         	goto	i2u288_40
  7277  001EC6  EF67  F00F         
  7278                           i2u288_41:
  7279  001ECA                     	goto	i2l3181
  7280  001ECA  EF70  F00F         i2u288_40:
  7281  001ECE                     	line	95
  7282                           	
  7283                           i2l3177:
  7284  001ECE                     ;MaquinaDeLavar.c: 95:                 estado = 1;
  7285                           	movlw	high(01h)
  7286  001ECE  0E00               	movlb	0	; () banked
  7287  001ED0  0100               	movwf	((_estado+1))&0ffh
  7288  001ED2  6FF5               	movlw	low(01h)
  7289  001ED4  0E01               	movwf	((_estado))&0ffh
  7290  001ED6  6FF4               	line	96
  7291                           	
  7292                           i2l3179:; BSR set to: 0
  7293  001ED8                     
  7294                           ;MaquinaDeLavar.c: 96:                 estadosMaquina();
  7295                           	call	i2_estadosMaquina	;wreg free
  7296  001ED8  EC0A  F005         	line	97
  7297                           ;MaquinaDeLavar.c: 97:             }else if(RCREG=='D'){
  7298                           	goto	i2l160
  7299  001EDC  EFA2  F00F         	
  7300                           i2l155:
  7301  001EE0                     	
  7302                           i2l3181:
  7303  001EE0                     		movlw	68
  7304  001EE0  0E44               	xorwf	((c:4014)),c,w	;volatile
  7305  001EE2  18AE               	btfss	status,2
  7306  001EE4  A4D8               	goto	i2u289_41
  7307  001EE6  EF77  F00F         	goto	i2u289_40
  7308  001EEA  EF79  F00F         
  7309                           i2u289_41:
  7310  001EEE                     	goto	i2l3187
  7311  001EEE  EF82  F00F         i2u289_40:
  7312  001EF2                     	line	98
  7313                           	
  7314                           i2l3183:
  7315  001EF2                     ;MaquinaDeLavar.c: 98:                 estado = 9;
  7316                           	movlw	high(09h)
  7317  001EF2  0E00               	movlb	0	; () banked
  7318  001EF4  0100               	movwf	((_estado+1))&0ffh
  7319  001EF6  6FF5               	movlw	low(09h)
  7320  001EF8  0E09               	movwf	((_estado))&0ffh
  7321  001EFA  6FF4               	line	99
  7322                           	
  7323                           i2l3185:; BSR set to: 0
  7324  001EFC                     
  7325                           ;MaquinaDeLavar.c: 99:                 estadosMaquina();
  7326                           	call	i2_estadosMaquina	;wreg free
  7327  001EFC  EC0A  F005         	line	100
  7328                           ;MaquinaDeLavar.c: 100:             }else if(RCREG=='A'){
  7329                           	goto	i2l160
  7330  001F00  EFA2  F00F         	
  7331                           i2l157:
  7332  001F04                     	
  7333                           i2l3187:
  7334  001F04                     		movlw	65
  7335  001F04  0E41               	xorwf	((c:4014)),c,w	;volatile
  7336  001F06  18AE               	btfss	status,2
  7337  001F08  A4D8               	goto	i2u290_41
  7338  001F0A  EF89  F00F         	goto	i2u290_40
  7339  001F0E  EF8B  F00F         
  7340                           i2u290_41:
  7341  001F12                     	goto	i2l160
  7342  001F12  EFA2  F00F         i2u290_40:
  7343  001F16                     	line	101
  7344                           	
  7345                           i2l3189:
  7346  001F16                     ;MaquinaDeLavar.c: 101:                 estado = estado + 1;
  7347                           	movlw	low(01h)
  7348  001F16  0E01               	movlb	0	; () banked
  7349  001F18  0100               	addwf	((_estado))&0ffh,w
  7350  001F1A  25F4               	movwf	((_estado))&0ffh
  7351  001F1C  6FF4               	movlw	high(01h)
  7352  001F1E  0E00               	addwfc	((_estado+1))&0ffh,w
  7353  001F20  21F5               	movwf	1+((_estado))&0ffh
  7354  001F22  6FF5               	line	102
  7355                           	
  7356                           i2l3191:; BSR set to: 0
  7357  001F24                     
  7358                           ;MaquinaDeLavar.c: 102:                 estadosMaquina();
  7359                           	call	i2_estadosMaquina	;wreg free
  7360  001F24  EC0A  F005         	goto	i2l160
  7361  001F28  EFA2  F00F         	line	103
  7362                           ;MaquinaDeLavar.c: 103:             }
  7363                           	
  7364                           i2l159:
  7365  001F2C                     	goto	i2l160
  7366  001F2C  EFA2  F00F         	
  7367                           i2l158:
  7368  001F30                     	goto	i2l160
  7369  001F30  EFA2  F00F         	
  7370                           i2l156:
  7371  001F34                     	goto	i2l160
  7372  001F34  EFA2  F00F         	
  7373                           i2l154:
  7374  001F38                     	goto	i2l160
  7375  001F38  EFA2  F00F         	
  7376                           i2l152:
  7377  001F3C                     	goto	i2l160
  7378  001F3C  EFA2  F00F         	
  7379                           i2l150:
  7380  001F40                     	goto	i2l160
  7381  001F40  EFA2  F00F         	line	104
  7382                           ;MaquinaDeLavar.c: 104:     }
  7383                           	
  7384                           i2l145:
  7385  001F44                     	line	105
  7386                           	
  7387                           i2l160:
  7388  001F44                     	movff	??_tmr+7,tablat+0
  7389  001F44  C073  FFF5         	movff	??_tmr+6,tblptru+0
  7390  001F48  C072  FFF8         	movff	??_tmr+5,tblptrh+0
  7391  001F4C  C071  FFF7         	movff	??_tmr+4,tblptrl+0
  7392  001F50  C070  FFF6         	movff	??_tmr+3,fsr2h+0
  7393  001F54  C06F  FFDA         	movff	??_tmr+2,fsr2l+0
  7394  001F58  C06E  FFD9         	movff	??_tmr+1,fsr1h+0
  7395  001F5C  C06D  FFE2         	movff	??_tmr+0,fsr1l+0
  7396  001F60  C06C  FFE1         	bcf int$flags,1,c ;clear compiler interrupt flag (level 2)
  7397  001F64  927C               	retfie f
  7398  001F66  0011               	opt stack 0
  7399                           GLOBAL	__end_of_tmr
  7400                           	__end_of_tmr:
  7401  001F68                     	signat	_tmr,89
  7402                           	global	i2_estadosMaquina
  7403                           
  7404 ;; *************** function i2_estadosMaquina *****************
  7405 ;; Defined at:
  7406 ;;		line 117 in file "MaquinaDeLavar.c"
  7407 ;; Parameters:    Size  Location     Type
  7408 ;;		None
  7409 ;; Auto vars:     Size  Location     Type
  7410 ;;		None
  7411 ;; Return value:  Size  Location     Type
  7412 ;;                  1    wreg      void 
  7413 ;; Registers used:
  7414 ;;		wreg, fsr1l, fsr1h, fsr2l, fsr2h, status,2, status,0, tblptrl, tblptrh, tblptru, cstack
  7415 ;; Tracked objects:
  7416 ;;		On entry : 0/0
  7417 ;;		On exit  : 0/0
  7418 ;;		Unchanged: 0/0
  7419 ;; Data sizes:     COMRAM   BANK0   BANK1   BANK2   BANK3   BANK4   BANK5
  7420 ;;      Params:         0       0       0       0       0       0       0
  7421 ;;      Locals:         0       0       0       0       0       0       0
  7422 ;;      Temps:          2       0       0       0       0       0       0
  7423 ;;      Totals:         2       0       0       0       0       0       0
  7424 ;;Total ram usage:        2 bytes
  7425 ;; Hardware stack levels used:    1
  7426 ;; Hardware stack levels required when called:    9
  7427 ;; This function calls:
  7428 ;;		i2_escreve
  7429 ;;		i2_sprintf
  7430 ;;		i2_tempo1
  7431 ;; This function is called by:
  7432 ;;		_tmr
  7433 ;; This function uses a non-reentrant model
  7434 ;;
  7435                           psect	text24,class=CODE,space=0,reloc=2,group=0
  7436                           	line	117
  7437                           global __ptext24
  7438                           __ptext24:
  7439  000A14                     psect	text24
  7440                           	file	"MaquinaDeLavar.c"
  7441                           	line	117
  7442                           	global	__size_ofi2_estadosMaquina
  7443                           	__size_ofi2_estadosMaquina	equ	__end_ofi2_estadosMaquina-i2_estadosMaquina
  7444  0000                     	
  7445                           i2_estadosMaquina:
  7446  000A14                     ;incstack = 0
  7447                           	opt	stack 10
  7448                           	line	119
  7449                           	
  7450                           i2l2951:
  7451  000A14                     ;MaquinaDeLavar.c: 119:         if (estado == 0) {
  7452                           	movlb	0	; () banked
  7453  000A14  0100               	movf	((_estado))&0ffh,w
  7454  000A16  51F4               iorwf	((_estado+1))&0ffh,w
  7455  000A18  11F5               	btfss	status,2
  7456  000A1A  A4D8               	goto	i2u260_41
  7457  000A1C  EF12  F005         	goto	i2u260_40
  7458  000A20  EF14  F005         
  7459                           i2u260_41:
  7460  000A24                     	goto	i2l2961
  7461  000A24  EF28  F005         i2u260_40:
  7462  000A28                     	line	120
  7463                           	
  7464                           i2l2953:; BSR set to: 0
  7465  000A28                     
  7466                           ;MaquinaDeLavar.c: 120:             PORTBbits.RB7 =0;
  7467                           	bcf	((c:3969)),c,7	;volatile
  7468  000A28  9E81               	line	121
  7469                           ;MaquinaDeLavar.c: 121:             PORTBbits.RB5 =0;
  7470                           	bcf	((c:3969)),c,5	;volatile
  7471  000A2A  9A81               	line	122
  7472                           ;MaquinaDeLavar.c: 122:             PORTBbits.RB6 =0;
  7473                           	bcf	((c:3969)),c,6	;volatile
  7474  000A2C  9C81               	line	123
  7475                           ;MaquinaDeLavar.c: 123:             PORTBbits.RB0 = 0;
  7476                           	bcf	((c:3969)),c,0	;volatile
  7477  000A2E  9081               	line	124
  7478                           	
  7479                           i2l2955:; BSR set to: 0
  7480  000A30                     
  7481                           ;MaquinaDeLavar.c: 124:             TXREG = 0;
  7482                           	movlw	low(0)
  7483  000A30  0E00               	movwf	((c:4013)),c	;volatile
  7484  000A32  6EAD               	line	125
  7485                           	
  7486                           i2l2957:; BSR set to: 0
  7487  000A34                     
  7488                           ;MaquinaDeLavar.c: 125:             sprintf(estadoMes, "Desligado");
  7489                           		movlw	low(_estadoMes)
  7490  000A34  0E20               	movwf	((c:i2sprintf@s)),c
  7491  000A36  6E58               	movlw	high(_estadoMes)
  7492  000A38  0E01               	movwf	((c:i2sprintf@s+1)),c
  7493  000A3A  6E59               
  7494                           		movlw	low(STR_2)
  7495  000A3C  0E01               	movwf	((c:i2sprintf@fmt)),c
  7496  000A3E  6E5A               	movlw	high(STR_2)
  7497  000A40  0E06               	movwf	((c:i2sprintf@fmt+1)),c
  7498  000A42  6E5B               
  7499                           	call	i2_sprintf	;wreg free
  7500  000A44  ECCB  F013         	line	126
  7501                           	
  7502                           i2l2959:
  7503  000A48                     ;MaquinaDeLavar.c: 126:             escreve();
  7504                           	call	i2_escreve	;wreg free
  7505  000A48  EC73  F015         	line	127
  7506                           ;MaquinaDeLavar.c: 127:         }
  7507                           	goto	i2l188
  7508  000A4C  EFE1  F006         	line	128
  7509                           ;MaquinaDeLavar.c: 128:         else if (estado == 1) {
  7510                           	
  7511                           i2l169:
  7512  000A50                     	
  7513                           i2l2961:
  7514  000A50                     	movlb	0	; () banked
  7515  000A50  0100               		decf	((_estado))&0ffh,w
  7516  000A52  05F4               iorwf	((_estado+1))&0ffh,w
  7517  000A54  11F5               	btfss	status,2
  7518  000A56  A4D8               	goto	i2u261_41
  7519  000A58  EF30  F005         	goto	i2u261_40
  7520  000A5C  EF32  F005         
  7521                           i2u261_41:
  7522  000A60                     	goto	i2l2977
  7523  000A60  EF4C  F005         i2u261_40:
  7524  000A64                     	line	129
  7525                           	
  7526                           i2l2963:; BSR set to: 0
  7527  000A64                     
  7528                           ;MaquinaDeLavar.c: 129:             sprintf(estadoMes, "Encher");
  7529                           		movlw	low(_estadoMes)
  7530  000A64  0E20               	movwf	((c:i2sprintf@s)),c
  7531  000A66  6E58               	movlw	high(_estadoMes)
  7532  000A68  0E01               	movwf	((c:i2sprintf@s+1)),c
  7533  000A6A  6E59               
  7534                           		movlw	low(STR_3)
  7535  000A6C  0E3A               	movwf	((c:i2sprintf@fmt)),c
  7536  000A6E  6E5A               	movlw	high(STR_3)
  7537  000A70  0E06               	movwf	((c:i2sprintf@fmt+1)),c
  7538  000A72  6E5B               
  7539                           	call	i2_sprintf	;wreg free
  7540  000A74  ECCB  F013         	line	130
  7541                           	
  7542                           i2l2965:
  7543  000A78                     ;MaquinaDeLavar.c: 130:             PORTBbits.RB0 = 1;
  7544                           	bsf	((c:3969)),c,0	;volatile
  7545  000A78  8081               	line	131
  7546                           	
  7547                           i2l2967:
  7548  000A7A                     ;MaquinaDeLavar.c: 131:             PORTBbits.RB7 =1;
  7549                           	bsf	((c:3969)),c,7	;volatile
  7550  000A7A  8E81               	line	132
  7551                           	
  7552                           i2l2969:
  7553  000A7C                     ;MaquinaDeLavar.c: 132:             PORTBbits.RB6 =1;
  7554                           	bsf	((c:3969)),c,6	;volatile
  7555  000A7C  8C81               	line	133
  7556                           	
  7557                           i2l2971:
  7558  000A7E                     ;MaquinaDeLavar.c: 133:             TXREG = 1;
  7559                           	movlw	low(01h)
  7560  000A7E  0E01               	movwf	((c:4013)),c	;volatile
  7561  000A80  6EAD               	line	134
  7562                           	
  7563                           i2l2973:
  7564  000A82                     ;MaquinaDeLavar.c: 134:             estado = estado + 1;
  7565                           	movlw	low(01h)
  7566  000A82  0E01               	movlb	0	; () banked
  7567  000A84  0100               	addwf	((_estado))&0ffh,w
  7568  000A86  25F4               	movwf	((_estado))&0ffh
  7569  000A88  6FF4               	movlw	high(01h)
  7570  000A8A  0E00               	addwfc	((_estado+1))&0ffh,w
  7571  000A8C  21F5               	movwf	1+((_estado))&0ffh
  7572  000A8E  6FF5               	line	135
  7573                           	
  7574                           i2l2975:; BSR set to: 0
  7575  000A90                     
  7576                           ;MaquinaDeLavar.c: 135:             escreve();
  7577                           	call	i2_escreve	;wreg free
  7578  000A90  EC73  F015         	line	136
  7579                           ;MaquinaDeLavar.c: 136:         }
  7580                           	goto	i2l188
  7581  000A94  EFE1  F006         	line	137
  7582                           ;MaquinaDeLavar.c: 137:         else if( (estado == 2) && (PORTCbits.RC3 == 0)){
  7583                           	
  7584                           i2l171:
  7585  000A98                     	
  7586                           i2l2977:
  7587  000A98                     		movlw	2
  7588  000A98  0E02               	movlb	0	; () banked
  7589  000A9A  0100               	xorwf	((_estado))&0ffh,w
  7590  000A9C  19F4               iorwf	((_estado+1))&0ffh,w
  7591  000A9E  11F5               	btfss	status,2
  7592  000AA0  A4D8               	goto	i2u262_41
  7593  000AA2  EF55  F005         	goto	i2u262_40
  7594  000AA6  EF57  F005         
  7595                           i2u262_41:
  7596  000AAA                     	goto	i2l2997
  7597  000AAA  EF86  F005         i2u262_40:
  7598  000AAE                     	
  7599                           i2l2979:; BSR set to: 0
  7600  000AAE                     
  7601                           	btfsc	((c:3970)),c,3	;volatile
  7602  000AAE  B682               	goto	i2u263_41
  7603  000AB0  EF5C  F005         	goto	i2u263_40
  7604  000AB4  EF5E  F005         i2u263_41:
  7605  000AB8                     	goto	i2l2997
  7606  000AB8  EF86  F005         i2u263_40:
  7607  000ABC                     	line	138
  7608                           	
  7609                           i2l2981:; BSR set to: 0
  7610  000ABC                     
  7611                           ;MaquinaDeLavar.c: 138:             PORTBbits.RB5 =1;
  7612                           	bsf	((c:3969)),c,5	;volatile
  7613  000ABC  8A81               	line	139
  7614                           ;MaquinaDeLavar.c: 139:             PORTBbits.RB7 =0;
  7615                           	bcf	((c:3969)),c,7	;volatile
  7616  000ABE  9E81               	line	140
  7617                           ;MaquinaDeLavar.c: 140:             PORTBbits.RB6 =0;
  7618                           	bcf	((c:3969)),c,6	;volatile
  7619  000AC0  9C81               	line	141
  7620                           	
  7621                           i2l2983:; BSR set to: 0
  7622  000AC2                     
  7623                           ;MaquinaDeLavar.c: 141:             _delay((unsigned long)((500)*(4000000/4000.0)));
  7624                           	opt asmopt_push
  7625                           opt asmopt_off
  7626                           movlw  3
  7627  000AC2  0E03               movwf	(??i2_estadosMaquina+0+0+1)&0ffh,c,f
  7628  000AC4  6E6B               movlw	138
  7629  000AC6  0E8A               movwf	(??i2_estadosMaquina+0+0)&0ffh,c,f
  7630  000AC8  6E6A               	movlw	86
  7631  000ACA  0E56               i2u305_47:
  7632  000ACC                     decfsz	wreg,f
  7633  000ACC  2EE8               	bra	i2u305_47
  7634  000ACE  D7FE               	decfsz	(??i2_estadosMaquina+0+0)&0ffh,c,f
  7635  000AD0  2E6A               	bra	i2u305_47
  7636  000AD2  D7FC               	decfsz	(??i2_estadosMaquina+0+0+1)&0ffh,c,f
  7637  000AD4  2E6B               	bra	i2u305_47
  7638  000AD6  D7FA               opt asmopt_pop
  7639                           
  7640                           	line	142
  7641                           	
  7642                           i2l2985:
  7643  000AD8                     ;MaquinaDeLavar.c: 142:             PORTBbits.RB7 = 1;
  7644                           	bsf	((c:3969)),c,7	;volatile
  7645  000AD8  8E81               	line	143
  7646                           	
  7647                           i2l2987:
  7648  000ADA                     ;MaquinaDeLavar.c: 143:             sprintf(estadoMes, "Agitar");
  7649                           		movlw	low(_estadoMes)
  7650  000ADA  0E20               	movwf	((c:i2sprintf@s)),c
  7651  000ADC  6E58               	movlw	high(_estadoMes)
  7652  000ADE  0E01               	movwf	((c:i2sprintf@s+1)),c
  7653  000AE0  6E59               
  7654                           		movlw	low(STR_4)
  7655  000AE2  0E33               	movwf	((c:i2sprintf@fmt)),c
  7656  000AE4  6E5A               	movlw	high(STR_4)
  7657  000AE6  0E06               	movwf	((c:i2sprintf@fmt+1)),c
  7658  000AE8  6E5B               
  7659                           	call	i2_sprintf	;wreg free
  7660  000AEA  ECCB  F013         	line	144
  7661                           	
  7662                           i2l2989:
  7663  000AEE                     ;MaquinaDeLavar.c: 144:             tempo1();
  7664                           	call	i2_tempo1	;wreg free
  7665  000AEE  EC53  F012         	line	145
  7666                           	
  7667                           i2l2991:
  7668  000AF2                     ;MaquinaDeLavar.c: 145:             TXREG = 2;
  7669                           	movlw	low(02h)
  7670  000AF2  0E02               	movwf	((c:4013)),c	;volatile
  7671  000AF4  6EAD               	line	146
  7672                           	
  7673                           i2l2993:
  7674  000AF6                     ;MaquinaDeLavar.c: 146:             estado = estado + 1;
  7675                           	movlw	low(01h)
  7676  000AF6  0E01               	movlb	0	; () banked
  7677  000AF8  0100               	addwf	((_estado))&0ffh,w
  7678  000AFA  25F4               	movwf	((_estado))&0ffh
  7679  000AFC  6FF4               	movlw	high(01h)
  7680  000AFE  0E00               	addwfc	((_estado+1))&0ffh,w
  7681  000B00  21F5               	movwf	1+((_estado))&0ffh
  7682  000B02  6FF5               	line	147
  7683                           	
  7684                           i2l2995:; BSR set to: 0
  7685  000B04                     
  7686                           ;MaquinaDeLavar.c: 147:             escreve();
  7687                           	call	i2_escreve	;wreg free
  7688  000B04  EC73  F015         	line	148
  7689                           ;MaquinaDeLavar.c: 148:         }
  7690                           	goto	i2l188
  7691  000B08  EFE1  F006         	line	149
  7692                           ;MaquinaDeLavar.c: 149:         else if (estado == 3){
  7693                           	
  7694                           i2l173:
  7695  000B0C                     	
  7696                           i2l2997:
  7697  000B0C                     		movlw	3
  7698  000B0C  0E03               	movlb	0	; () banked
  7699  000B0E  0100               	xorwf	((_estado))&0ffh,w
  7700  000B10  19F4               iorwf	((_estado+1))&0ffh,w
  7701  000B12  11F5               	btfss	status,2
  7702  000B14  A4D8               	goto	i2u264_41
  7703  000B16  EF8F  F005         	goto	i2u264_40
  7704  000B1A  EF91  F005         
  7705                           i2u264_41:
  7706  000B1E                     	goto	i2l3013
  7707  000B1E  EFB6  F005         i2u264_40:
  7708  000B22                     	line	150
  7709                           	
  7710                           i2l2999:; BSR set to: 0
  7711  000B22                     
  7712                           ;MaquinaDeLavar.c: 150:             PORTBbits.RB5 =0;
  7713                           	bcf	((c:3969)),c,5	;volatile
  7714  000B22  9A81               	line	151
  7715                           ;MaquinaDeLavar.c: 151:             PORTBbits.RB7 =0;
  7716                           	bcf	((c:3969)),c,7	;volatile
  7717  000B24  9E81               	line	152
  7718                           	
  7719                           i2l3001:; BSR set to: 0
  7720  000B26                     
  7721                           ;MaquinaDeLavar.c: 152:             _delay((unsigned long)((500)*(4000000/4000.0)));
  7722                           	opt asmopt_push
  7723                           opt asmopt_off
  7724                           movlw  3
  7725  000B26  0E03               movwf	(??i2_estadosMaquina+0+0+1)&0ffh,c,f
  7726  000B28  6E6B               movlw	138
  7727  000B2A  0E8A               movwf	(??i2_estadosMaquina+0+0)&0ffh,c,f
  7728  000B2C  6E6A               	movlw	86
  7729  000B2E  0E56               i2u306_47:
  7730  000B30                     decfsz	wreg,f
  7731  000B30  2EE8               	bra	i2u306_47
  7732  000B32  D7FE               	decfsz	(??i2_estadosMaquina+0+0)&0ffh,c,f
  7733  000B34  2E6A               	bra	i2u306_47
  7734  000B36  D7FC               	decfsz	(??i2_estadosMaquina+0+0+1)&0ffh,c,f
  7735  000B38  2E6B               	bra	i2u306_47
  7736  000B3A  D7FA               opt asmopt_pop
  7737                           
  7738                           	line	153
  7739                           	
  7740                           i2l3003:
  7741  000B3C                     ;MaquinaDeLavar.c: 153:             PORTBbits.RB6 =1;
  7742                           	bsf	((c:3969)),c,6	;volatile
  7743  000B3C  8C81               	line	154
  7744                           	
  7745                           i2l3005:
  7746  000B3E                     ;MaquinaDeLavar.c: 154:             sprintf(estadoMes, "Drenar");
  7747                           		movlw	low(_estadoMes)
  7748  000B3E  0E20               	movwf	((c:i2sprintf@s)),c
  7749  000B40  6E58               	movlw	high(_estadoMes)
  7750  000B42  0E01               	movwf	((c:i2sprintf@s+1)),c
  7751  000B44  6E59               
  7752                           		movlw	low(STR_5)
  7753  000B46  0E2C               	movwf	((c:i2sprintf@fmt)),c
  7754  000B48  6E5A               	movlw	high(STR_5)
  7755  000B4A  0E06               	movwf	((c:i2sprintf@fmt+1)),c
  7756  000B4C  6E5B               
  7757                           	call	i2_sprintf	;wreg free
  7758  000B4E  ECCB  F013         	line	155
  7759                           	
  7760                           i2l3007:
  7761  000B52                     ;MaquinaDeLavar.c: 155:             TXREG = 3;
  7762                           	movlw	low(03h)
  7763  000B52  0E03               	movwf	((c:4013)),c	;volatile
  7764  000B54  6EAD               	line	156
  7765                           	
  7766                           i2l3009:
  7767  000B56                     ;MaquinaDeLavar.c: 156:             estado = estado + 1;
  7768                           	movlw	low(01h)
  7769  000B56  0E01               	movlb	0	; () banked
  7770  000B58  0100               	addwf	((_estado))&0ffh,w
  7771  000B5A  25F4               	movwf	((_estado))&0ffh
  7772  000B5C  6FF4               	movlw	high(01h)
  7773  000B5E  0E00               	addwfc	((_estado+1))&0ffh,w
  7774  000B60  21F5               	movwf	1+((_estado))&0ffh
  7775  000B62  6FF5               	line	157
  7776                           	
  7777                           i2l3011:; BSR set to: 0
  7778  000B64                     
  7779                           ;MaquinaDeLavar.c: 157:             escreve();
  7780                           	call	i2_escreve	;wreg free
  7781  000B64  EC73  F015         	line	158
  7782                           ;MaquinaDeLavar.c: 158:         }
  7783                           	goto	i2l188
  7784  000B68  EFE1  F006         	line	159
  7785                           ;MaquinaDeLavar.c: 159:         else if( (estado == 4) && (PORTCbits.RC0 == 0 )){
  7786                           	
  7787                           i2l175:
  7788  000B6C                     	
  7789                           i2l3013:
  7790  000B6C                     		movlw	4
  7791  000B6C  0E04               	movlb	0	; () banked
  7792  000B6E  0100               	xorwf	((_estado))&0ffh,w
  7793  000B70  19F4               iorwf	((_estado+1))&0ffh,w
  7794  000B72  11F5               	btfss	status,2
  7795  000B74  A4D8               	goto	i2u265_41
  7796  000B76  EFBF  F005         	goto	i2u265_40
  7797  000B7A  EFC1  F005         
  7798                           i2u265_41:
  7799  000B7E                     	goto	i2l3027
  7800  000B7E  EFE3  F005         i2u265_40:
  7801  000B82                     	
  7802                           i2l3015:; BSR set to: 0
  7803  000B82                     
  7804                           	btfsc	((c:3970)),c,0	;volatile
  7805  000B82  B082               	goto	i2u266_41
  7806  000B84  EFC6  F005         	goto	i2u266_40
  7807  000B88  EFC8  F005         i2u266_41:
  7808  000B8C                     	goto	i2l3027
  7809  000B8C  EFE3  F005         i2u266_40:
  7810  000B90                     	line	160
  7811                           	
  7812                           i2l3017:; BSR set to: 0
  7813  000B90                     
  7814                           ;MaquinaDeLavar.c: 160:              PORTBbits.RB5 =1;
  7815                           	bsf	((c:3969)),c,5	;volatile
  7816  000B90  8A81               	line	161
  7817                           ;MaquinaDeLavar.c: 161:              PORTBbits.RB7 =1;
  7818                           	bsf	((c:3969)),c,7	;volatile
  7819  000B92  8E81               	line	162
  7820                           	
  7821                           i2l3019:; BSR set to: 0
  7822  000B94                     
  7823                           ;MaquinaDeLavar.c: 162:              sprintf(estadoMes, "Centrif.");
  7824                           		movlw	low(_estadoMes)
  7825  000B94  0E20               	movwf	((c:i2sprintf@s)),c
  7826  000B96  6E58               	movlw	high(_estadoMes)
  7827  000B98  0E01               	movwf	((c:i2sprintf@s+1)),c
  7828  000B9A  6E59               
  7829                           		movlw	low(STR_6)
  7830  000B9C  0E0B               	movwf	((c:i2sprintf@fmt)),c
  7831  000B9E  6E5A               	movlw	high(STR_6)
  7832  000BA0  0E06               	movwf	((c:i2sprintf@fmt+1)),c
  7833  000BA2  6E5B               
  7834                           	call	i2_sprintf	;wreg free
  7835  000BA4  ECCB  F013         	line	163
  7836                           ;MaquinaDeLavar.c: 163:              tempo1();
  7837                           	call	i2_tempo1	;wreg free
  7838  000BA8  EC53  F012         	line	164
  7839                           	
  7840                           i2l3021:
  7841  000BAC                     ;MaquinaDeLavar.c: 164:              TXREG = 4;
  7842                           	movlw	low(04h)
  7843  000BAC  0E04               	movwf	((c:4013)),c	;volatile
  7844  000BAE  6EAD               	line	165
  7845                           	
  7846                           i2l3023:
  7847  000BB0                     ;MaquinaDeLavar.c: 165:              estado = estado + 1;
  7848                           	movlw	low(01h)
  7849  000BB0  0E01               	movlb	0	; () banked
  7850  000BB2  0100               	addwf	((_estado))&0ffh,w
  7851  000BB4  25F4               	movwf	((_estado))&0ffh
  7852  000BB6  6FF4               	movlw	high(01h)
  7853  000BB8  0E00               	addwfc	((_estado+1))&0ffh,w
  7854  000BBA  21F5               	movwf	1+((_estado))&0ffh
  7855  000BBC  6FF5               	line	166
  7856                           	
  7857                           i2l3025:; BSR set to: 0
  7858  000BBE                     
  7859                           ;MaquinaDeLavar.c: 166:              escreve();
  7860                           	call	i2_escreve	;wreg free
  7861  000BBE  EC73  F015         	line	167
  7862                           ;MaquinaDeLavar.c: 167:         }
  7863                           	goto	i2l188
  7864  000BC2  EFE1  F006         	line	168
  7865                           ;MaquinaDeLavar.c: 168:         else if(estado == 5){
  7866                           	
  7867                           i2l177:
  7868  000BC6                     	
  7869                           i2l3027:
  7870  000BC6                     		movlw	5
  7871  000BC6  0E05               	movlb	0	; () banked
  7872  000BC8  0100               	xorwf	((_estado))&0ffh,w
  7873  000BCA  19F4               iorwf	((_estado+1))&0ffh,w
  7874  000BCC  11F5               	btfss	status,2
  7875  000BCE  A4D8               	goto	i2u267_41
  7876  000BD0  EFEC  F005         	goto	i2u267_40
  7877  000BD4  EFEE  F005         
  7878                           i2u267_41:
  7879  000BD8                     	goto	i2l3045
  7880  000BD8  EF15  F006         i2u267_40:
  7881  000BDC                     	line	169
  7882                           	
  7883                           i2l3029:; BSR set to: 0
  7884  000BDC                     
  7885                           ;MaquinaDeLavar.c: 169:             PORTBbits.RB7 =0;
  7886                           	bcf	((c:3969)),c,7	;volatile
  7887  000BDC  9E81               	line	170
  7888                           ;MaquinaDeLavar.c: 170:             PORTBbits.RB6 =0;
  7889                           	bcf	((c:3969)),c,6	;volatile
  7890  000BDE  9C81               	line	171
  7891                           ;MaquinaDeLavar.c: 171:              PORTBbits.RB5 =0;
  7892                           	bcf	((c:3969)),c,5	;volatile
  7893  000BE0  9A81               	line	172
  7894                           	
  7895                           i2l3031:; BSR set to: 0
  7896  000BE2                     
  7897                           ;MaquinaDeLavar.c: 172:             _delay((unsigned long)((500)*(4000000/4000.0)));
  7898                           	opt asmopt_push
  7899                           opt asmopt_off
  7900                           movlw  3
  7901  000BE2  0E03               movwf	(??i2_estadosMaquina+0+0+1)&0ffh,c,f
  7902  000BE4  6E6B               movlw	138
  7903  000BE6  0E8A               movwf	(??i2_estadosMaquina+0+0)&0ffh,c,f
  7904  000BE8  6E6A               	movlw	86
  7905  000BEA  0E56               i2u307_47:
  7906  000BEC                     decfsz	wreg,f
  7907  000BEC  2EE8               	bra	i2u307_47
  7908  000BEE  D7FE               	decfsz	(??i2_estadosMaquina+0+0)&0ffh,c,f
  7909  000BF0  2E6A               	bra	i2u307_47
  7910  000BF2  D7FC               	decfsz	(??i2_estadosMaquina+0+0+1)&0ffh,c,f
  7911  000BF4  2E6B               	bra	i2u307_47
  7912  000BF6  D7FA               opt asmopt_pop
  7913                           
  7914                           	line	173
  7915                           	
  7916                           i2l3033:
  7917  000BF8                     ;MaquinaDeLavar.c: 173:              PORTBbits.RB7 =1;
  7918                           	bsf	((c:3969)),c,7	;volatile
  7919  000BF8  8E81               	line	174
  7920                           	
  7921                           i2l3035:
  7922  000BFA                     ;MaquinaDeLavar.c: 174:              PORTBbits.RB6 =1;
  7923                           	bsf	((c:3969)),c,6	;volatile
  7924  000BFA  8C81               	line	175
  7925                           	
  7926                           i2l3037:
  7927  000BFC                     ;MaquinaDeLavar.c: 175:             sprintf(estadoMes, "Enxaguar");
  7928                           		movlw	low(_estadoMes)
  7929  000BFC  0E20               	movwf	((c:i2sprintf@s)),c
  7930  000BFE  6E58               	movlw	high(_estadoMes)
  7931  000C00  0E01               	movwf	((c:i2sprintf@s+1)),c
  7932  000C02  6E59               
  7933                           		movlw	low(STR_7)
  7934  000C04  0E14               	movwf	((c:i2sprintf@fmt)),c
  7935  000C06  6E5A               	movlw	high(STR_7)
  7936  000C08  0E06               	movwf	((c:i2sprintf@fmt+1)),c
  7937  000C0A  6E5B               
  7938                           	call	i2_sprintf	;wreg free
  7939  000C0C  ECCB  F013         	line	176
  7940                           	
  7941                           i2l3039:
  7942  000C10                     ;MaquinaDeLavar.c: 176:             TXREG = 5;
  7943                           	movlw	low(05h)
  7944  000C10  0E05               	movwf	((c:4013)),c	;volatile
  7945  000C12  6EAD               	line	177
  7946                           	
  7947                           i2l3041:
  7948  000C14                     ;MaquinaDeLavar.c: 177:             estado = estado + 1;
  7949                           	movlw	low(01h)
  7950  000C14  0E01               	movlb	0	; () banked
  7951  000C16  0100               	addwf	((_estado))&0ffh,w
  7952  000C18  25F4               	movwf	((_estado))&0ffh
  7953  000C1A  6FF4               	movlw	high(01h)
  7954  000C1C  0E00               	addwfc	((_estado+1))&0ffh,w
  7955  000C1E  21F5               	movwf	1+((_estado))&0ffh
  7956  000C20  6FF5               	line	178
  7957                           	
  7958                           i2l3043:; BSR set to: 0
  7959  000C22                     
  7960                           ;MaquinaDeLavar.c: 178:             escreve();
  7961                           	call	i2_escreve	;wreg free
  7962  000C22  EC73  F015         	line	179
  7963                           ;MaquinaDeLavar.c: 179:         }
  7964                           	goto	i2l188
  7965  000C26  EFE1  F006         	line	180
  7966                           ;MaquinaDeLavar.c: 180:         else if((estado == 6) && (PORTCbits.RC3 == 0)){
  7967                           	
  7968                           i2l179:
  7969  000C2A                     	
  7970                           i2l3045:
  7971  000C2A                     		movlw	6
  7972  000C2A  0E06               	movlb	0	; () banked
  7973  000C2C  0100               	xorwf	((_estado))&0ffh,w
  7974  000C2E  19F4               iorwf	((_estado+1))&0ffh,w
  7975  000C30  11F5               	btfss	status,2
  7976  000C32  A4D8               	goto	i2u268_41
  7977  000C34  EF1E  F006         	goto	i2u268_40
  7978  000C38  EF20  F006         
  7979                           i2u268_41:
  7980  000C3C                     	goto	i2l3067
  7981  000C3C  EF4F  F006         i2u268_40:
  7982  000C40                     	
  7983                           i2l3047:; BSR set to: 0
  7984  000C40                     
  7985                           	btfsc	((c:3970)),c,3	;volatile
  7986  000C40  B682               	goto	i2u269_41
  7987  000C42  EF25  F006         	goto	i2u269_40
  7988  000C46  EF27  F006         i2u269_41:
  7989  000C4A                     	goto	i2l3067
  7990  000C4A  EF4F  F006         i2u269_40:
  7991  000C4E                     	line	181
  7992                           	
  7993                           i2l3049:; BSR set to: 0
  7994  000C4E                     
  7995                           ;MaquinaDeLavar.c: 181:             PORTBbits.RB7 =0;
  7996                           	bcf	((c:3969)),c,7	;volatile
  7997  000C4E  9E81               	line	182
  7998                           ;MaquinaDeLavar.c: 182:             PORTBbits.RB6 =0;
  7999                           	bcf	((c:3969)),c,6	;volatile
  8000  000C50  9C81               	line	183
  8001                           	
  8002                           i2l3051:; BSR set to: 0
  8003  000C52                     
  8004                           ;MaquinaDeLavar.c: 183:             _delay((unsigned long)((500)*(4000000/4000.0)));
  8005                           	opt asmopt_push
  8006                           opt asmopt_off
  8007                           movlw  3
  8008  000C52  0E03               movwf	(??i2_estadosMaquina+0+0+1)&0ffh,c,f
  8009  000C54  6E6B               movlw	138
  8010  000C56  0E8A               movwf	(??i2_estadosMaquina+0+0)&0ffh,c,f
  8011  000C58  6E6A               	movlw	86
  8012  000C5A  0E56               i2u308_47:
  8013  000C5C                     decfsz	wreg,f
  8014  000C5C  2EE8               	bra	i2u308_47
  8015  000C5E  D7FE               	decfsz	(??i2_estadosMaquina+0+0)&0ffh,c,f
  8016  000C60  2E6A               	bra	i2u308_47
  8017  000C62  D7FC               	decfsz	(??i2_estadosMaquina+0+0+1)&0ffh,c,f
  8018  000C64  2E6B               	bra	i2u308_47
  8019  000C66  D7FA               opt asmopt_pop
  8020                           
  8021                           	line	184
  8022                           	
  8023                           i2l3053:
  8024  000C68                     ;MaquinaDeLavar.c: 184:             PORTBbits.RB7 =1;
  8025                           	bsf	((c:3969)),c,7	;volatile
  8026  000C68  8E81               	line	185
  8027                           	
  8028                           i2l3055:
  8029  000C6A                     ;MaquinaDeLavar.c: 185:             PORTBbits.RB5 =1;
  8030                           	bsf	((c:3969)),c,5	;volatile
  8031  000C6A  8A81               	line	186
  8032                           	
  8033                           i2l3057:
  8034  000C6C                     ;MaquinaDeLavar.c: 186:             sprintf(estadoMes, "Agitar");
  8035                           		movlw	low(_estadoMes)
  8036  000C6C  0E20               	movwf	((c:i2sprintf@s)),c
  8037  000C6E  6E58               	movlw	high(_estadoMes)
  8038  000C70  0E01               	movwf	((c:i2sprintf@s+1)),c
  8039  000C72  6E59               
  8040                           		movlw	low(STR_8)
  8041  000C74  0E33               	movwf	((c:i2sprintf@fmt)),c
  8042  000C76  6E5A               	movlw	high(STR_8)
  8043  000C78  0E06               	movwf	((c:i2sprintf@fmt+1)),c
  8044  000C7A  6E5B               
  8045                           	call	i2_sprintf	;wreg free
  8046  000C7C  ECCB  F013         	line	187
  8047                           	
  8048                           i2l3059:
  8049  000C80                     ;MaquinaDeLavar.c: 187:             tempo1();
  8050                           	call	i2_tempo1	;wreg free
  8051  000C80  EC53  F012         	line	188
  8052                           	
  8053                           i2l3061:
  8054  000C84                     ;MaquinaDeLavar.c: 188:             TXREG = 6;
  8055                           	movlw	low(06h)
  8056  000C84  0E06               	movwf	((c:4013)),c	;volatile
  8057  000C86  6EAD               	line	189
  8058                           	
  8059                           i2l3063:
  8060  000C88                     ;MaquinaDeLavar.c: 189:             estado = estado + 1;
  8061                           	movlw	low(01h)
  8062  000C88  0E01               	movlb	0	; () banked
  8063  000C8A  0100               	addwf	((_estado))&0ffh,w
  8064  000C8C  25F4               	movwf	((_estado))&0ffh
  8065  000C8E  6FF4               	movlw	high(01h)
  8066  000C90  0E00               	addwfc	((_estado+1))&0ffh,w
  8067  000C92  21F5               	movwf	1+((_estado))&0ffh
  8068  000C94  6FF5               	line	190
  8069                           	
  8070                           i2l3065:; BSR set to: 0
  8071  000C96                     
  8072                           ;MaquinaDeLavar.c: 190:             escreve();
  8073                           	call	i2_escreve	;wreg free
  8074  000C96  EC73  F015         	line	191
  8075                           ;MaquinaDeLavar.c: 191:         }
  8076                           	goto	i2l188
  8077  000C9A  EFE1  F006         	line	192
  8078                           ;MaquinaDeLavar.c: 192:         else if (estado == 7){
  8079                           	
  8080                           i2l181:
  8081  000C9E                     	
  8082                           i2l3067:
  8083  000C9E                     		movlw	7
  8084  000C9E  0E07               	movlb	0	; () banked
  8085  000CA0  0100               	xorwf	((_estado))&0ffh,w
  8086  000CA2  19F4               iorwf	((_estado+1))&0ffh,w
  8087  000CA4  11F5               	btfss	status,2
  8088  000CA6  A4D8               	goto	i2u270_41
  8089  000CA8  EF58  F006         	goto	i2u270_40
  8090  000CAC  EF5A  F006         
  8091                           i2u270_41:
  8092  000CB0                     	goto	i2l3083
  8093  000CB0  EF7F  F006         i2u270_40:
  8094  000CB4                     	line	193
  8095                           	
  8096                           i2l3069:; BSR set to: 0
  8097  000CB4                     
  8098                           ;MaquinaDeLavar.c: 193:             PORTBbits.RB7 =0;
  8099                           	bcf	((c:3969)),c,7	;volatile
  8100  000CB4  9E81               	line	194
  8101                           ;MaquinaDeLavar.c: 194:             PORTBbits.RB5 =0;
  8102                           	bcf	((c:3969)),c,5	;volatile
  8103  000CB6  9A81               	line	195
  8104                           	
  8105                           i2l3071:; BSR set to: 0
  8106  000CB8                     
  8107                           ;MaquinaDeLavar.c: 195:             _delay((unsigned long)((500)*(4000000/4000.0)));
  8108                           	opt asmopt_push
  8109                           opt asmopt_off
  8110                           movlw  3
  8111  000CB8  0E03               movwf	(??i2_estadosMaquina+0+0+1)&0ffh,c,f
  8112  000CBA  6E6B               movlw	138
  8113  000CBC  0E8A               movwf	(??i2_estadosMaquina+0+0)&0ffh,c,f
  8114  000CBE  6E6A               	movlw	86
  8115  000CC0  0E56               i2u309_47:
  8116  000CC2                     decfsz	wreg,f
  8117  000CC2  2EE8               	bra	i2u309_47
  8118  000CC4  D7FE               	decfsz	(??i2_estadosMaquina+0+0)&0ffh,c,f
  8119  000CC6  2E6A               	bra	i2u309_47
  8120  000CC8  D7FC               	decfsz	(??i2_estadosMaquina+0+0+1)&0ffh,c,f
  8121  000CCA  2E6B               	bra	i2u309_47
  8122  000CCC  D7FA               opt asmopt_pop
  8123                           
  8124                           	line	196
  8125                           	
  8126                           i2l3073:
  8127  000CCE                     ;MaquinaDeLavar.c: 196:             PORTBbits.RB6 =1;
  8128                           	bsf	((c:3969)),c,6	;volatile
  8129  000CCE  8C81               	line	197
  8130                           	
  8131                           i2l3075:
  8132  000CD0                     ;MaquinaDeLavar.c: 197:             sprintf(estadoMes, "Drenar");
  8133                           		movlw	low(_estadoMes)
  8134  000CD0  0E20               	movwf	((c:i2sprintf@s)),c
  8135  000CD2  6E58               	movlw	high(_estadoMes)
  8136  000CD4  0E01               	movwf	((c:i2sprintf@s+1)),c
  8137  000CD6  6E59               
  8138                           		movlw	low(STR_9)
  8139  000CD8  0E2C               	movwf	((c:i2sprintf@fmt)),c
  8140  000CDA  6E5A               	movlw	high(STR_9)
  8141  000CDC  0E06               	movwf	((c:i2sprintf@fmt+1)),c
  8142  000CDE  6E5B               
  8143                           	call	i2_sprintf	;wreg free
  8144  000CE0  ECCB  F013         	line	198
  8145                           	
  8146                           i2l3077:
  8147  000CE4                     ;MaquinaDeLavar.c: 198:             TXREG = 7;
  8148                           	movlw	low(07h)
  8149  000CE4  0E07               	movwf	((c:4013)),c	;volatile
  8150  000CE6  6EAD               	line	199
  8151                           	
  8152                           i2l3079:
  8153  000CE8                     ;MaquinaDeLavar.c: 199:             estado = estado + 1;
  8154                           	movlw	low(01h)
  8155  000CE8  0E01               	movlb	0	; () banked
  8156  000CEA  0100               	addwf	((_estado))&0ffh,w
  8157  000CEC  25F4               	movwf	((_estado))&0ffh
  8158  000CEE  6FF4               	movlw	high(01h)
  8159  000CF0  0E00               	addwfc	((_estado+1))&0ffh,w
  8160  000CF2  21F5               	movwf	1+((_estado))&0ffh
  8161  000CF4  6FF5               	line	200
  8162                           	
  8163                           i2l3081:; BSR set to: 0
  8164  000CF6                     
  8165                           ;MaquinaDeLavar.c: 200:             escreve();
  8166                           	call	i2_escreve	;wreg free
  8167  000CF6  EC73  F015         	line	201
  8168                           ;MaquinaDeLavar.c: 201:         }
  8169                           	goto	i2l188
  8170  000CFA  EFE1  F006         	line	202
  8171                           ;MaquinaDeLavar.c: 202:         else if((estado == 8) && (PORTCbits.RC0 == 0 )){
  8172                           	
  8173                           i2l183:
  8174  000CFE                     	
  8175                           i2l3083:
  8176  000CFE                     		movlw	8
  8177  000CFE  0E08               	movlb	0	; () banked
  8178  000D00  0100               	xorwf	((_estado))&0ffh,w
  8179  000D02  19F4               iorwf	((_estado+1))&0ffh,w
  8180  000D04  11F5               	btfss	status,2
  8181  000D06  A4D8               	goto	i2u271_41
  8182  000D08  EF88  F006         	goto	i2u271_40
  8183  000D0C  EF8A  F006         
  8184                           i2u271_41:
  8185  000D10                     	goto	i2l3097
  8186  000D10  EFAC  F006         i2u271_40:
  8187  000D14                     	
  8188                           i2l3085:; BSR set to: 0
  8189  000D14                     
  8190                           	btfsc	((c:3970)),c,0	;volatile
  8191  000D14  B082               	goto	i2u272_41
  8192  000D16  EF8F  F006         	goto	i2u272_40
  8193  000D1A  EF91  F006         i2u272_41:
  8194  000D1E                     	goto	i2l3097
  8195  000D1E  EFAC  F006         i2u272_40:
  8196  000D22                     	line	203
  8197                           	
  8198                           i2l3087:; BSR set to: 0
  8199  000D22                     
  8200                           ;MaquinaDeLavar.c: 203:             PORTBbits.RB7 =1;
  8201                           	bsf	((c:3969)),c,7	;volatile
  8202  000D22  8E81               	line	204
  8203                           ;MaquinaDeLavar.c: 204:             PORTBbits.RB5 =1;
  8204                           	bsf	((c:3969)),c,5	;volatile
  8205  000D24  8A81               	line	205
  8206                           	
  8207                           i2l3089:; BSR set to: 0
  8208  000D26                     
  8209                           ;MaquinaDeLavar.c: 205:             sprintf(estadoMes, "Centrif.");
  8210                           		movlw	low(_estadoMes)
  8211  000D26  0E20               	movwf	((c:i2sprintf@s)),c
  8212  000D28  6E58               	movlw	high(_estadoMes)
  8213  000D2A  0E01               	movwf	((c:i2sprintf@s+1)),c
  8214  000D2C  6E59               
  8215                           		movlw	low(STR_10)
  8216  000D2E  0E0B               	movwf	((c:i2sprintf@fmt)),c
  8217  000D30  6E5A               	movlw	high(STR_10)
  8218  000D32  0E06               	movwf	((c:i2sprintf@fmt+1)),c
  8219  000D34  6E5B               
  8220                           	call	i2_sprintf	;wreg free
  8221  000D36  ECCB  F013         	line	206
  8222                           ;MaquinaDeLavar.c: 206:             tempo1();
  8223                           	call	i2_tempo1	;wreg free
  8224  000D3A  EC53  F012         	line	207
  8225                           	
  8226                           i2l3091:
  8227  000D3E                     ;MaquinaDeLavar.c: 207:             TXREG = 8;
  8228                           	movlw	low(08h)
  8229  000D3E  0E08               	movwf	((c:4013)),c	;volatile
  8230  000D40  6EAD               	line	208
  8231                           	
  8232                           i2l3093:
  8233  000D42                     ;MaquinaDeLavar.c: 208:             estado = estado + 1;
  8234                           	movlw	low(01h)
  8235  000D42  0E01               	movlb	0	; () banked
  8236  000D44  0100               	addwf	((_estado))&0ffh,w
  8237  000D46  25F4               	movwf	((_estado))&0ffh
  8238  000D48  6FF4               	movlw	high(01h)
  8239  000D4A  0E00               	addwfc	((_estado+1))&0ffh,w
  8240  000D4C  21F5               	movwf	1+((_estado))&0ffh
  8241  000D4E  6FF5               	line	209
  8242                           	
  8243                           i2l3095:; BSR set to: 0
  8244  000D50                     
  8245                           ;MaquinaDeLavar.c: 209:             escreve();
  8246                           	call	i2_escreve	;wreg free
  8247  000D50  EC73  F015         	line	210
  8248                           ;MaquinaDeLavar.c: 210:         }else if (estado == 9){
  8249                           	goto	i2l188
  8250  000D54  EFE1  F006         	
  8251                           i2l185:
  8252  000D58                     	
  8253                           i2l3097:
  8254  000D58                     		movlw	9
  8255  000D58  0E09               	movlb	0	; () banked
  8256  000D5A  0100               	xorwf	((_estado))&0ffh,w
  8257  000D5C  19F4               iorwf	((_estado+1))&0ffh,w
  8258  000D5E  11F5               	btfss	status,2
  8259  000D60  A4D8               	goto	i2u273_41
  8260  000D62  EFB5  F006         	goto	i2u273_40
  8261  000D66  EFB7  F006         
  8262                           i2u273_41:
  8263  000D6A                     	goto	i2l188
  8264  000D6A  EFE1  F006         i2u273_40:
  8265  000D6E                     	line	211
  8266                           	
  8267                           i2l3099:; BSR set to: 0
  8268  000D6E                     
  8269                           ;MaquinaDeLavar.c: 211:             PORTBbits.RB7 =0;
  8270                           	bcf	((c:3969)),c,7	;volatile
  8271  000D6E  9E81               	line	212
  8272                           ;MaquinaDeLavar.c: 212:             PORTBbits.RB5 =0;
  8273                           	bcf	((c:3969)),c,5	;volatile
  8274  000D70  9A81               	line	213
  8275                           ;MaquinaDeLavar.c: 213:             PORTBbits.RB6 =0;
  8276                           	bcf	((c:3969)),c,6	;volatile
  8277  000D72  9C81               	line	214
  8278                           ;MaquinaDeLavar.c: 214:             PORTBbits.RB0 = 0;
  8279                           	bcf	((c:3969)),c,0	;volatile
  8280  000D74  9081               	line	215
  8281                           	
  8282                           i2l3101:; BSR set to: 0
  8283  000D76                     
  8284                           ;MaquinaDeLavar.c: 215:             estado = 0;
  8285                           	movlw	high(0)
  8286  000D76  0E00               	movwf	((_estado+1))&0ffh
  8287  000D78  6FF5               	movlw	low(0)
  8288  000D7A  0E00               	movwf	((_estado))&0ffh
  8289  000D7C  6FF4               	line	216
  8290                           ;MaquinaDeLavar.c: 216:             TXREG = 0;
  8291                           	movlw	low(0)
  8292  000D7E  0E00               	movwf	((c:4013)),c	;volatile
  8293  000D80  6EAD               	line	217
  8294                           	
  8295                           i2l3103:; BSR set to: 0
  8296  000D82                     
  8297                           ;MaquinaDeLavar.c: 217:             sprintf(estadoMes, "Desligado");
  8298                           		movlw	low(_estadoMes)
  8299  000D82  0E20               	movwf	((c:i2sprintf@s)),c
  8300  000D84  6E58               	movlw	high(_estadoMes)
  8301  000D86  0E01               	movwf	((c:i2sprintf@s+1)),c
  8302  000D88  6E59               
  8303                           		movlw	low(STR_11)
  8304  000D8A  0E01               	movwf	((c:i2sprintf@fmt)),c
  8305  000D8C  6E5A               	movlw	high(STR_11)
  8306  000D8E  0E06               	movwf	((c:i2sprintf@fmt+1)),c
  8307  000D90  6E5B               
  8308                           	call	i2_sprintf	;wreg free
  8309  000D92  ECCB  F013         	line	218
  8310                           	
  8311                           i2l3105:
  8312  000D96                     ;MaquinaDeLavar.c: 218:             escreve();
  8313                           	call	i2_escreve	;wreg free
  8314  000D96  EC73  F015         	goto	i2l188
  8315  000D9A  EFE1  F006         	line	219
  8316                           ;MaquinaDeLavar.c: 219:         }
  8317                           	
  8318                           i2l187:
  8319  000D9E                     	goto	i2l188
  8320  000D9E  EFE1  F006         	
  8321                           i2l186:
  8322  000DA2                     	goto	i2l188
  8323  000DA2  EFE1  F006         	
  8324                           i2l184:
  8325  000DA6                     	goto	i2l188
  8326  000DA6  EFE1  F006         	
  8327                           i2l182:
  8328  000DAA                     	goto	i2l188
  8329  000DAA  EFE1  F006         	
  8330                           i2l180:
  8331  000DAE                     	goto	i2l188
  8332  000DAE  EFE1  F006         	
  8333                           i2l178:
  8334  000DB2                     	goto	i2l188
  8335  000DB2  EFE1  F006         	
  8336                           i2l176:
  8337  000DB6                     	goto	i2l188
  8338  000DB6  EFE1  F006         	
  8339                           i2l174:
  8340  000DBA                     	goto	i2l188
  8341  000DBA  EFE1  F006         	
  8342                           i2l172:
  8343  000DBE                     	goto	i2l188
  8344  000DBE  EFE1  F006         	
  8345                           i2l170:
  8346  000DC2                     	line	220
  8347                           	
  8348                           i2l188:
  8349  000DC2                     	return	;funcret
  8350  000DC2  0012               	opt stack 0
  8351                           GLOBAL	__end_ofi2_estadosMaquina
  8352                           	__end_ofi2_estadosMaquina:
  8353  000DC4                     	signat	i2_estadosMaquina,89
  8354                           	global	i2_tempo1
  8355                           
  8356 ;; *************** function i2_tempo1 *****************
  8357 ;; Defined at:
  8358 ;;		line 107 in file "MaquinaDeLavar.c"
  8359 ;; Parameters:    Size  Location     Type
  8360 ;;		None
  8361 ;; Auto vars:     Size  Location     Type
  8362 ;;		None
  8363 ;; Return value:  Size  Location     Type
  8364 ;;                  1    wreg      void 
  8365 ;; Registers used:
  8366 ;;		wreg, fsr1l, fsr1h, fsr2l, fsr2h, status,2, status,0, tblptrl, tblptrh, tblptru, cstack
  8367 ;; Tracked objects:
  8368 ;;		On entry : 0/0
  8369 ;;		On exit  : 0/0
  8370 ;;		Unchanged: 0/0
  8371 ;; Data sizes:     COMRAM   BANK0   BANK1   BANK2   BANK3   BANK4   BANK5
  8372 ;;      Params:         0       0       0       0       0       0       0
  8373 ;;      Locals:         0       0       0       0       0       0       0
  8374 ;;      Temps:          2       0       0       0       0       0       0
  8375 ;;      Totals:         2       0       0       0       0       0       0
  8376 ;;Total ram usage:        2 bytes
  8377 ;; Hardware stack levels used:    1
  8378 ;; Hardware stack levels required when called:    8
  8379 ;; This function calls:
  8380 ;;		i2_escreve2
  8381 ;;		i2_sprintf
  8382 ;; This function is called by:
  8383 ;;		i2_estadosMaquina
  8384 ;; This function uses a non-reentrant model
  8385 ;;
  8386                           psect	text25,class=CODE,space=0,reloc=2,group=0
  8387                           	line	107
  8388                           global __ptext25
  8389                           __ptext25:
  8390  0024A6                     psect	text25
  8391                           	file	"MaquinaDeLavar.c"
  8392                           	line	107
  8393                           	global	__size_ofi2_tempo1
  8394                           	__size_ofi2_tempo1	equ	__end_ofi2_tempo1-i2_tempo1
  8395  0000                     	
  8396                           i2_tempo1:
  8397  0024A6                     ;incstack = 0
  8398                           	opt	stack 10
  8399                           	line	109
  8400                           	
  8401                           i2l2719:
  8402  0024A6                     ;MaquinaDeLavar.c: 109:     for(tempo=5;tempo>-1;tempo--)
  8403                           	movlw	high(05h)
  8404  0024A6  0E00               	movlb	0	; () banked
  8405  0024A8  0100               	movwf	((_tempo+1))&0ffh
  8406  0024AA  6FF7               	movlw	low(05h)
  8407  0024AC  0E05               	movwf	((_tempo))&0ffh
  8408  0024AE  6FF6               	
  8409                           i2l2721:; BSR set to: 0
  8410  0024B0                     
  8411                           	btfsc	((_tempo+1))&0ffh,7
  8412  0024B0  BFF7               	goto	i2u243_40
  8413  0024B2  EF5F  F012         	goto	i2u243_41
  8414  0024B6  EF5D  F012         
  8415                           i2u243_41:
  8416  0024BA                     	goto	i2l2725
  8417  0024BA  EF63  F012         i2u243_40:
  8418  0024BE                     	goto	i2l166
  8419  0024BE  EF96  F012         	
  8420                           i2l2723:; BSR set to: 0
  8421  0024C2                     
  8422                           	goto	i2l166
  8423  0024C2  EF96  F012         	
  8424                           i2l163:; BSR set to: 0
  8425  0024C6                     
  8426                           	line	110
  8427                           	
  8428                           i2l2725:; BSR set to: 0
  8429  0024C6                     
  8430                           ;MaquinaDeLavar.c: 110:     { if(estado!=0){
  8431                           	movf	((_estado))&0ffh,w
  8432  0024C6  51F4               iorwf	((_estado+1))&0ffh,w
  8433  0024C8  11F5               	btfsc	status,2
  8434  0024CA  B4D8               	goto	i2u244_41
  8435  0024CC  EF6A  F012         	goto	i2u244_40
  8436  0024D0  EF6C  F012         
  8437                           i2u244_41:
  8438  0024D4                     	goto	i2l2733
  8439  0024D4  EF89  F012         i2u244_40:
  8440  0024D8                     	line	111
  8441                           	
  8442                           i2l2727:; BSR set to: 0
  8443  0024D8                     
  8444                           ;MaquinaDeLavar.c: 111:             _delay((unsigned long)((1000)*(4000000/4000.0)));
  8445                           	opt asmopt_push
  8446                           opt asmopt_off
  8447                           movlw  6
  8448  0024D8  0E06               movwf	(??i2_tempo1+0+0+1)&0ffh,c,f
  8449  0024DA  6E69               movlw	19
  8450  0024DC  0E13               movwf	(??i2_tempo1+0+0)&0ffh,c,f
  8451  0024DE  6E68               	movlw	174
  8452  0024E0  0EAE               i2u310_47:
  8453  0024E2                     decfsz	wreg,f
  8454  0024E2  2EE8               	bra	i2u310_47
  8455  0024E4  D7FE               	decfsz	(??i2_tempo1+0+0)&0ffh,c,f
  8456  0024E6  2E68               	bra	i2u310_47
  8457  0024E8  D7FC               	decfsz	(??i2_tempo1+0+0+1)&0ffh,c,f
  8458  0024EA  2E69               	bra	i2u310_47
  8459  0024EC  D7FA               opt asmopt_pop
  8460                           
  8461                           	line	112
  8462                           	
  8463                           i2l2729:
  8464  0024EE                     ;MaquinaDeLavar.c: 112:             sprintf(tempoDis, "%i", tempo);
  8465                           		movlw	low(_tempoDis)
  8466  0024EE  0EF8               	movwf	((c:i2sprintf@s)),c
  8467  0024F0  6E58               	movlw	high(_tempoDis)
  8468  0024F2  0E00               	movwf	((c:i2sprintf@s+1)),c
  8469  0024F4  6E59               
  8470                           		movlw	low(STR_1)
  8471  0024F6  0E41               	movwf	((c:i2sprintf@fmt)),c
  8472  0024F8  6E5A               	movlw	high(STR_1)
  8473  0024FA  0E06               	movwf	((c:i2sprintf@fmt+1)),c
  8474  0024FC  6E5B               
  8475                           	movff	(_tempo),0+((c:?i2_sprintf)+04h)
  8476  0024FE  C0F6  F05C         	movff	(_tempo+1),1+((c:?i2_sprintf)+04h)
  8477  002502  C0F7  F05D         	call	i2_sprintf	;wreg free
  8478  002506  ECCB  F013         	line	113
  8479                           	
  8480                           i2l2731:
  8481  00250A                     ;MaquinaDeLavar.c: 113:             escreve2();}
  8482                           	call	i2_escreve2	;wreg free
  8483  00250A  EC25  F015         	goto	i2l2733
  8484  00250E  EF89  F012         	
  8485                           i2l165:
  8486  002512                     	line	114
  8487                           	
  8488                           i2l2733:
  8489  002512                     ;MaquinaDeLavar.c: 114:         }
  8490                           	movlb	0	; () banked
  8491  002512  0100               	decf	((_tempo))&0ffh
  8492  002514  07F6               	btfss	status,0
  8493  002516  A0D8               	decf	((_tempo+1))&0ffh
  8494  002518  07F7               	
  8495                           i2l2735:; BSR set to: 0
  8496  00251A                     
  8497                           	btfsc	((_tempo+1))&0ffh,7
  8498  00251A  BFF7               	goto	i2u245_40
  8499  00251C  EF94  F012         	goto	i2u245_41
  8500  002520  EF92  F012         
  8501                           i2u245_41:
  8502  002524                     	goto	i2l2725
  8503  002524  EF63  F012         i2u245_40:
  8504  002528                     	goto	i2l166
  8505  002528  EF96  F012         	
  8506                           i2l164:; BSR set to: 0
  8507  00252C                     
  8508                           	line	115
  8509                           	
  8510                           i2l166:; BSR set to: 0
  8511  00252C                     
  8512                           	return	;funcret
  8513  00252C  0012               	opt stack 0
  8514                           GLOBAL	__end_ofi2_tempo1
  8515                           	__end_ofi2_tempo1:
  8516  00252E                     	signat	i2_tempo1,89
  8517                           	global	i2_sprintf
  8518                           
  8519 ;; *************** function i2_sprintf *****************
  8520 ;; Defined at:
  8521 ;;		line 9 in file "E:\ProgramasWindowns\Microchip\xc8\v2.00\pic\sources\c99\common\nf_sprintf.c"
  8522 ;; Parameters:    Size  Location     Type
  8523 ;;  s               2   87[COMRAM] PTR unsigned char 
  8524 ;;		 -> estadoMes(15), tempoDis(5), 
  8525 ;;  fmt             2   89[COMRAM] PTR const unsigned char 
  8526 ;;		 -> STR_11(10), STR_10(9), STR_9(7), STR_8(7), 
  8527 ;;		 -> STR_7(9), STR_6(9), STR_5(7), STR_4(7), 
  8528 ;;		 -> STR_3(7), STR_2(10), STR_1(3), 
  8529 ;; Auto vars:     Size  Location     Type
  8530 ;;  sprintf         6   97[COMRAM] struct _IO_FILE
  8531 ;;  sprintf         2   95[COMRAM] PTR void [1]
  8532 ;;		 -> ?i2_sprintf(2), ?_sprintf(2), 
  8533 ;;  sprintf         2   93[COMRAM] int 
  8534 ;; Return value:  Size  Location     Type
  8535 ;;                  2   87[COMRAM] int 
  8536 ;; Registers used:
  8537 ;;		wreg, fsr1l, fsr1h, fsr2l, fsr2h, status,2, status,0, tblptrl, tblptrh, tblptru, cstack
  8538 ;; Tracked objects:
  8539 ;;		On entry : 0/0
  8540 ;;		On exit  : 0/0
  8541 ;;		Unchanged: 0/0
  8542 ;; Data sizes:     COMRAM   BANK0   BANK1   BANK2   BANK3   BANK4   BANK5
  8543 ;;      Params:         6       0       0       0       0       0       0
  8544 ;;      Locals:        10       0       0       0       0       0       0
  8545 ;;      Temps:          0       0       0       0       0       0       0
  8546 ;;      Totals:        16       0       0       0       0       0       0
  8547 ;;Total ram usage:       16 bytes
  8548 ;; Hardware stack levels used:    1
  8549 ;; Hardware stack levels required when called:    7
  8550 ;; This function calls:
  8551 ;;		i2_vfprintf
  8552 ;; This function is called by:
  8553 ;;		i2_tempo1
  8554 ;;		i2_estadosMaquina
  8555 ;; This function uses a non-reentrant model
  8556 ;;
  8557                           psect	text26,class=CODE,space=0,reloc=2,group=0
  8558                           	file	"E:\ProgramasWindowns\Microchip\xc8\v2.00\pic\sources\c99\common\nf_sprintf.c"
  8559                           	line	9
  8560                           global __ptext26
  8561                           __ptext26:
  8562  002796                     psect	text26
  8563                           	file	"E:\ProgramasWindowns\Microchip\xc8\v2.00\pic\sources\c99\common\nf_sprintf.c"
  8564                           	line	9
  8565                           	global	__size_ofi2_sprintf
  8566                           	__size_ofi2_sprintf	equ	__end_ofi2_sprintf-i2_sprintf
  8567  0000                     	
  8568                           i2_sprintf:; BSR set to: 0
  8569  002796                     
  8570                           ;incstack = 0
  8571                           	opt	stack 10
  8572                           	line	15
  8573                           	
  8574                           i2l2681:
  8575  002796                     		movlw	low(?i2_sprintf+04h)
  8576  002796  0E5C               	movwf	((c:i2sprintf@ap)),c
  8577  002798  6E60               	movlw	high(?i2_sprintf+04h)
  8578  00279A  0E00               	movwf	((c:i2sprintf@ap+1)),c
  8579  00279C  6E61               
  8580                           	line	16
  8581                           		movff	(c:i2sprintf@s),(c:i2sprintf@f)
  8582  00279E  C058  F062         	movff	(c:i2sprintf@s+1),(c:i2sprintf@f+1)
  8583  0027A2  C059  F063         
  8584                           	line	17
  8585                           	
  8586                           i2l2683:
  8587  0027A6                     	movlw	high(0)
  8588  0027A6  0E00               	movwf	(1+((c:i2sprintf@f)+02h)),c
  8589  0027A8  6E65               	movlw	low(0)
  8590  0027AA  0E00               	movwf	(0+((c:i2sprintf@f)+02h)),c
  8591  0027AC  6E64               	line	18
  8592                           	
  8593                           i2l2685:
  8594  0027AE                     	movlw	high(0)
  8595  0027AE  0E00               	movwf	(1+((c:i2sprintf@f)+04h)),c
  8596  0027B0  6E67               	movlw	low(0)
  8597  0027B2  0E00               	movwf	(0+((c:i2sprintf@f)+04h)),c
  8598  0027B4  6E66               	line	19
  8599                           	
  8600                           i2l2687:
  8601  0027B6                     		movlw	low(i2sprintf@f)
  8602  0027B6  0E62               	movwf	((c:i2vfprintf@fp)),c
  8603  0027B8  6E50               	movlw	high(i2sprintf@f)
  8604  0027BA  0E00               	movwf	((c:i2vfprintf@fp+1)),c
  8605  0027BC  6E51               
  8606                           		movff	(c:i2sprintf@fmt),(c:i2vfprintf@fmt)
  8607  0027BE  C05A  F052         	movff	(c:i2sprintf@fmt+1),(c:i2vfprintf@fmt+1)
  8608  0027C2  C05B  F053         
  8609                           		movlw	low(i2sprintf@ap)
  8610  0027C6  0E60               	movwf	((c:i2vfprintf@ap)),c
  8611  0027C8  6E54               	movlw	high(i2sprintf@ap)
  8612  0027CA  0E00               	movwf	((c:i2vfprintf@ap+1)),c
  8613  0027CC  6E55               
  8614                           	call	i2_vfprintf	;wreg free
  8615  0027CE  EC69  F013         	movff	0+?i2_vfprintf,(c:i2sprintf@ret)
  8616  0027D2  C050  F05E         	movff	1+?i2_vfprintf,(c:i2sprintf@ret+1)
  8617  0027D6  C051  F05F         	line	20
  8618                           	
  8619                           i2l2689:
  8620  0027DA                     	movf	(0+((c:i2sprintf@f)+02h)),c,w
  8621  0027DA  5064               	addwf	((c:i2sprintf@s)),c,w
  8622  0027DC  2458               	movwf	c:fsr2l
  8623  0027DE  6ED9               	movf	(1+((c:i2sprintf@f)+02h)),c,w
  8624  0027E0  5065               	addwfc	((c:i2sprintf@s+1)),c,w
  8625  0027E2  2059               	movwf	1+c:fsr2l
  8626  0027E4  6EDA               	movlw	low(0)
  8627  0027E6  0E00               	movwf	indf2
  8628  0027E8  6EDF               	goto	i2l974
  8629  0027EA  EFF7  F013         	line	22
  8630                           	
  8631                           i2l2691:
  8632  0027EE                     	line	23
  8633                           ;	Return value of i2_sprintf is never used
  8634                           	
  8635                           i2l974:
  8636  0027EE                     	return	;funcret
  8637  0027EE  0012               	opt stack 0
  8638                           GLOBAL	__end_ofi2_sprintf
  8639                           	__end_ofi2_sprintf:
  8640  0027F0                     	signat	i2_sprintf,90
  8641                           	global	i2_vfprintf
  8642                           
  8643 ;; *************** function i2_vfprintf *****************
  8644 ;; Defined at:
  8645 ;;		line 1368 in file "E:\ProgramasWindowns\Microchip\xc8\v2.00\pic\sources\c99\common\doprnt.c"
  8646 ;; Parameters:    Size  Location     Type
  8647 ;;  fp              2   79[COMRAM] PTR struct _IO_FILE
  8648 ;;		 -> i2sprintf@f(6), sprintf@f(6), 
  8649 ;;  fmt             2   81[COMRAM] PTR const unsigned char 
  8650 ;;		 -> STR_11(10), STR_10(9), STR_9(7), STR_8(7), 
  8651 ;;		 -> STR_7(9), STR_6(9), STR_5(7), STR_4(7), 
  8652 ;;		 -> STR_3(7), STR_2(10), STR_1(3), 
  8653 ;;  ap              2   83[COMRAM] PTR PTR void 
  8654 ;;		 -> i2sprintf@ap(2), sprintf@ap(2), 
  8655 ;; Auto vars:     Size  Location     Type
  8656 ;;  vfprintf        2   85[COMRAM] PTR unsigned char 
  8657 ;;		 -> STR_11(10), STR_10(9), STR_9(7), STR_8(7), 
  8658 ;;		 -> STR_7(9), STR_6(9), STR_5(7), STR_4(7), 
  8659 ;;		 -> STR_3(7), STR_2(10), STR_1(3), 
  8660 ;; Return value:  Size  Location     Type
  8661 ;;                  2   79[COMRAM] int 
  8662 ;; Registers used:
  8663 ;;		wreg, fsr1l, fsr1h, fsr2l, fsr2h, status,2, status,0, tblptrl, tblptrh, tblptru, cstack
  8664 ;; Tracked objects:
  8665 ;;		On entry : 0/0
  8666 ;;		On exit  : 0/0
  8667 ;;		Unchanged: 0/0
  8668 ;; Data sizes:     COMRAM   BANK0   BANK1   BANK2   BANK3   BANK4   BANK5
  8669 ;;      Params:         6       0       0       0       0       0       0
  8670 ;;      Locals:         2       0       0       0       0       0       0
  8671 ;;      Temps:          0       0       0       0       0       0       0
  8672 ;;      Totals:         8       0       0       0       0       0       0
  8673 ;;Total ram usage:        8 bytes
  8674 ;; Hardware stack levels used:    1
  8675 ;; Hardware stack levels required when called:    6
  8676 ;; This function calls:
  8677 ;;		i2_vfpfcnvrt
  8678 ;; This function is called by:
  8679 ;;		i2_sprintf
  8680 ;; This function uses a non-reentrant model
  8681 ;;
  8682                           psect	text27,class=CODE,space=0,reloc=2,group=0
  8683                           	file	"E:\ProgramasWindowns\Microchip\xc8\v2.00\pic\sources\c99\common\doprnt.c"
  8684                           	line	1368
  8685                           global __ptext27
  8686                           __ptext27:
  8687  0026D2                     psect	text27
  8688                           	file	"E:\ProgramasWindowns\Microchip\xc8\v2.00\pic\sources\c99\common\doprnt.c"
  8689                           	line	1368
  8690                           	global	__size_ofi2_vfprintf
  8691                           	__size_ofi2_vfprintf	equ	__end_ofi2_vfprintf-i2_vfprintf
  8692  0000                     	
  8693                           i2_vfprintf:
  8694  0026D2                     ;incstack = 0
  8695                           	opt	stack 10
  8696                           	line	1373
  8697                           	
  8698                           i2l2633:
  8699  0026D2                     ;E:\ProgramasWindowns\Microchip\xc8\v2.00\pic\sources\c99\common\doprnt.c: 1368: int vfp
                                 rintf(FILE *fp, const char *fmt, va_list ap);E:\ProgramasWindowns\Microchip\xc8\v2.00\pi
                                 c\sources\c99\common\doprnt.c: 1369: {;E:\ProgramasWindowns\Microchip\xc8\v2.00\pic\sour
                                 ces\c99\common\doprnt.c: 1371:     char *cfmt;;E:\ProgramasWindowns\Microchip\xc8\v2.00\
                                 pic\sources\c99\common\doprnt.c: 1373:     cfmt = (char *)fmt;
  8700                           		movff	(c:i2vfprintf@fmt),(c:i2vfprintf@cfmt)
  8701  0026D2  C052  F056         	movff	(c:i2vfprintf@fmt+1),(c:i2vfprintf@cfmt+1)
  8702  0026D6  C053  F057         
  8703                           	line	1374
  8704                           	
  8705                           i2l2635:
  8706  0026DA                     ;E:\ProgramasWindowns\Microchip\xc8\v2.00\pic\sources\c99\common\doprnt.c: 1374:     nou
                                 t = 0;
  8707                           	movlw	high(0)
  8708  0026DA  0E00               	movlb	0	; () banked
  8709  0026DC  0100               	movwf	((_nout+1))&0ffh
  8710  0026DE  6FED               	movlw	low(0)
  8711  0026E0  0E00               	movwf	((_nout))&0ffh
  8712  0026E2  6FEC               	line	1375
  8713                           ;E:\ProgramasWindowns\Microchip\xc8\v2.00\pic\sources\c99\common\doprnt.c: 1375:     whi
                                 le (*cfmt) {
  8714                           	goto	i2l2639
  8715  0026E4  EF89  F013         	
  8716                           i2l264:; BSR set to: 0
  8717  0026E8                     
  8718                           	line	1376
  8719                           	
  8720                           i2l2637:; BSR set to: 0
  8721  0026E8                     
  8722                           ;E:\ProgramasWindowns\Microchip\xc8\v2.00\pic\sources\c99\common\doprnt.c: 1376:        
                                  nout += vfpfcnvrt(fp, &cfmt, ap);
  8723                           		movff	(c:i2vfprintf@fp),(c:i2vfpfcnvrt@fp)
  8724  0026E8  C050  F040         	movff	(c:i2vfprintf@fp+1),(c:i2vfpfcnvrt@fp+1)
  8725  0026EC  C051  F041         
  8726                           		movlw	low(i2vfprintf@cfmt)
  8727  0026F0  0E56               	movwf	((c:i2vfpfcnvrt@fmt)),c
  8728  0026F2  6E42               	movlw	high(i2vfprintf@cfmt)
  8729  0026F4  0E00               	movwf	((c:i2vfpfcnvrt@fmt+1)),c
  8730  0026F6  6E43               
  8731                           		movff	(c:i2vfprintf@ap),(c:i2vfpfcnvrt@ap)
  8732  0026F8  C054  F044         	movff	(c:i2vfprintf@ap+1),(c:i2vfpfcnvrt@ap+1)
  8733  0026FC  C055  F045         
  8734                           	call	i2_vfpfcnvrt	;wreg free
  8735  002700  ECEB  F00A         	movf	(0+?i2_vfpfcnvrt),c,w
  8736  002704  5040               	movlb	0	; () banked
  8737  002706  0100               	addwf	((_nout))&0ffh
  8738  002708  27EC               	movf	(1+?i2_vfpfcnvrt),c,w
  8739  00270A  5041               	addwfc	((_nout+1))&0ffh
  8740  00270C  23ED               
  8741                           	goto	i2l2639
  8742  00270E  EF89  F013         	line	1377
  8743                           ;E:\ProgramasWindowns\Microchip\xc8\v2.00\pic\sources\c99\common\doprnt.c: 1377:     }
  8744                           	
  8745                           i2l263:; BSR set to: 0
  8746  002712                     
  8747                           	line	1375
  8748                           	
  8749                           i2l2639:; BSR set to: 0
  8750  002712                     
  8751                           ;E:\ProgramasWindowns\Microchip\xc8\v2.00\pic\sources\c99\common\doprnt.c: 1375:     whi
                                 le (*cfmt) {
  8752                           	movff	(c:i2vfprintf@cfmt),tblptrl
  8753  002712  C056  FFF6         	movff	(c:i2vfprintf@cfmt+1),tblptrh
  8754  002716  C057  FFF7         	if	0	;tblptru may be non-zero
  8755  00271A                     	clrf	tblptru
  8757  00271A                     	if	0	;tblptru may be non-zero
  8758  00271A                     	global __mediumconst
  8759                           movlw	low highword(__mediumconst)
  8762  00271A                     	tblrd	*
  8763  00271A  0008               	
  8764                           	movf	tablat,w
  8765  00271C  50F5               	iorlw	0
  8766  00271E  0900               	btfss	status,2
  8767  002720  A4D8               	goto	i2u239_41
  8768  002722  EF95  F013         	goto	i2u239_40
  8769  002726  EF97  F013         i2u239_41:
  8770  00272A                     	goto	i2l2637
  8771  00272A  EF74  F013         i2u239_40:
  8772  00272E                     	
  8773                           i2l265:; BSR set to: 0
  8774  00272E                     
  8775                           	line	1378
  8776                           ;E:\ProgramasWindowns\Microchip\xc8\v2.00\pic\sources\c99\common\doprnt.c: 1378:     ret
                                 urn nout;
  8777                           	movff	(_nout),(c:?i2_vfprintf)
  8778  00272E  C0EC  F050         	movff	(_nout+1),(c:?i2_vfprintf+1)
  8779  002732  C0ED  F051         	line	1382
  8780                           	
  8781                           i2l266:; BSR set to: 0
  8782  002736                     
  8783                           	return	;funcret
  8784  002736  0012               	opt stack 0
  8785                           GLOBAL	__end_ofi2_vfprintf
  8786                           	__end_ofi2_vfprintf:
  8787  002738                     	signat	i2_vfprintf,90
  8788                           	global	i2_vfpfcnvrt
  8789                           
  8790 ;; *************** function i2_vfpfcnvrt *****************
  8791 ;; Defined at:
  8792 ;;		line 670 in file "E:\ProgramasWindowns\Microchip\xc8\v2.00\pic\sources\c99\common\doprnt.c"
  8793 ;; Parameters:    Size  Location     Type
  8794 ;;  fp              2   63[COMRAM] PTR struct _IO_FILE
  8795 ;;		 -> i2sprintf@f(6), sprintf@f(6), 
  8796 ;;  fmt             2   65[COMRAM] PTR PTR unsigned char 
  8797 ;;		 -> i2vfprintf@cfmt(2), vfprintf@cfmt(2), 
  8798 ;;  ap              2   67[COMRAM] PTR PTR void 
  8799 ;;		 -> i2sprintf@ap(2), sprintf@ap(2), 
  8800 ;; Auto vars:     Size  Location     Type
  8801 ;;  vfpfcnvrt       8   71[COMRAM] long long 
  8802 ;;  vfpfcnvrt       8    0        unsigned long long 
  8803 ;;  vfpfcnvrt       4    0        unsigned long long 
  8804 ;;  vfpfcnvrt       3    0        PTR void 
  8805 ;;  vfpfcnvrt       3    0        unsigned char [3]
  8806 ;;  vfpfcnvrt       3    0        PTR unsigned char 
  8807 ;;  vfpfcnvrt       2    0        int 
  8808 ;;  vfpfcnvrt       2    0        int 
  8809 ;;  vfpfcnvrt       1    0        unsigned char 
  8810 ;; Return value:  Size  Location     Type
  8811 ;;                  2   63[COMRAM] int 
  8812 ;; Registers used:
  8813 ;;		wreg, fsr1l, fsr1h, fsr2l, fsr2h, status,2, status,0, tblptrl, tblptrh, tblptru, cstack
  8814 ;; Tracked objects:
  8815 ;;		On entry : 0/0
  8816 ;;		On exit  : 0/0
  8817 ;;		Unchanged: 0/0
  8818 ;; Data sizes:     COMRAM   BANK0   BANK1   BANK2   BANK3   BANK4   BANK5
  8819 ;;      Params:         6       0       0       0       0       0       0
  8820 ;;      Locals:         8       0       0       0       0       0       0
  8821 ;;      Temps:          2       0       0       0       0       0       0
  8822 ;;      Totals:        16       0       0       0       0       0       0
  8823 ;;Total ram usage:       16 bytes
  8824 ;; Hardware stack levels used:    1
  8825 ;; Hardware stack levels required when called:    5
  8826 ;; This function calls:
  8827 ;;		i2_dtoa
  8828 ;;		i2_fputc
  8829 ;; This function is called by:
  8830 ;;		i2_vfprintf
  8831 ;; This function uses a non-reentrant model
  8832 ;;
  8833                           psect	text28,class=CODE,space=0,reloc=2,group=0
  8834                           	line	670
  8835                           global __ptext28
  8836                           __ptext28:
  8837  0015D6                     psect	text28
  8838                           	file	"E:\ProgramasWindowns\Microchip\xc8\v2.00\pic\sources\c99\common\doprnt.c"
  8839                           	line	670
  8840                           	global	__size_ofi2_vfpfcnvrt
  8841                           	__size_ofi2_vfpfcnvrt	equ	__end_ofi2_vfpfcnvrt-i2_vfpfcnvrt
  8842  0000                     	
  8843                           i2_vfpfcnvrt:; BSR set to: 0
  8844  0015D6                     
  8845                           ;incstack = 0
  8846                           	opt	stack 10
  8847                           	line	680
  8848                           	
  8849                           i2l2547:
  8850  0015D6                     ;E:\ProgramasWindowns\Microchip\xc8\v2.00\pic\sources\c99\common\doprnt.c: 670: static i
                                 nt vfpfcnvrt(FILE *fp, char *fmt[], va_list ap);E:\ProgramasWindowns\Microchip\xc8\v2.00
                                 \pic\sources\c99\common\doprnt.c: 671: {;E:\ProgramasWindowns\Microchip\xc8\v2.00\pic\so
                                 urces\c99\common\doprnt.c: 672:     char c, *cp, ct[3];;E:\ProgramasWindowns\Microchip\x
                                 c8\v2.00\pic\sources\c99\common\doprnt.c: 673:     int done, i;;E:\ProgramasWindowns\Mic
                                 rochip\xc8\v2.00\pic\sources\c99\common\doprnt.c: 674:     long long ll;
  8851                           	movff	(c:i2vfpfcnvrt@fmt),fsr2l
  8852  0015D6  C042  FFD9         	movff	(c:i2vfpfcnvrt@fmt+1),fsr2h
  8853  0015DA  C043  FFDA         	movff	postinc2,tblptrl
  8854  0015DE  CFDE FFF6          	movff	postdec2,tblptrh
  8855  0015E2  CFDD FFF7          	if	0	;tblptru may be non-zero
  8856  0015E6                     	clrf	tblptru
  8858  0015E6                     	if	0	;tblptru may be non-zero
  8859  0015E6                     	global __mediumconst
  8860                           movlw	low highword(__mediumconst)
  8863  0015E6                     	tblrd	*
  8864  0015E6  0008               	
  8865                           	movf	tablat,w
  8866  0015E8  50F5               	xorlw	025h
  8867  0015EA  0A25               	btfss	status,2
  8868  0015EC  A4D8               	goto	i2u228_41
  8869  0015EE  EFFB  F00A         	goto	i2u228_40
  8870  0015F2  EFFD  F00A         i2u228_41:
  8871  0015F6                     	goto	i2l2581
  8872  0015F6  EFB1  F00B         i2u228_40:
  8873  0015FA                     	line	681
  8874                           	
  8875                           i2l2549:
  8876  0015FA                     ;E:\ProgramasWindowns\Microchip\xc8\v2.00\pic\sources\c99\common\doprnt.c: 681:         
                                 ++*fmt;
  8877                           	movff	(c:i2vfpfcnvrt@fmt),fsr2l
  8878  0015FA  C042  FFD9         	movff	(c:i2vfpfcnvrt@fmt+1),fsr2h
  8879  0015FE  C043  FFDA         	incf	postinc2
  8880  001602  2ADE               	movlw	0
  8881  001604  0E00               	addwfc	postdec2
  8882  001606  22DD               	line	683
  8883                           	
  8884                           i2l2551:
  8885  001608                     ;E:\ProgramasWindowns\Microchip\xc8\v2.00\pic\sources\c99\common\doprnt.c: 683:         
                                 flags = width = 0;
  8886                           	movlw	high(0)
  8887  001608  0E00               	movlb	0	; () banked
  8888  00160A  0100               	movwf	((_width+1))&0ffh
  8889  00160C  6FEF               	movlw	low(0)
  8890  00160E  0E00               	movwf	((_width))&0ffh
  8891  001610  6FEE               	movff	(_width),(_flags)
  8892  001612  C0EE  F0F2         	movff	(_width+1),(_flags+1)
  8893  001616  C0EF  F0F3         	line	684
  8894                           	
  8895                           i2l2553:; BSR set to: 0
  8896  00161A                     
  8897                           ;E:\ProgramasWindowns\Microchip\xc8\v2.00\pic\sources\c99\common\doprnt.c: 684:         
                                 prec = -1;
  8898                           	setf	((_prec))&0ffh
  8899  00161A  69F0               	setf	((_prec+1))&0ffh
  8900  00161C  69F1               	line	825
  8901                           	
  8902                           i2l2555:; BSR set to: 0
  8903  00161E                     
  8904                           ;E:\ProgramasWindowns\Microchip\xc8\v2.00\pic\sources\c99\common\doprnt.c: 825:         
                                 if ((*fmt[0] == 'd') || (*fmt[0] == 'i')) {
  8905                           	movff	(c:i2vfpfcnvrt@fmt),fsr2l
  8906  00161E  C042  FFD9         	movff	(c:i2vfpfcnvrt@fmt+1),fsr2h
  8907  001622  C043  FFDA         	movff	postinc2,tblptrl
  8908  001626  CFDE FFF6          	movff	postdec2,tblptrh
  8909  00162A  CFDD FFF7          	if	0	;tblptru may be non-zero
  8910  00162E                     	clrf	tblptru
  8912  00162E                     	if	0	;tblptru may be non-zero
  8913  00162E                     	global __mediumconst
  8914                           movlw	low highword(__mediumconst)
  8917  00162E                     	tblrd	*
  8918  00162E  0008               	
  8919                           	movf	tablat,w
  8920  001630  50F5               	xorlw	064h
  8921  001632  0A64               	btfsc	status,2
  8922  001634  B4D8               	goto	i2u229_41
  8923  001636  EF1F  F00B         	goto	i2u229_40
  8924  00163A  EF21  F00B         i2u229_41:
  8925  00163E                     	goto	i2l2559
  8926  00163E  EF35  F00B         i2u229_40:
  8927  001642                     	
  8928                           i2l2557:; BSR set to: 0
  8929  001642                     
  8930                           	movff	(c:i2vfpfcnvrt@fmt),fsr2l
  8931  001642  C042  FFD9         	movff	(c:i2vfpfcnvrt@fmt+1),fsr2h
  8932  001646  C043  FFDA         	movff	postinc2,tblptrl
  8933  00164A  CFDE FFF6          	movff	postdec2,tblptrh
  8934  00164E  CFDD FFF7          	if	0	;tblptru may be non-zero
  8935  001652                     	clrf	tblptru
  8937  001652                     	if	0	;tblptru may be non-zero
  8938  001652                     	global __mediumconst
  8939                           movlw	low highword(__mediumconst)
  8942  001652                     	tblrd	*
  8943  001652  0008               	
  8944                           	movf	tablat,w
  8945  001654  50F5               	xorlw	069h
  8946  001656  0A69               	btfss	status,2
  8947  001658  A4D8               	goto	i2u230_41
  8948  00165A  EF31  F00B         	goto	i2u230_40
  8949  00165E  EF33  F00B         i2u230_41:
  8950  001662                     	goto	i2l2565
  8951  001662  EF77  F00B         i2u230_40:
  8952  001666                     	goto	i2l2559
  8953  001666  EF35  F00B         	
  8954                           i2l258:; BSR set to: 0
  8955  00166A                     
  8956                           	line	827
  8957                           	
  8958                           i2l2559:; BSR set to: 0
  8959  00166A                     
  8960                           ;E:\ProgramasWindowns\Microchip\xc8\v2.00\pic\sources\c99\common\doprnt.c: 827:         
                                     ++*fmt;
  8961                           	movff	(c:i2vfpfcnvrt@fmt),fsr2l
  8962  00166A  C042  FFD9         	movff	(c:i2vfpfcnvrt@fmt+1),fsr2h
  8963  00166E  C043  FFDA         	incf	postinc2
  8964  001672  2ADE               	movlw	0
  8965  001674  0E00               	addwfc	postdec2
  8966  001676  22DD               	line	828
  8967                           ;E:\ProgramasWindowns\Microchip\xc8\v2.00\pic\sources\c99\common\doprnt.c: 828:         
                                     ll = (long long)(*(int *)__va_arg(*(int **)ap, (int)0));
  8968                           	movff	(c:i2vfpfcnvrt@ap),fsr2l
  8969  001678  C044  FFD9         	movff	(c:i2vfpfcnvrt@ap+1),fsr2h
  8970  00167C  C045  FFDA         	movff	indf2,??i2_vfpfcnvrt+0+0
  8971  001680  CFDF F046          	movlw	low(02h)
  8972  001684  0E02               	addwf	postinc2
  8973  001686  26DE               	movff	indf2,??i2_vfpfcnvrt+0+0+1
  8974  001688  CFDF F047          	movlw	high(02h)
  8975  00168C  0E00               	addwfc	postdec2
  8976  00168E  22DD               	movff	??i2_vfpfcnvrt+0+0,fsr2l
  8977  001690  C046  FFD9         	movff	??i2_vfpfcnvrt+0+1,fsr2h
  8978  001694  C047  FFDA         	movff	postinc2,(c:i2vfpfcnvrt@ll)
  8979  001698  CFDE F048          	movff	postdec2,(c:i2vfpfcnvrt@ll+1)
  8980  00169C  CFDD F049          	movlw	0
  8981  0016A0  0E00               	btfsc	((c:i2vfpfcnvrt@ll+1)),c,7
  8982  0016A2  BE49               	movlw	-1
  8983  0016A4  0EFF               	movwf	((c:i2vfpfcnvrt@ll+2)),c
  8984  0016A6  6E4A               	movwf	((c:i2vfpfcnvrt@ll+3)),c
  8985  0016A8  6E4B               	movwf	((c:i2vfpfcnvrt@ll+4)),c
  8986  0016AA  6E4C               	movwf	((c:i2vfpfcnvrt@ll+5)),c
  8987  0016AC  6E4D               	movwf	((c:i2vfpfcnvrt@ll+6)),c
  8988  0016AE  6E4E               	movwf	((c:i2vfpfcnvrt@ll+7)),c
  8989  0016B0  6E4F               	line	830
  8990                           	
  8991                           i2l2561:; BSR set to: 0
  8992  0016B2                     
  8993                           ;E:\ProgramasWindowns\Microchip\xc8\v2.00\pic\sources\c99\common\doprnt.c: 830:         
                                     return dtoa(fp, ll);
  8994                           		movff	(c:i2vfpfcnvrt@fp),(c:i2dtoa@fp)
  8995  0016B2  C040  F01C         	movff	(c:i2vfpfcnvrt@fp+1),(c:i2dtoa@fp+1)
  8996  0016B6  C041  F01D         
  8997                           	movff	(c:i2vfpfcnvrt@ll),(c:i2dtoa@d)
  8998  0016BA  C048  F01E         	movff	(c:i2vfpfcnvrt@ll+1),(c:i2dtoa@d+1)
  8999  0016BE  C049  F01F         	movff	(c:i2vfpfcnvrt@ll+2),(c:i2dtoa@d+2)
  9000  0016C2  C04A  F020         	movff	(c:i2vfpfcnvrt@ll+3),(c:i2dtoa@d+3)
  9001  0016C6  C04B  F021         	movff	(c:i2vfpfcnvrt@ll+4),(c:i2dtoa@d+4)
  9002  0016CA  C04C  F022         	movff	(c:i2vfpfcnvrt@ll+5),(c:i2dtoa@d+5)
  9003  0016CE  C04D  F023         	movff	(c:i2vfpfcnvrt@ll+6),(c:i2dtoa@d+6)
  9004  0016D2  C04E  F024         	movff	(c:i2vfpfcnvrt@ll+7),(c:i2dtoa@d+7)
  9005  0016D6  C04F  F025         	call	i2_dtoa	;wreg free
  9006  0016DA  EC71  F008         	movff	0+?i2_dtoa,(c:?i2_vfpfcnvrt)
  9007  0016DE  C01C  F040         	movff	1+?i2_dtoa,(c:?i2_vfpfcnvrt+1)
  9008  0016E2  C01D  F041         	goto	i2l259
  9009  0016E6  EFD0  F00B         	
  9010                           i2l2563:
  9011  0016EA                     	goto	i2l259
  9012  0016EA  EFD0  F00B         	line	831
  9013                           ;E:\ProgramasWindowns\Microchip\xc8\v2.00\pic\sources\c99\common\doprnt.c: 831:         
                                 }
  9014                           	
  9015                           i2l256:
  9016  0016EE                     	line	1350
  9017                           	
  9018                           i2l2565:
  9019  0016EE                     ;E:\ProgramasWindowns\Microchip\xc8\v2.00\pic\sources\c99\common\doprnt.c: 1350:        
                                  if ((*fmt)[0] == '%') {
  9020                           	movff	(c:i2vfpfcnvrt@fmt),fsr2l
  9021  0016EE  C042  FFD9         	movff	(c:i2vfpfcnvrt@fmt+1),fsr2h
  9022  0016F2  C043  FFDA         	movff	postinc2,tblptrl
  9023  0016F6  CFDE FFF6          	movff	postdec2,tblptrh
  9024  0016FA  CFDD FFF7          	if	0	;tblptru may be non-zero
  9025  0016FE                     	clrf	tblptru
  9027  0016FE                     	if	0	;tblptru may be non-zero
  9028  0016FE                     	global __mediumconst
  9029                           movlw	low highword(__mediumconst)
  9032  0016FE                     	tblrd	*
  9033  0016FE  0008               	
  9034                           	movf	tablat,w
  9035  001700  50F5               	xorlw	025h
  9036  001702  0A25               	btfss	status,2
  9037  001704  A4D8               	goto	i2u231_41
  9038  001706  EF87  F00B         	goto	i2u231_40
  9039  00170A  EF89  F00B         i2u231_41:
  9040  00170E                     	goto	i2l2575
  9041  00170E  EFA2  F00B         i2u231_40:
  9042  001712                     	line	1351
  9043                           	
  9044                           i2l2567:
  9045  001712                     ;E:\ProgramasWindowns\Microchip\xc8\v2.00\pic\sources\c99\common\doprnt.c: 1351:        
                                      ++*fmt;
  9046                           	movff	(c:i2vfpfcnvrt@fmt),fsr2l
  9047  001712  C042  FFD9         	movff	(c:i2vfpfcnvrt@fmt+1),fsr2h
  9048  001716  C043  FFDA         	incf	postinc2
  9049  00171A  2ADE               	movlw	0
  9050  00171C  0E00               	addwfc	postdec2
  9051  00171E  22DD               	line	1352
  9052                           	
  9053                           i2l2569:
  9054  001720                     ;E:\ProgramasWindowns\Microchip\xc8\v2.00\pic\sources\c99\common\doprnt.c: 1352:        
                                      fputc((int)'%', fp);
  9055                           	movlw	high(025h)
  9056  001720  0E00               	movwf	((c:i2fputc@c+1)),c
  9057  001722  6E02               	movlw	low(025h)
  9058  001724  0E25               	movwf	((c:i2fputc@c)),c
  9059  001726  6E01               		movff	(c:i2vfpfcnvrt@fp),(c:i2fputc@fp)
  9060  001728  C040  F003         	movff	(c:i2vfpfcnvrt@fp+1),(c:i2fputc@fp+1)
  9061  00172C  C041  F004         
  9062                           	call	i2_fputc	;wreg free
  9063  001730  ECC5  F010         	line	1353
  9064                           	
  9065                           i2l2571:
  9066  001734                     ;E:\ProgramasWindowns\Microchip\xc8\v2.00\pic\sources\c99\common\doprnt.c: 1353:        
                                      return 1;
  9067                           	movlw	high(01h)
  9068  001734  0E00               	movwf	((c:?i2_vfpfcnvrt+1)),c
  9069  001736  6E41               	movlw	low(01h)
  9070  001738  0E01               	movwf	((c:?i2_vfpfcnvrt)),c
  9071  00173A  6E40               	goto	i2l259
  9072  00173C  EFD0  F00B         	
  9073                           i2l2573:
  9074  001740                     	goto	i2l259
  9075  001740  EFD0  F00B         	line	1354
  9076                           ;E:\ProgramasWindowns\Microchip\xc8\v2.00\pic\sources\c99\common\doprnt.c: 1354:        
                                  }
  9077                           	
  9078                           i2l260:
  9079  001744                     	line	1357
  9080                           	
  9081                           i2l2575:
  9082  001744                     ;E:\ProgramasWindowns\Microchip\xc8\v2.00\pic\sources\c99\common\doprnt.c: 1357:        
                                  ++*fmt;
  9083                           	movff	(c:i2vfpfcnvrt@fmt),fsr2l
  9084  001744  C042  FFD9         	movff	(c:i2vfpfcnvrt@fmt+1),fsr2h
  9085  001748  C043  FFDA         	incf	postinc2
  9086  00174C  2ADE               	movlw	0
  9087  00174E  0E00               	addwfc	postdec2
  9088  001750  22DD               	line	1358
  9089                           	
  9090                           i2l2577:
  9091  001752                     ;E:\ProgramasWindowns\Microchip\xc8\v2.00\pic\sources\c99\common\doprnt.c: 1358:        
                                  return 0;
  9092                           	movlw	high(0)
  9093  001752  0E00               	movwf	((c:?i2_vfpfcnvrt+1)),c
  9094  001754  6E41               	movlw	low(0)
  9095  001756  0E00               	movwf	((c:?i2_vfpfcnvrt)),c
  9096  001758  6E40               	goto	i2l259
  9097  00175A  EFD0  F00B         	
  9098                           i2l2579:
  9099  00175E                     	goto	i2l259
  9100  00175E  EFD0  F00B         	line	1359
  9101                           ;E:\ProgramasWindowns\Microchip\xc8\v2.00\pic\sources\c99\common\doprnt.c: 1359:     }
  9102                           	
  9103                           i2l255:
  9104  001762                     	line	1362
  9105                           	
  9106                           i2l2581:
  9107  001762                     ;E:\ProgramasWindowns\Microchip\xc8\v2.00\pic\sources\c99\common\doprnt.c: 1362:     fpu
                                 tc((int)(*fmt)[0], fp);
  9108                           	movff	(c:i2vfpfcnvrt@fmt),fsr2l
  9109  001762  C042  FFD9         	movff	(c:i2vfpfcnvrt@fmt+1),fsr2h
  9110  001766  C043  FFDA         	movff	postinc2,tblptrl
  9111  00176A  CFDE FFF6          	movff	postdec2,tblptrh
  9112  00176E  CFDD FFF7          	if	0	;tblptru may be non-zero
  9113  001772                     	clrf	tblptru
  9115  001772                     	if	0	;tblptru may be non-zero
  9116  001772                     	global __mediumconst
  9117                           movlw	low highword(__mediumconst)
  9120  001772                     	tblrd	*
  9121  001772  0008               	
  9122                           	movf	tablat,w
  9123  001774  50F5               
  9124                           	movwf	((c:i2fputc@c)),c
  9125  001776  6E01               	clrf	((c:i2fputc@c+1)),c
  9126  001778  6A02               		movff	(c:i2vfpfcnvrt@fp),(c:i2fputc@fp)
  9127  00177A  C040  F003         	movff	(c:i2vfpfcnvrt@fp+1),(c:i2fputc@fp+1)
  9128  00177E  C041  F004         
  9129                           	call	i2_fputc	;wreg free
  9130  001782  ECC5  F010         	line	1363
  9131                           	
  9132                           i2l2583:
  9133  001786                     ;E:\ProgramasWindowns\Microchip\xc8\v2.00\pic\sources\c99\common\doprnt.c: 1363:     ++*
                                 fmt;
  9134                           	movff	(c:i2vfpfcnvrt@fmt),fsr2l
  9135  001786  C042  FFD9         	movff	(c:i2vfpfcnvrt@fmt+1),fsr2h
  9136  00178A  C043  FFDA         	incf	postinc2
  9137  00178E  2ADE               	movlw	0
  9138  001790  0E00               	addwfc	postdec2
  9139  001792  22DD               	line	1364
  9140                           	
  9141                           i2l2585:
  9142  001794                     ;E:\ProgramasWindowns\Microchip\xc8\v2.00\pic\sources\c99\common\doprnt.c: 1364:     ret
                                 urn 1;
  9143                           	movlw	high(01h)
  9144  001794  0E00               	movwf	((c:?i2_vfpfcnvrt+1)),c
  9145  001796  6E41               	movlw	low(01h)
  9146  001798  0E01               	movwf	((c:?i2_vfpfcnvrt)),c
  9147  00179A  6E40               	goto	i2l259
  9148  00179C  EFD0  F00B         	
  9149                           i2l2587:
  9150  0017A0                     	line	1365
  9151                           	
  9152                           i2l259:
  9153  0017A0                     	return	;funcret
  9154  0017A0  0012               	opt stack 0
  9155                           GLOBAL	__end_ofi2_vfpfcnvrt
  9156                           	__end_ofi2_vfpfcnvrt:
  9157  0017A2                     	signat	i2_vfpfcnvrt,90
  9158                           	global	i2_dtoa
  9159                           
  9160 ;; *************** function i2_dtoa *****************
  9161 ;; Defined at:
  9162 ;;		line 274 in file "E:\ProgramasWindowns\Microchip\xc8\v2.00\pic\sources\c99\common\doprnt.c"
  9163 ;; Parameters:    Size  Location     Type
  9164 ;;  fp              2   27[COMRAM] PTR struct _IO_FILE
  9165 ;;		 -> i2sprintf@f(6), sprintf@f(6), 
  9166 ;;  d               8   29[COMRAM] long long 
  9167 ;; Auto vars:     Size  Location     Type
  9168 ;;  dtoa            8   53[COMRAM] long long 
  9169 ;;  dtoa            2   61[COMRAM] int 
  9170 ;;  dtoa            2   51[COMRAM] int 
  9171 ;;  dtoa            2   49[COMRAM] int 
  9172 ;;  dtoa            2   47[COMRAM] int 
  9173 ;; Return value:  Size  Location     Type
  9174 ;;                  2   27[COMRAM] int 
  9175 ;; Registers used:
  9176 ;;		wreg, fsr1l, fsr1h, fsr2l, fsr2h, status,2, status,0, cstack
  9177 ;; Tracked objects:
  9178 ;;		On entry : 0/0
  9179 ;;		On exit  : 0/0
  9180 ;;		Unchanged: 0/0
  9181 ;; Data sizes:     COMRAM   BANK0   BANK1   BANK2   BANK3   BANK4   BANK5
  9182 ;;      Params:        10       0       0       0       0       0       0
  9183 ;;      Locals:        18       0       0       0       0       0       0
  9184 ;;      Temps:          8       0       0       0       0       0       0
  9185 ;;      Totals:        36       0       0       0       0       0       0
  9186 ;;Total ram usage:       36 bytes
  9187 ;; Hardware stack levels used:    1
  9188 ;; Hardware stack levels required when called:    4
  9189 ;; This function calls:
  9190 ;;		i2___aodiv
  9191 ;;		i2___aomod
  9192 ;;		i2_abs
  9193 ;;		i2_pad
  9194 ;; This function is called by:
  9195 ;;		i2_vfpfcnvrt
  9196 ;; This function uses a non-reentrant model
  9197 ;;
  9198                           psect	text29,class=CODE,space=0,reloc=2,group=0
  9199                           	line	274
  9200                           global __ptext29
  9201                           __ptext29:
  9202  0010E2                     psect	text29
  9203                           	file	"E:\ProgramasWindowns\Microchip\xc8\v2.00\pic\sources\c99\common\doprnt.c"
  9204                           	line	274
  9205                           	global	__size_ofi2_dtoa
  9206                           	__size_ofi2_dtoa	equ	__end_ofi2_dtoa-i2_dtoa
  9207  0000                     	
  9208                           i2_dtoa:
  9209  0010E2                     ;incstack = 0
  9210                           	opt	stack 10
  9211                           	line	280
  9212                           	
  9213                           i2l2427:
  9214  0010E2                     ;E:\ProgramasWindowns\Microchip\xc8\v2.00\pic\sources\c99\common\doprnt.c: 274: static i
                                 nt dtoa(FILE *fp, long long d);E:\ProgramasWindowns\Microchip\xc8\v2.00\pic\sources\c99\
                                 common\doprnt.c: 275: {;E:\ProgramasWindowns\Microchip\xc8\v2.00\pic\sources\c99\common\
                                 doprnt.c: 276:     int i, p, s, w;;E:\ProgramasWindowns\Microchip\xc8\v2.00\pic\sources\
                                 c99\common\doprnt.c: 277:     long long n;;E:\ProgramasWindowns\Microchip\xc8\v2.00\pic\
                                 sources\c99\common\doprnt.c: 280:     n = d;
  9215                           	movff	(c:i2dtoa@d),(c:i2dtoa@n)
  9216  0010E2  C01E  F036         	movff	(c:i2dtoa@d+1),(c:i2dtoa@n+1)
  9217  0010E6  C01F  F037         	movff	(c:i2dtoa@d+2),(c:i2dtoa@n+2)
  9218  0010EA  C020  F038         	movff	(c:i2dtoa@d+3),(c:i2dtoa@n+3)
  9219  0010EE  C021  F039         	movff	(c:i2dtoa@d+4),(c:i2dtoa@n+4)
  9220  0010F2  C022  F03A         	movff	(c:i2dtoa@d+5),(c:i2dtoa@n+5)
  9221  0010F6  C023  F03B         	movff	(c:i2dtoa@d+6),(c:i2dtoa@n+6)
  9222  0010FA  C024  F03C         	movff	(c:i2dtoa@d+7),(c:i2dtoa@n+7)
  9223  0010FE  C025  F03D         	line	281
  9224                           	
  9225                           i2l2429:
  9226  001102                     ;E:\ProgramasWindowns\Microchip\xc8\v2.00\pic\sources\c99\common\doprnt.c: 281:     s = 
                                 n < 0 ? 1 : 0;
  9227                           	btfsc	((c:i2dtoa@n+7)),c,7
  9228  001102  BE3D               	goto	i2u209_41
  9229  001104  EF86  F008         	goto	i2u209_40
  9230  001108  EF89  F008         
  9231                           i2u209_41:
  9232  00110C                     	movlw	1
  9233  00110C  0E01               	goto	i2u210_40
  9234  00110E  EF8A  F008         i2u209_40:
  9235  001112                     	movlw	0
  9236  001112  0E00               i2u210_40:
  9237  001114                     	movwf	((c:i2dtoa@s)),c
  9238  001114  6E34               	clrf	((c:i2dtoa@s+1)),c
  9239  001116  6A35               	line	282
  9240                           ;E:\ProgramasWindowns\Microchip\xc8\v2.00\pic\sources\c99\common\doprnt.c: 282:     if (
                                 s) {
  9241                           	movf	((c:i2dtoa@s)),c,w
  9242  001118  5034               iorwf	((c:i2dtoa@s+1)),c,w
  9243  00111A  1035               	btfsc	status,2
  9244  00111C  B4D8               	goto	i2u211_41
  9245  00111E  EF93  F008         	goto	i2u211_40
  9246  001122  EF95  F008         
  9247                           i2u211_41:
  9248  001126                     	goto	i2l2433
  9249  001126  EFA7  F008         i2u211_40:
  9250  00112A                     	line	283
  9251                           	
  9252                           i2l2431:
  9253  00112A                     ;E:\ProgramasWindowns\Microchip\xc8\v2.00\pic\sources\c99\common\doprnt.c: 283:         
                                 n = -n;
  9254                           	comf	((c:i2dtoa@n+7)),c
  9255  00112A  1E3D               	comf	((c:i2dtoa@n+6)),c
  9256  00112C  1E3C               	comf	((c:i2dtoa@n+5)),c
  9257  00112E  1E3B               	comf	((c:i2dtoa@n+4)),c
  9258  001130  1E3A               	comf	((c:i2dtoa@n+3)),c
  9259  001132  1E39               	comf	((c:i2dtoa@n+2)),c
  9260  001134  1E38               	comf	((c:i2dtoa@n+1)),c
  9261  001136  1E37               	negf	((c:i2dtoa@n)),c
  9262  001138  6C36               	movlw	0
  9263  00113A  0E00               	addwfc	((c:i2dtoa@n+1)),c
  9264  00113C  2237               	addwfc	((c:i2dtoa@n+2)),c
  9265  00113E  2238               	addwfc	((c:i2dtoa@n+3)),c
  9266  001140  2239               	addwfc	((c:i2dtoa@n+4)),c
  9267  001142  223A               	addwfc	((c:i2dtoa@n+5)),c
  9268  001144  223B               	addwfc	((c:i2dtoa@n+6)),c
  9269  001146  223C               	addwfc	((c:i2dtoa@n+7)),c
  9270  001148  223D               	goto	i2l2433
  9271  00114A  EFA7  F008         	line	284
  9272                           ;E:\ProgramasWindowns\Microchip\xc8\v2.00\pic\sources\c99\common\doprnt.c: 284:     }
  9273                           	
  9274                           i2l229:
  9275  00114E                     	line	287
  9276                           	
  9277                           i2l2433:
  9278  00114E                     ;E:\ProgramasWindowns\Microchip\xc8\v2.00\pic\sources\c99\common\doprnt.c: 287:     if (
                                 !(prec < 0)) {
  9279                           	movlb	0	; () banked
  9280  00114E  0100               	btfsc	((_prec+1))&0ffh,7
  9281  001150  BFF1               	goto	i2u212_41
  9282  001152  EFAD  F008         	goto	i2u212_40
  9283  001156  EFAF  F008         
  9284                           i2u212_41:
  9285  00115A                     	goto	i2l2437
  9286  00115A  EFB2  F008         i2u212_40:
  9287  00115E                     	line	288
  9288                           	
  9289                           i2l2435:; BSR set to: 0
  9290  00115E                     
  9291                           ;E:\ProgramasWindowns\Microchip\xc8\v2.00\pic\sources\c99\common\doprnt.c: 288:         
                                 flags &= ~(1 << 1);
  9292                           	bcf	(0+(1/8)+(_flags))&0ffh,(1)&7
  9293  00115E  93F2               	goto	i2l2437
  9294  001160  EFB2  F008         	line	289
  9295                           ;E:\ProgramasWindowns\Microchip\xc8\v2.00\pic\sources\c99\common\doprnt.c: 289:     }
  9296                           	
  9297                           i2l230:; BSR set to: 0
  9298  001164                     
  9299                           	line	290
  9300                           	
  9301                           i2l2437:; BSR set to: 0
  9302  001164                     
  9303                           ;E:\ProgramasWindowns\Microchip\xc8\v2.00\pic\sources\c99\common\doprnt.c: 290:     p = 
                                 (0 < prec) ? prec : 1;
  9304                           	btfsc	((_prec+1))&0ffh,7
  9305  001164  BFF1               	goto	i2u213_40
  9306  001166  EFBF  F008         	movf	((_prec+1))&0ffh,w
  9307  00116A  51F1               	bnz	i2u213_41
  9308  00116C  E106               	decf	((_prec))&0ffh,w
  9309  00116E  05F0               	btfsc	status,0
  9310  001170  B0D8               	goto	i2u213_41
  9311  001172  EFBD  F008         	goto	i2u213_40
  9312  001176  EFBF  F008         
  9313                           i2u213_41:
  9314  00117A                     	goto	i2l232
  9315  00117A  EFC5  F008         i2u213_40:
  9316  00117E                     	
  9317                           i2l2439:; BSR set to: 0
  9318  00117E                     
  9319                           	movlw	high(01h)
  9320  00117E  0E00               	movwf	((c:i2dtoa@p+1)),c
  9321  001180  6E31               	movlw	low(01h)
  9322  001182  0E01               	movwf	((c:i2dtoa@p)),c
  9323  001184  6E30               	goto	i2l234
  9324  001186  EFC9  F008         	
  9325                           i2l232:; BSR set to: 0
  9326  00118A                     
  9327                           	movff	(_prec),(c:i2dtoa@p)
  9328  00118A  C0F0  F030         	movff	(_prec+1),(c:i2dtoa@p+1)
  9329  00118E  C0F1  F031         	
  9330                           i2l234:; BSR set to: 0
  9331  001192                     
  9332                           	line	291
  9333                           ;E:\ProgramasWindowns\Microchip\xc8\v2.00\pic\sources\c99\common\doprnt.c: 291:     w = 
                                 width;
  9334                           	movff	(_width),(c:i2dtoa@w)
  9335  001192  C0EE  F032         	movff	(_width+1),(c:i2dtoa@w+1)
  9336  001196  C0EF  F033         	line	292
  9337                           	
  9338                           i2l2441:; BSR set to: 0
  9339  00119A                     
  9340                           ;E:\ProgramasWindowns\Microchip\xc8\v2.00\pic\sources\c99\common\doprnt.c: 292:     if (
                                 s || (flags & (1 << 2))) {
  9341                           	movf	((c:i2dtoa@s)),c,w
  9342  00119A  5034               iorwf	((c:i2dtoa@s+1)),c,w
  9343  00119C  1035               	btfss	status,2
  9344  00119E  A4D8               	goto	i2u214_41
  9345  0011A0  EFD4  F008         	goto	i2u214_40
  9346  0011A4  EFD6  F008         
  9347                           i2u214_41:
  9348  0011A8                     	goto	i2l2445
  9349  0011A8  EFDF  F008         i2u214_40:
  9350  0011AC                     	
  9351                           i2l2443:; BSR set to: 0
  9352  0011AC                     
  9353                           	
  9354                           	btfss	((_flags))&0ffh,(2)&7
  9355  0011AC  A5F2               	goto	i2u215_41
  9356  0011AE  EFDB  F008         	goto	i2u215_40
  9357  0011B2  EFDD  F008         i2u215_41:
  9358  0011B6                     	goto	i2l2447
  9359  0011B6  EFE4  F008         i2u215_40:
  9360  0011BA                     	goto	i2l2445
  9361  0011BA  EFDF  F008         	
  9362                           i2l237:; BSR set to: 0
  9363  0011BE                     
  9364                           	line	293
  9365                           	
  9366                           i2l2445:; BSR set to: 0
  9367  0011BE                     
  9368                           ;E:\ProgramasWindowns\Microchip\xc8\v2.00\pic\sources\c99\common\doprnt.c: 293:         
                                 --w;
  9369                           	decf	((c:i2dtoa@w)),c
  9370  0011BE  0632               	btfss	status,0
  9371  0011C0  A0D8               	decf	((c:i2dtoa@w+1)),c
  9372  0011C2  0633               	goto	i2l2447
  9373  0011C4  EFE4  F008         	line	294
  9374                           ;E:\ProgramasWindowns\Microchip\xc8\v2.00\pic\sources\c99\common\doprnt.c: 294:     }
  9375                           	
  9376                           i2l235:; BSR set to: 0
  9377  0011C8                     
  9378                           	line	297
  9379                           	
  9380                           i2l2447:; BSR set to: 0
  9381  0011C8                     
  9382                           ;E:\ProgramasWindowns\Microchip\xc8\v2.00\pic\sources\c99\common\doprnt.c: 297:     i = 
                                 sizeof(dbuf) - 1;
  9383                           	movlw	high(01Fh)
  9384  0011C8  0E00               	movwf	((c:i2dtoa@i+1)),c
  9385  0011CA  6E3F               	movlw	low(01Fh)
  9386  0011CC  0E1F               	movwf	((c:i2dtoa@i)),c
  9387  0011CE  6E3E               	line	298
  9388                           	
  9389                           i2l2449:; BSR set to: 0
  9390  0011D0                     
  9391                           ;E:\ProgramasWindowns\Microchip\xc8\v2.00\pic\sources\c99\common\doprnt.c: 298:     dbuf
                                 [i] = '\0';
  9392                           	movlw	low(_dbuf)
  9393  0011D0  0E00               	addwf	((c:i2dtoa@i)),c,w
  9394  0011D2  243E               	movwf	c:fsr2l
  9395  0011D4  6ED9               	movlw	high(_dbuf)
  9396  0011D6  0E01               	addwfc	((c:i2dtoa@i+1)),c,w
  9397  0011D8  203F               	movwf	1+c:fsr2l
  9398  0011DA  6EDA               	movlw	low(0)
  9399  0011DC  0E00               	movwf	indf2
  9400  0011DE  6EDF               	line	299
  9401                           ;E:\ProgramasWindowns\Microchip\xc8\v2.00\pic\sources\c99\common\doprnt.c: 299:     whil
                                 e (!(i < 1) && (n || (0 < p) || ((0 < w) && (flags & (1 << 1))))) {
  9402                           	goto	i2l2461
  9403  0011E0  EF70  F009         	
  9404                           i2l239:; BSR set to: 0
  9405  0011E4                     
  9406                           	line	300
  9407                           	
  9408                           i2l2451:
  9409  0011E4                     ;E:\ProgramasWindowns\Microchip\xc8\v2.00\pic\sources\c99\common\doprnt.c: 300:         
                                 --i;
  9410                           	decf	((c:i2dtoa@i)),c
  9411  0011E4  063E               	btfss	status,0
  9412  0011E6  A0D8               	decf	((c:i2dtoa@i+1)),c
  9413  0011E8  063F               	line	301
  9414                           	
  9415                           i2l2453:
  9416  0011EA                     ;E:\ProgramasWindowns\Microchip\xc8\v2.00\pic\sources\c99\common\doprnt.c: 301:         
                                 dbuf[i] = '0' + abs(n % 10);
  9417                           	movlw	low(_dbuf)
  9418  0011EA  0E00               	addwf	((c:i2dtoa@i)),c,w
  9419  0011EC  243E               	movwf	c:fsr2l
  9420  0011EE  6ED9               	movlw	high(_dbuf)
  9421  0011F0  0E01               	addwfc	((c:i2dtoa@i+1)),c,w
  9422  0011F2  203F               	movwf	1+c:fsr2l
  9423  0011F4  6EDA               	movff	(c:i2dtoa@n),(c:i2___aomod@dividend)
  9424  0011F6  C036  F001         	movff	(c:i2dtoa@n+1),(c:i2___aomod@dividend+1)
  9425  0011FA  C037  F002         	movff	(c:i2dtoa@n+2),(c:i2___aomod@dividend+2)
  9426  0011FE  C038  F003         	movff	(c:i2dtoa@n+3),(c:i2___aomod@dividend+3)
  9427  001202  C039  F004         	movff	(c:i2dtoa@n+4),(c:i2___aomod@dividend+4)
  9428  001206  C03A  F005         	movff	(c:i2dtoa@n+5),(c:i2___aomod@dividend+5)
  9429  00120A  C03B  F006         	movff	(c:i2dtoa@n+6),(c:i2___aomod@dividend+6)
  9430  00120E  C03C  F007         	movff	(c:i2dtoa@n+7),(c:i2___aomod@dividend+7)
  9431  001212  C03D  F008         	movlw	byte0(0Ah)
  9432  001216  0E0A               	movwf	((c:i2___aomod@divisor)),c
  9433  001218  6E09               	movlw	byte1(0Ah)
  9434  00121A  0E00               	movwf	((c:i2___aomod@divisor+1)),c
  9435  00121C  6E0A               	movlw	byte2(0Ah)
  9436  00121E  0E00               	movwf	((c:i2___aomod@divisor+2)),c
  9437  001220  6E0B               	movlw	byte3(0Ah)
  9438  001222  0E00               	movwf	((c:i2___aomod@divisor+3)),c
  9439  001224  6E0C               	movlw	byte4(0Ah)
  9440  001226  0E00               	movwf	((c:i2___aomod@divisor+4)),c
  9441  001228  6E0D               	movlw	byte5(0Ah)
  9442  00122A  0E00               	movwf	((c:i2___aomod@divisor+5)),c
  9443  00122C  6E0E               	movlw	byte6(0Ah)
  9444  00122E  0E00               	movwf	((c:i2___aomod@divisor+6)),c
  9445  001230  6E0F               	movlw	byte7(0Ah)
  9446  001232  0E00               	movwf	((c:i2___aomod@divisor+7)),c
  9447  001234  6E10               	call	i2___aomod	;wreg free
  9448  001236  EC49  F00E         	movff	0+?i2___aomod,??i2_dtoa+0+0
  9449  00123A  C001  F026         	movff	1+?i2___aomod,??i2_dtoa+0+0+1
  9450  00123E  C002  F027         	movff	2+?i2___aomod,??i2_dtoa+0+0+2
  9451  001242  C003  F028         	movff	3+?i2___aomod,??i2_dtoa+0+0+3
  9452  001246  C004  F029         	movff	4+?i2___aomod,??i2_dtoa+0+0+4
  9453  00124A  C005  F02A         	movff	5+?i2___aomod,??i2_dtoa+0+0+5
  9454  00124E  C006  F02B         	movff	6+?i2___aomod,??i2_dtoa+0+0+6
  9455  001252  C007  F02C         	movff	7+?i2___aomod,??i2_dtoa+0+0+7
  9456  001256  C008  F02D         	
  9457                           	movff	??i2_dtoa+0+0,(c:i2abs@a)
  9458  00125A  C026  F013         	movff	??i2_dtoa+0+2,(c:i2abs@a+1)
  9459  00125E  C028  F014         	call	i2_abs	;wreg free
  9460  001262  ECE2  F014         	movf	(0+?i2_abs),c,w
  9461  001266  5013               	addlw	low(030h)
  9462  001268  0F30               	movwf	indf2,c
  9463  00126A  6EDF               
  9464                           	line	302
  9465                           	
  9466                           i2l2455:
  9467  00126C                     ;E:\ProgramasWindowns\Microchip\xc8\v2.00\pic\sources\c99\common\doprnt.c: 302:         
                                 --p;
  9468                           	decf	((c:i2dtoa@p)),c
  9469  00126C  0630               	btfss	status,0
  9470  00126E  A0D8               	decf	((c:i2dtoa@p+1)),c
  9471  001270  0631               	line	303
  9472                           	
  9473                           i2l2457:
  9474  001272                     ;E:\ProgramasWindowns\Microchip\xc8\v2.00\pic\sources\c99\common\doprnt.c: 303:         
                                 --w;
  9475                           	decf	((c:i2dtoa@w)),c
  9476  001272  0632               	btfss	status,0
  9477  001274  A0D8               	decf	((c:i2dtoa@w+1)),c
  9478  001276  0633               	line	304
  9479                           	
  9480                           i2l2459:
  9481  001278                     ;E:\ProgramasWindowns\Microchip\xc8\v2.00\pic\sources\c99\common\doprnt.c: 304:         
                                 n = n / 10;
  9482                           	movff	(c:i2dtoa@n),(c:i2___aodiv@dividend)
  9483  001278  C036  F001         	movff	(c:i2dtoa@n+1),(c:i2___aodiv@dividend+1)
  9484  00127C  C037  F002         	movff	(c:i2dtoa@n+2),(c:i2___aodiv@dividend+2)
  9485  001280  C038  F003         	movff	(c:i2dtoa@n+3),(c:i2___aodiv@dividend+3)
  9486  001284  C039  F004         	movff	(c:i2dtoa@n+4),(c:i2___aodiv@dividend+4)
  9487  001288  C03A  F005         	movff	(c:i2dtoa@n+5),(c:i2___aodiv@dividend+5)
  9488  00128C  C03B  F006         	movff	(c:i2dtoa@n+6),(c:i2___aodiv@dividend+6)
  9489  001290  C03C  F007         	movff	(c:i2dtoa@n+7),(c:i2___aodiv@dividend+7)
  9490  001294  C03D  F008         	movlw	byte0(0Ah)
  9491  001298  0E0A               	movwf	((c:i2___aodiv@divisor)),c
  9492  00129A  6E09               	movlw	byte1(0Ah)
  9493  00129C  0E00               	movwf	((c:i2___aodiv@divisor+1)),c
  9494  00129E  6E0A               	movlw	byte2(0Ah)
  9495  0012A0  0E00               	movwf	((c:i2___aodiv@divisor+2)),c
  9496  0012A2  6E0B               	movlw	byte3(0Ah)
  9497  0012A4  0E00               	movwf	((c:i2___aodiv@divisor+3)),c
  9498  0012A6  6E0C               	movlw	byte4(0Ah)
  9499  0012A8  0E00               	movwf	((c:i2___aodiv@divisor+4)),c
  9500  0012AA  6E0D               	movlw	byte5(0Ah)
  9501  0012AC  0E00               	movwf	((c:i2___aodiv@divisor+5)),c
  9502  0012AE  6E0E               	movlw	byte6(0Ah)
  9503  0012B0  0E00               	movwf	((c:i2___aodiv@divisor+6)),c
  9504  0012B2  6E0F               	movlw	byte7(0Ah)
  9505  0012B4  0E00               	movwf	((c:i2___aodiv@divisor+7)),c
  9506  0012B6  6E10               	call	i2___aodiv	;wreg free
  9507  0012B8  ECAA  F00C         	movff	0+?i2___aodiv,(c:i2dtoa@n)
  9508  0012BC  C001  F036         	movff	1+?i2___aodiv,(c:i2dtoa@n+1)
  9509  0012C0  C002  F037         	movff	2+?i2___aodiv,(c:i2dtoa@n+2)
  9510  0012C4  C003  F038         	movff	3+?i2___aodiv,(c:i2dtoa@n+3)
  9511  0012C8  C004  F039         	movff	4+?i2___aodiv,(c:i2dtoa@n+4)
  9512  0012CC  C005  F03A         	movff	5+?i2___aodiv,(c:i2dtoa@n+5)
  9513  0012D0  C006  F03B         	movff	6+?i2___aodiv,(c:i2dtoa@n+6)
  9514  0012D4  C007  F03C         	movff	7+?i2___aodiv,(c:i2dtoa@n+7)
  9515  0012D8  C008  F03D         	
  9516                           	goto	i2l2461
  9517  0012DC  EF70  F009         	line	305
  9518                           ;E:\ProgramasWindowns\Microchip\xc8\v2.00\pic\sources\c99\common\doprnt.c: 305:     }
  9519                           	
  9520                           i2l238:
  9521  0012E0                     	line	299
  9522                           	
  9523                           i2l2461:
  9524  0012E0                     ;E:\ProgramasWindowns\Microchip\xc8\v2.00\pic\sources\c99\common\doprnt.c: 299:     whil
                                 e (!(i < 1) && (n || (0 < p) || ((0 < w) && (flags & (1 << 1))))) {
  9525                           	btfsc	((c:i2dtoa@i+1)),c,7
  9526  0012E0  BE3F               	goto	i2u216_41
  9527  0012E2  EF7B  F009         	movf	((c:i2dtoa@i+1)),c,w
  9528  0012E6  503F               	bnz	i2u216_40
  9529  0012E8  E108               	decf	((c:i2dtoa@i)),c,w
  9530  0012EA  043E               	btfss	status,0
  9531  0012EC  A0D8               	goto	i2u216_41
  9532  0012EE  EF7B  F009         	goto	i2u216_40
  9533  0012F2  EF7D  F009         
  9534                           i2u216_41:
  9535  0012F6                     	goto	i2l2471
  9536  0012F6  EFB4  F009         i2u216_40:
  9537  0012FA                     	
  9538                           i2l2463:
  9539  0012FA                     	movf	((c:i2dtoa@n)),c,w
  9540  0012FA  5036               iorwf	((c:i2dtoa@n+1)),c,w
  9541  0012FC  1037               iorwf	((c:i2dtoa@n+2)),c,w
  9542  0012FE  1038               iorwf	((c:i2dtoa@n+3)),c,w
  9543  001300  1039               iorwf	((c:i2dtoa@n+4)),c,w
  9544  001302  103A               iorwf	((c:i2dtoa@n+5)),c,w
  9545  001304  103B               iorwf	((c:i2dtoa@n+6)),c,w
  9546  001306  103C               iorwf	((c:i2dtoa@n+7)),c,w
  9547  001308  103D               	btfss	status,2
  9548  00130A  A4D8               	goto	i2u217_41
  9549  00130C  EF8A  F009         	goto	i2u217_40
  9550  001310  EF8C  F009         
  9551                           i2u217_41:
  9552  001314                     	goto	i2l2451
  9553  001314  EFF2  F008         i2u217_40:
  9554  001318                     	
  9555                           i2l2465:
  9556  001318                     	btfsc	((c:i2dtoa@p+1)),c,7
  9557  001318  BE31               	goto	i2u218_40
  9558  00131A  EF99  F009         	movf	((c:i2dtoa@p+1)),c,w
  9559  00131E  5031               	bnz	i2u218_41
  9560  001320  E106               	decf	((c:i2dtoa@p)),c,w
  9561  001322  0430               	btfsc	status,0
  9562  001324  B0D8               	goto	i2u218_41
  9563  001326  EF97  F009         	goto	i2u218_40
  9564  00132A  EF99  F009         
  9565                           i2u218_41:
  9566  00132E                     	goto	i2l2451
  9567  00132E  EFF2  F008         i2u218_40:
  9568  001332                     	
  9569                           i2l2467:
  9570  001332                     	btfsc	((c:i2dtoa@w+1)),c,7
  9571  001332  BE33               	goto	i2u219_41
  9572  001334  EFA4  F009         	movf	((c:i2dtoa@w+1)),c,w
  9573  001338  5033               	bnz	i2u219_40
  9574  00133A  E108               	decf	((c:i2dtoa@w)),c,w
  9575  00133C  0432               	btfss	status,0
  9576  00133E  A0D8               	goto	i2u219_41
  9577  001340  EFA4  F009         	goto	i2u219_40
  9578  001344  EFA6  F009         
  9579                           i2u219_41:
  9580  001348                     	goto	i2l2471
  9581  001348  EFB4  F009         i2u219_40:
  9582  00134C                     	
  9583                           i2l2469:
  9584  00134C                     	movlb	0	; () banked
  9585  00134C  0100               	
  9586                           	btfsc	((_flags))&0ffh,(1)&7
  9587  00134E  B3F2               	goto	i2u220_41
  9588  001350  EFAC  F009         	goto	i2u220_40
  9589  001354  EFAE  F009         i2u220_41:
  9590  001358                     	goto	i2l2451
  9591  001358  EFF2  F008         i2u220_40:
  9592  00135C                     	goto	i2l2471
  9593  00135C  EFB4  F009         	
  9594                           i2l243:; BSR set to: 0
  9595  001360                     
  9596                           	goto	i2l2471
  9597  001360  EFB4  F009         	
  9598                           i2l241:; BSR set to: 0
  9599  001364                     
  9600                           	goto	i2l2471
  9601  001364  EFB4  F009         	
  9602                           i2l244:; BSR set to: 0
  9603  001368                     
  9604                           	line	308
  9605                           	
  9606                           i2l2471:
  9607  001368                     ;E:\ProgramasWindowns\Microchip\xc8\v2.00\pic\sources\c99\common\doprnt.c: 308:     if (
                                 s || (flags & (1 << 2))) {
  9608                           	movf	((c:i2dtoa@s)),c,w
  9609  001368  5034               iorwf	((c:i2dtoa@s+1)),c,w
  9610  00136A  1035               	btfss	status,2
  9611  00136C  A4D8               	goto	i2u221_41
  9612  00136E  EFBB  F009         	goto	i2u221_40
  9613  001372  EFBD  F009         
  9614                           i2u221_41:
  9615  001376                     	goto	i2l2475
  9616  001376  EFC7  F009         i2u221_40:
  9617  00137A                     	
  9618                           i2l2473:
  9619  00137A                     	movlb	0	; () banked
  9620  00137A  0100               	
  9621                           	btfss	((_flags))&0ffh,(2)&7
  9622  00137C  A5F2               	goto	i2u222_41
  9623  00137E  EFC3  F009         	goto	i2u222_40
  9624  001382  EFC5  F009         i2u222_41:
  9625  001386                     	goto	i2l2485
  9626  001386  EFE9  F009         i2u222_40:
  9627  00138A                     	goto	i2l2475
  9628  00138A  EFC7  F009         	
  9629                           i2l247:; BSR set to: 0
  9630  00138E                     
  9631                           	line	309
  9632                           	
  9633                           i2l2475:
  9634  00138E                     ;E:\ProgramasWindowns\Microchip\xc8\v2.00\pic\sources\c99\common\doprnt.c: 309:         
                                 --i;
  9635                           	decf	((c:i2dtoa@i)),c
  9636  00138E  063E               	btfss	status,0
  9637  001390  A0D8               	decf	((c:i2dtoa@i+1)),c
  9638  001392  063F               	line	310
  9639                           	
  9640                           i2l2477:
  9641  001394                     ;E:\ProgramasWindowns\Microchip\xc8\v2.00\pic\sources\c99\common\doprnt.c: 310:         
                                 dbuf[i] = s ? '-' : '+';
  9642                           	movf	((c:i2dtoa@s)),c,w
  9643  001394  5034               iorwf	((c:i2dtoa@s+1)),c,w
  9644  001396  1035               	btfss	status,2
  9645  001398  A4D8               	goto	i2u223_41
  9646  00139A  EFD1  F009         	goto	i2u223_40
  9647  00139E  EFD3  F009         
  9648                           i2u223_41:
  9649  0013A2                     	goto	i2l2481
  9650  0013A2  EFD9  F009         i2u223_40:
  9651  0013A6                     	
  9652                           i2l2479:
  9653  0013A6                     	movlw	high(02Bh)
  9654  0013A6  0E00               	movwf	((c:i2_dtoa$347+1)),c
  9655  0013A8  6E2F               	movlw	low(02Bh)
  9656  0013AA  0E2B               	movwf	((c:i2_dtoa$347)),c
  9657  0013AC  6E2E               	goto	i2l2483
  9658  0013AE  EFDF  F009         	
  9659                           i2l249:
  9660  0013B2                     	
  9661                           i2l2481:
  9662  0013B2                     	movlw	high(02Dh)
  9663  0013B2  0E00               	movwf	((c:i2_dtoa$347+1)),c
  9664  0013B4  6E2F               	movlw	low(02Dh)
  9665  0013B6  0E2D               	movwf	((c:i2_dtoa$347)),c
  9666  0013B8  6E2E               	goto	i2l2483
  9667  0013BA  EFDF  F009         	
  9668                           i2l251:
  9669  0013BE                     	
  9670                           i2l2483:
  9671  0013BE                     	movlw	low(_dbuf)
  9672  0013BE  0E00               	addwf	((c:i2dtoa@i)),c,w
  9673  0013C0  243E               	movwf	c:fsr2l
  9674  0013C2  6ED9               	movlw	high(_dbuf)
  9675  0013C4  0E01               	addwfc	((c:i2dtoa@i+1)),c,w
  9676  0013C6  203F               	movwf	1+c:fsr2l
  9677  0013C8  6EDA               	movff	(c:i2_dtoa$347),indf2
  9678  0013CA  C02E  FFDF         
  9679                           	goto	i2l2485
  9680  0013CE  EFE9  F009         	line	311
  9681                           ;E:\ProgramasWindowns\Microchip\xc8\v2.00\pic\sources\c99\common\doprnt.c: 311:     }
  9682                           	
  9683                           i2l245:
  9684  0013D2                     	line	314
  9685                           	
  9686                           i2l2485:
  9687  0013D2                     ;E:\ProgramasWindowns\Microchip\xc8\v2.00\pic\sources\c99\common\doprnt.c: 314:     retu
                                 rn pad(fp, &dbuf[i], w);
  9688                           		movff	(c:i2dtoa@fp),(c:i2pad@fp)
  9689  0013D2  C01C  F011         	movff	(c:i2dtoa@fp+1),(c:i2pad@fp+1)
  9690  0013D6  C01D  F012         
  9691                           	movlw	low(_dbuf)
  9692  0013DA  0E00               	addwf	((c:i2dtoa@i)),c,w
  9693  0013DC  243E               	movwf	((c:i2pad@buf)),c
  9694  0013DE  6E13               	movlw	high(_dbuf)
  9695  0013E0  0E01               	addwfc	((c:i2dtoa@i+1)),c,w
  9696  0013E2  203F               	movwf	1+((c:i2pad@buf)),c
  9697  0013E4  6E14               	movff	(c:i2dtoa@w),(c:i2pad@p)
  9698  0013E6  C032  F015         	movff	(c:i2dtoa@w+1),(c:i2pad@p+1)
  9699  0013EA  C033  F016         	call	i2_pad	;wreg free
  9700  0013EE  ECA1  F011         	movff	0+?i2_pad,(c:?i2_dtoa)
  9701  0013F2  C011  F01C         	movff	1+?i2_pad,(c:?i2_dtoa+1)
  9702  0013F6  C012  F01D         	goto	i2l252
  9703  0013FA  EFFF  F009         	
  9704                           i2l2487:
  9705  0013FE                     	line	315
  9706                           	
  9707                           i2l252:
  9708  0013FE                     	return	;funcret
  9709  0013FE  0012               	opt stack 0
  9710                           GLOBAL	__end_ofi2_dtoa
  9711                           	__end_ofi2_dtoa:
  9712  001400                     	signat	i2_dtoa,90
  9713                           	global	i2_pad
  9714                           
  9715 ;; *************** function i2_pad *****************
  9716 ;; Defined at:
  9717 ;;		line 72 in file "E:\ProgramasWindowns\Microchip\xc8\v2.00\pic\sources\c99\common\doprnt.c"
  9718 ;; Parameters:    Size  Location     Type
  9719 ;;  fp              2   16[COMRAM] PTR struct _IO_FILE
  9720 ;;		 -> i2sprintf@f(6), sprintf@f(6), 
  9721 ;;  buf             2   18[COMRAM] PTR unsigned char 
  9722 ;;		 -> dbuf(32), 
  9723 ;;  p               2   20[COMRAM] int 
  9724 ;; Auto vars:     Size  Location     Type
  9725 ;;  pad             2   25[COMRAM] int 
  9726 ;;  pad             2   23[COMRAM] int 
  9727 ;; Return value:  Size  Location     Type
  9728 ;;                  2   16[COMRAM] int 
  9729 ;; Registers used:
  9730 ;;		wreg, fsr1l, fsr1h, fsr2l, fsr2h, status,2, status,0, cstack
  9731 ;; Tracked objects:
  9732 ;;		On entry : 0/0
  9733 ;;		On exit  : 0/0
  9734 ;;		Unchanged: 0/0
  9735 ;; Data sizes:     COMRAM   BANK0   BANK1   BANK2   BANK3   BANK4   BANK5
  9736 ;;      Params:         6       0       0       0       0       0       0
  9737 ;;      Locals:         4       0       0       0       0       0       0
  9738 ;;      Temps:          1       0       0       0       0       0       0
  9739 ;;      Totals:        11       0       0       0       0       0       0
  9740 ;;Total ram usage:       11 bytes
  9741 ;; Hardware stack levels used:    1
  9742 ;; Hardware stack levels required when called:    3
  9743 ;; This function calls:
  9744 ;;		i2_fputc
  9745 ;;		i2_fputs
  9746 ;;		i2_strlen
  9747 ;; This function is called by:
  9748 ;;		i2_dtoa
  9749 ;; This function uses a non-reentrant model
  9750 ;;
  9751                           psect	text30,class=CODE,space=0,reloc=2,group=0
  9752                           	line	72
  9753                           global __ptext30
  9754                           __ptext30:
  9755  002342                     psect	text30
  9756                           	file	"E:\ProgramasWindowns\Microchip\xc8\v2.00\pic\sources\c99\common\doprnt.c"
  9757                           	line	72
  9758                           	global	__size_ofi2_pad
  9759                           	__size_ofi2_pad	equ	__end_ofi2_pad-i2_pad
  9760  0000                     	
  9761                           i2_pad:
  9762  002342                     ;incstack = 0
  9763                           	opt	stack 10
  9764                           	line	77
  9765                           	
  9766                           i2l2259:
  9767  002342                     ;E:\ProgramasWindowns\Microchip\xc8\v2.00\pic\sources\c99\common\doprnt.c: 72: static in
                                 t pad(FILE *fp, char *buf, int p);E:\ProgramasWindowns\Microchip\xc8\v2.00\pic\sources\c
                                 99\common\doprnt.c: 73: {;E:\ProgramasWindowns\Microchip\xc8\v2.00\pic\sources\c99\commo
                                 n\doprnt.c: 74:     int i, w;;E:\ProgramasWindowns\Microchip\xc8\v2.00\pic\sources\c99\c
                                 ommon\doprnt.c: 77:     if (flags & (1 << 0)) {
  9768                           	movlb	0	; () banked
  9769  002342  0100               	
  9770                           	btfss	((_flags))&0ffh,(0)&7
  9771  002344  A1F2               	goto	i2u176_41
  9772  002346  EFA7  F011         	goto	i2u176_40
  9773  00234A  EFA9  F011         i2u176_41:
  9774  00234E                     	goto	i2l2263
  9775  00234E  EFB5  F011         i2u176_40:
  9776  002352                     	line	78
  9777                           	
  9778                           i2l2261:; BSR set to: 0
  9779  002352                     
  9780                           ;E:\ProgramasWindowns\Microchip\xc8\v2.00\pic\sources\c99\common\doprnt.c: 78:         f
                                 puts((const char *)buf, fp);
  9781                           		movff	(c:i2pad@buf),(c:i2fputs@s)
  9782  002352  C013  F00A         	movff	(c:i2pad@buf+1),(c:i2fputs@s+1)
  9783  002356  C014  F00B         
  9784                           		movff	(c:i2pad@fp),(c:i2fputs@fp)
  9785  00235A  C011  F00C         	movff	(c:i2pad@fp+1),(c:i2fputs@fp+1)
  9786  00235E  C012  F00D         
  9787                           	call	i2_fputs	;wreg free
  9788  002362  EC74  F014         	goto	i2l2263
  9789  002366  EFB5  F011         	line	79
  9790                           ;E:\ProgramasWindowns\Microchip\xc8\v2.00\pic\sources\c99\common\doprnt.c: 79:     }
  9791                           	
  9792                           i2l217:
  9793  00236A                     	line	82
  9794                           	
  9795                           i2l2263:
  9796  00236A                     ;E:\ProgramasWindowns\Microchip\xc8\v2.00\pic\sources\c99\common\doprnt.c: 82:     w = (
                                 p < 0) ? 0 : p;
  9797                           	btfsc	((c:i2pad@p+1)),c,7
  9798  00236A  BE16               	goto	i2u177_41
  9799  00236C  EFBA  F011         	goto	i2u177_40
  9800  002370  EFBC  F011         
  9801                           i2u177_41:
  9802  002374                     	goto	i2l2267
  9803  002374  EFC2  F011         i2u177_40:
  9804  002378                     	
  9805                           i2l2265:
  9806  002378                     	movff	(c:i2pad@p),(c:i2pad@w)
  9807  002378  C015  F01A         	movff	(c:i2pad@p+1),(c:i2pad@w+1)
  9808  00237C  C016  F01B         	goto	i2l221
  9809  002380  EFC6  F011         	
  9810                           i2l219:
  9811  002384                     	
  9812                           i2l2267:
  9813  002384                     	movlw	high(0)
  9814  002384  0E00               	movwf	((c:i2pad@w+1)),c
  9815  002386  6E1B               	movlw	low(0)
  9816  002388  0E00               	movwf	((c:i2pad@w)),c
  9817  00238A  6E1A               	
  9818                           i2l221:
  9819  00238C                     	line	83
  9820                           ;E:\ProgramasWindowns\Microchip\xc8\v2.00\pic\sources\c99\common\doprnt.c: 83:     i = 0
                                 ;
  9821                           	movlw	high(0)
  9822  00238C  0E00               	movwf	((c:i2pad@i+1)),c
  9823  00238E  6E19               	movlw	low(0)
  9824  002390  0E00               	movwf	((c:i2pad@i)),c
  9825  002392  6E18               	line	84
  9826                           ;E:\ProgramasWindowns\Microchip\xc8\v2.00\pic\sources\c99\common\doprnt.c: 84:     while
                                  (i < w) {
  9827                           	goto	i2l2273
  9828  002394  EFDA  F011         	
  9829                           i2l223:
  9830  002398                     	line	85
  9831                           	
  9832                           i2l2269:
  9833  002398                     ;E:\ProgramasWindowns\Microchip\xc8\v2.00\pic\sources\c99\common\doprnt.c: 85:         f
                                 putc(' ', fp);
  9834                           	movlw	high(020h)
  9835  002398  0E00               	movwf	((c:i2fputc@c+1)),c
  9836  00239A  6E02               	movlw	low(020h)
  9837  00239C  0E20               	movwf	((c:i2fputc@c)),c
  9838  00239E  6E01               		movff	(c:i2pad@fp),(c:i2fputc@fp)
  9839  0023A0  C011  F003         	movff	(c:i2pad@fp+1),(c:i2fputc@fp+1)
  9840  0023A4  C012  F004         
  9841                           	call	i2_fputc	;wreg free
  9842  0023A8  ECC5  F010         	line	86
  9843                           	
  9844                           i2l2271:
  9845  0023AC                     ;E:\ProgramasWindowns\Microchip\xc8\v2.00\pic\sources\c99\common\doprnt.c: 86:         +
                                 +i;
  9846                           	infsnz	((c:i2pad@i)),c
  9847  0023AC  4A18               	incf	((c:i2pad@i+1)),c
  9848  0023AE  2A19               	goto	i2l2273
  9849  0023B0  EFDA  F011         	line	87
  9850                           ;E:\ProgramasWindowns\Microchip\xc8\v2.00\pic\sources\c99\common\doprnt.c: 87:     }
  9851                           	
  9852                           i2l222:
  9853  0023B4                     	line	84
  9854                           	
  9855                           i2l2273:
  9856  0023B4                     ;E:\ProgramasWindowns\Microchip\xc8\v2.00\pic\sources\c99\common\doprnt.c: 84:     while
                                  (i < w) {
  9857                           		movf	((c:i2pad@w)),c,w
  9858  0023B4  501A               	subwf	((c:i2pad@i)),c,w
  9859  0023B6  5C18               	movf	((c:i2pad@i+1)),c,w
  9860  0023B8  5019               	xorlw	80h
  9861  0023BA  0A80               	movwf	(??i2_pad+0+0)&0ffh,c
  9862  0023BC  6E17               	movf	((c:i2pad@w+1)),c,w
  9863  0023BE  501B               	xorlw	80h
  9864  0023C0  0A80               	subwfb	(??i2_pad+0+0)&0ffh,c,w
  9865  0023C2  5817               	btfss	status,0
  9866  0023C4  A0D8               	goto	i2u178_41
  9867  0023C6  EFE7  F011         	goto	i2u178_40
  9868  0023CA  EFE9  F011         
  9869                           i2u178_41:
  9870  0023CE                     	goto	i2l2269
  9871  0023CE  EFCC  F011         i2u178_40:
  9872  0023D2                     	
  9873                           i2l224:
  9874  0023D2                     	line	90
  9875                           ;E:\ProgramasWindowns\Microchip\xc8\v2.00\pic\sources\c99\common\doprnt.c: 90:     if (!
                                 (flags & (1 << 0))) {
  9876                           	movlb	0	; () banked
  9877  0023D2  0100               	
  9878                           	btfsc	((_flags))&0ffh,(0)&7
  9879  0023D4  B1F2               	goto	i2u179_41
  9880  0023D6  EFEF  F011         	goto	i2u179_40
  9881  0023DA  EFF1  F011         i2u179_41:
  9882  0023DE                     	goto	i2l2277
  9883  0023DE  EFFD  F011         i2u179_40:
  9884  0023E2                     	line	91
  9885                           	
  9886                           i2l2275:; BSR set to: 0
  9887  0023E2                     
  9888                           ;E:\ProgramasWindowns\Microchip\xc8\v2.00\pic\sources\c99\common\doprnt.c: 91:         f
                                 puts((const char *)buf, fp);
  9889                           		movff	(c:i2pad@buf),(c:i2fputs@s)
  9890  0023E2  C013  F00A         	movff	(c:i2pad@buf+1),(c:i2fputs@s+1)
  9891  0023E6  C014  F00B         
  9892                           		movff	(c:i2pad@fp),(c:i2fputs@fp)
  9893  0023EA  C011  F00C         	movff	(c:i2pad@fp+1),(c:i2fputs@fp+1)
  9894  0023EE  C012  F00D         
  9895                           	call	i2_fputs	;wreg free
  9896  0023F2  EC74  F014         	goto	i2l2277
  9897  0023F6  EFFD  F011         	line	92
  9898                           ;E:\ProgramasWindowns\Microchip\xc8\v2.00\pic\sources\c99\common\doprnt.c: 92:     }
  9899                           	
  9900                           i2l225:
  9901  0023FA                     	line	94
  9902                           	
  9903                           i2l2277:
  9904  0023FA                     ;E:\ProgramasWindowns\Microchip\xc8\v2.00\pic\sources\c99\common\doprnt.c: 94:     retur
                                 n strlen(buf) + w;
  9905                           		movff	(c:i2pad@buf),(c:i2strlen@s)
  9906  0023FA  C013  F001         	movff	(c:i2pad@buf+1),(c:i2strlen@s+1)
  9907  0023FE  C014  F002         
  9908                           	call	i2_strlen	;wreg free
  9909  002402  EC23  F014         	movf	((c:i2pad@w)),c,w
  9910  002406  501A               	addwf	(0+?i2_strlen),c,w
  9911  002408  2401               	movwf	((c:?i2_pad)),c
  9912  00240A  6E11               	movf	((c:i2pad@w+1)),c,w
  9913  00240C  501B               	addwfc	(1+?i2_strlen),c,w
  9914  00240E  2002               	movwf	1+((c:?i2_pad)),c
  9915  002410  6E12               	goto	i2l226
  9916  002412  EF0B  F012         	
  9917                           i2l2279:
  9918  002416                     	line	95
  9919                           	
  9920                           i2l226:
  9921  002416                     	return	;funcret
  9922  002416  0012               	opt stack 0
  9923                           GLOBAL	__end_ofi2_pad
  9924                           	__end_ofi2_pad:
  9925  002418                     	signat	i2_pad,90
  9926                           	global	i2_strlen
  9927                           
  9928 ;; *************** function i2_strlen *****************
  9929 ;; Defined at:
  9930 ;;		line 12 in file "E:\ProgramasWindowns\Microchip\xc8\v2.00\pic\sources\c99\common\strlen.c"
  9931 ;; Parameters:    Size  Location     Type
  9932 ;;  s               2    0[COMRAM] PTR const unsigned char 
  9933 ;;		 -> dbuf(32), 
  9934 ;; Auto vars:     Size  Location     Type
  9935 ;;  strlen          2    4[COMRAM] PTR const unsigned char 
  9936 ;;		 -> dbuf(32), 
  9937 ;; Return value:  Size  Location     Type
  9938 ;;                  2    0[COMRAM] unsigned int 
  9939 ;; Registers used:
  9940 ;;		wreg, fsr2l, fsr2h, status,2, status,0
  9941 ;; Tracked objects:
  9942 ;;		On entry : 0/0
  9943 ;;		On exit  : 0/0
  9944 ;;		Unchanged: 0/0
  9945 ;; Data sizes:     COMRAM   BANK0   BANK1   BANK2   BANK3   BANK4   BANK5
  9946 ;;      Params:         2       0       0       0       0       0       0
  9947 ;;      Locals:         2       0       0       0       0       0       0
  9948 ;;      Temps:          2       0       0       0       0       0       0
  9949 ;;      Totals:         6       0       0       0       0       0       0
  9950 ;;Total ram usage:        6 bytes
  9951 ;; Hardware stack levels used:    1
  9952 ;; This function calls:
  9953 ;;		Nothing
  9954 ;; This function is called by:
  9955 ;;		i2_pad
  9956 ;; This function uses a non-reentrant model
  9957 ;;
  9958                           psect	text31,class=CODE,space=0,reloc=2,group=0
  9959                           	file	"E:\ProgramasWindowns\Microchip\xc8\v2.00\pic\sources\c99\common\strlen.c"
  9960                           	line	12
  9961                           global __ptext31
  9962                           __ptext31:
  9963  002846                     psect	text31
  9964                           	file	"E:\ProgramasWindowns\Microchip\xc8\v2.00\pic\sources\c99\common\strlen.c"
  9965                           	line	12
  9966                           	global	__size_ofi2_strlen
  9967                           	__size_ofi2_strlen	equ	__end_ofi2_strlen-i2_strlen
  9968  0000                     	
  9969                           i2_strlen:
  9970  002846                     ;incstack = 0
  9971                           	opt	stack 12
  9972                           	line	14
  9973                           	
  9974                           i2l2143:
  9975  002846                     		movff	(c:i2strlen@s),(c:i2strlen@a)
  9976  002846  C001  F005         	movff	(c:i2strlen@s+1),(c:i2strlen@a+1)
  9977  00284A  C002  F006         
  9978                           	line	16
  9979                           	goto	i2l2147
  9980  00284E  EF2D  F014         	
  9981                           i2l981:
  9982  002852                     	line	17
  9983                           	
  9984                           i2l2145:
  9985  002852                     	infsnz	((c:i2strlen@s)),c
  9986  002852  4A01               	incf	((c:i2strlen@s+1)),c
  9987  002854  2A02               	goto	i2l2147
  9988  002856  EF2D  F014         	line	18
  9989                           	
  9990                           i2l980:
  9991  00285A                     	line	16
  9992                           	
  9993                           i2l2147:
  9994  00285A                     	movff	(c:i2strlen@s),fsr2l
  9995  00285A  C001  FFD9         	movff	(c:i2strlen@s+1),fsr2h
  9996  00285E  C002  FFDA         	movf	indf2,w
  9997  002862  50DF               	btfss	status,2
  9998  002864  A4D8               	goto	i2u157_41
  9999  002866  EF37  F014         	goto	i2u157_40
 10000  00286A  EF39  F014         i2u157_41:
 10001  00286E                     	goto	i2l2145
 10002  00286E  EF29  F014         i2u157_40:
 10003  002872                     	goto	i2l2149
 10004  002872  EF3B  F014         	
 10005                           i2l982:
 10006  002876                     	line	25
 10007                           	
 10008                           i2l2149:
 10009  002876                     	movff	(c:i2strlen@a),??i2_strlen+0+0
 10010  002876  C005  F003         	movff	(c:i2strlen@a+1),??i2_strlen+0+0+1
 10011  00287A  C006  F004         	comf	(??i2_strlen+0+0),c
 10012  00287E  1E03               	comf	(??i2_strlen+0+1),c
 10013  002880  1E04               	infsnz	(??i2_strlen+0+0),c
 10014  002882  4A03               	incf	(??i2_strlen+0+1),c
 10015  002884  2A04               	movf	((c:i2strlen@s)),c,w
 10016  002886  5001               	addwf	(??i2_strlen+0+0),c,w
 10017  002888  2403               	movwf	((c:?i2_strlen)),c
 10018  00288A  6E01               	movf	((c:i2strlen@s+1)),c,w
 10019  00288C  5002               	addwfc	(??i2_strlen+0+1),c,w
 10020  00288E  2004               	movwf	1+((c:?i2_strlen)),c
 10021  002890  6E02               	goto	i2l983
 10022  002892  EF4B  F014         	
 10023                           i2l2151:
 10024  002896                     	line	26
 10025                           	
 10026                           i2l983:
 10027  002896                     	return	;funcret
 10028  002896  0012               	opt stack 0
 10029                           GLOBAL	__end_ofi2_strlen
 10030                           	__end_ofi2_strlen:
 10031  002898                     	signat	i2_strlen,90
 10032                           	global	i2_fputs
 10033                           
 10034 ;; *************** function i2_fputs *****************
 10035 ;; Defined at:
 10036 ;;		line 8 in file "E:\ProgramasWindowns\Microchip\xc8\v2.00\pic\sources\c99\common\nf_fputs.c"
 10037 ;; Parameters:    Size  Location     Type
 10038 ;;  s               2    9[COMRAM] PTR const unsigned char 
 10039 ;;		 -> dbuf(32), 
 10040 ;;  fp              2   11[COMRAM] PTR struct _IO_FILE
 10041 ;;		 -> i2sprintf@f(6), sprintf@f(6), 
 10042 ;; Auto vars:     Size  Location     Type
 10043 ;;  fputs           2   14[COMRAM] int 
 10044 ;;  fputs           1   13[COMRAM] unsigned char 
 10045 ;; Return value:  Size  Location     Type
 10046 ;;                  2    9[COMRAM] int 
 10047 ;; Registers used:
 10048 ;;		wreg, fsr1l, fsr1h, fsr2l, fsr2h, status,2, status,0, cstack
 10049 ;; Tracked objects:
 10050 ;;		On entry : 0/0
 10051 ;;		On exit  : 0/0
 10052 ;;		Unchanged: 0/0
 10053 ;; Data sizes:     COMRAM   BANK0   BANK1   BANK2   BANK3   BANK4   BANK5
 10054 ;;      Params:         4       0       0       0       0       0       0
 10055 ;;      Locals:         3       0       0       0       0       0       0
 10056 ;;      Temps:          0       0       0       0       0       0       0
 10057 ;;      Totals:         7       0       0       0       0       0       0
 10058 ;;Total ram usage:        7 bytes
 10059 ;; Hardware stack levels used:    1
 10060 ;; Hardware stack levels required when called:    2
 10061 ;; This function calls:
 10062 ;;		i2_fputc
 10063 ;; This function is called by:
 10064 ;;		i2_pad
 10065 ;; This function uses a non-reentrant model
 10066 ;;
 10067                           psect	text32,class=CODE,space=0,reloc=2,group=0
 10068                           	file	"E:\ProgramasWindowns\Microchip\xc8\v2.00\pic\sources\c99\common\nf_fputs.c"
 10069                           	line	8
 10070                           global __ptext32
 10071                           __ptext32:
 10072  0028E8                     psect	text32
 10073                           	file	"E:\ProgramasWindowns\Microchip\xc8\v2.00\pic\sources\c99\common\nf_fputs.c"
 10074                           	line	8
 10075                           	global	__size_ofi2_fputs
 10076                           	__size_ofi2_fputs	equ	__end_ofi2_fputs-i2_fputs
 10077  0000                     	
 10078                           i2_fputs:
 10079  0028E8                     ;incstack = 0
 10080                           	opt	stack 10
 10081                           	line	13
 10082                           	
 10083                           i2l2135:
 10084  0028E8                     	movlw	high(0)
 10085  0028E8  0E00               	movwf	((c:i2fputs@i+1)),c
 10086  0028EA  6E10               	movlw	low(0)
 10087  0028EC  0E00               	movwf	((c:i2fputs@i)),c
 10088  0028EE  6E0F               	line	14
 10089                           	goto	i2l2141
 10090  0028F0  EF87  F014         	
 10091                           i2l965:
 10092  0028F4                     	line	15
 10093                           	
 10094                           i2l2137:
 10095  0028F4                     	movff	(c:i2fputs@c),(c:i2fputc@c)
 10096  0028F4  C00E  F001         	clrf	((c:i2fputc@c+1)),c
 10097  0028F8  6A02               		movff	(c:i2fputs@fp),(c:i2fputc@fp)
 10098  0028FA  C00C  F003         	movff	(c:i2fputs@fp+1),(c:i2fputc@fp+1)
 10099  0028FE  C00D  F004         
 10100                           	call	i2_fputc	;wreg free
 10101  002902  ECC5  F010         	line	16
 10102                           	
 10103                           i2l2139:
 10104  002906                     	infsnz	((c:i2fputs@i)),c
 10105  002906  4A0F               	incf	((c:i2fputs@i+1)),c
 10106  002908  2A10               	goto	i2l2141
 10107  00290A  EF87  F014         	line	17
 10108                           	
 10109                           i2l964:
 10110  00290E                     	line	14
 10111                           	
 10112                           i2l2141:
 10113  00290E                     	movf	((c:i2fputs@i)),c,w
 10114  00290E  500F               	addwf	((c:i2fputs@s)),c,w
 10115  002910  240A               	movwf	c:fsr2l
 10116  002912  6ED9               	movf	((c:i2fputs@i+1)),c,w
 10117  002914  5010               	addwfc	((c:i2fputs@s+1)),c,w
 10118  002916  200B               	movwf	1+c:fsr2l
 10119  002918  6EDA               	movf	indf2,w
 10120  00291A  50DF               	movwf	((c:i2fputs@c)),c
 10121  00291C  6E0E               	movf	((c:i2fputs@c)),c,w
 10122  00291E  500E               	btfss	status,2
 10123  002920  A4D8               	goto	i2u156_41
 10124  002922  EF95  F014         	goto	i2u156_40
 10125  002926  EF97  F014         i2u156_41:
 10126  00292A                     	goto	i2l2137
 10127  00292A  EF7A  F014         i2u156_40:
 10128  00292E                     	goto	i2l967
 10129  00292E  EF99  F014         	
 10130                           i2l966:
 10131  002932                     	line	19
 10132                           ;	Return value of i2_fputs is never used
 10133                           	
 10134                           i2l967:
 10135  002932                     	return	;funcret
 10136  002932  0012               	opt stack 0
 10137                           GLOBAL	__end_ofi2_fputs
 10138                           	__end_ofi2_fputs:
 10139  002934                     	signat	i2_fputs,90
 10140                           	global	i2_fputc
 10141                           
 10142 ;; *************** function i2_fputc *****************
 10143 ;; Defined at:
 10144 ;;		line 8 in file "E:\ProgramasWindowns\Microchip\xc8\v2.00\pic\sources\c99\common\nf_fputc.c"
 10145 ;; Parameters:    Size  Location     Type
 10146 ;;  c               2    0[COMRAM] int 
 10147 ;;  fp              2    2[COMRAM] PTR struct _IO_FILE
 10148 ;;		 -> i2sprintf@f(6), sprintf@f(6), 
 10149 ;; Auto vars:     Size  Location     Type
 10150 ;;		None
 10151 ;; Return value:  Size  Location     Type
 10152 ;;                  2    0[COMRAM] int 
 10153 ;; Registers used:
 10154 ;;		wreg, fsr1l, fsr1h, fsr2l, fsr2h, status,2, status,0, cstack
 10155 ;; Tracked objects:
 10156 ;;		On entry : 0/0
 10157 ;;		On exit  : 0/0
 10158 ;;		Unchanged: 0/0
 10159 ;; Data sizes:     COMRAM   BANK0   BANK1   BANK2   BANK3   BANK4   BANK5
 10160 ;;      Params:         4       0       0       0       0       0       0
 10161 ;;      Locals:         0       0       0       0       0       0       0
 10162 ;;      Temps:          5       0       0       0       0       0       0
 10163 ;;      Totals:         9       0       0       0       0       0       0
 10164 ;;Total ram usage:        9 bytes
 10165 ;; Hardware stack levels used:    1
 10166 ;; Hardware stack levels required when called:    1
 10167 ;; This function calls:
 10168 ;;		i2_putch
 10169 ;; This function is called by:
 10170 ;;		i2_pad
 10171 ;;		i2_vfpfcnvrt
 10172 ;;		i2_fputs
 10173 ;; This function uses a non-reentrant model
 10174 ;;
 10175                           psect	text33,class=CODE,space=0,reloc=2,group=0
 10176                           	file	"E:\ProgramasWindowns\Microchip\xc8\v2.00\pic\sources\c99\common\nf_fputc.c"
 10177                           	line	8
 10178                           global __ptext33
 10179                           __ptext33:
 10180  00218A                     psect	text33
 10181                           	file	"E:\ProgramasWindowns\Microchip\xc8\v2.00\pic\sources\c99\common\nf_fputc.c"
 10182                           	line	8
 10183                           	global	__size_ofi2_fputc
 10184                           	__size_ofi2_fputc	equ	__end_ofi2_fputc-i2_fputc
 10185  0000                     	
 10186                           i2_fputc:
 10187  00218A                     ;incstack = 0
 10188                           	opt	stack 13
 10189                           	line	12
 10190                           	
 10191                           i2l2103:
 10192  00218A                     	movf	((c:i2fputc@fp)),c,w
 10193  00218A  5003               iorwf	((c:i2fputc@fp+1)),c,w
 10194  00218C  1004               	btfsc	status,2
 10195  00218E  B4D8               	goto	i2u150_41
 10196  002190  EFCC  F010         	goto	i2u150_40
 10197  002194  EFCE  F010         
 10198                           i2u150_41:
 10199  002198                     	goto	i2l2107
 10200  002198  EFD9  F010         i2u150_40:
 10201  00219C                     	
 10202                           i2l2105:
 10203  00219C                     	movf	((c:i2fputc@fp)),c,w
 10204  00219C  5003               iorwf	((c:i2fputc@fp+1)),c,w
 10205  00219E  1004               	btfss	status,2
 10206  0021A0  A4D8               	goto	i2u151_41
 10207  0021A2  EFD5  F010         	goto	i2u151_40
 10208  0021A6  EFD7  F010         
 10209                           i2u151_41:
 10210  0021AA                     	goto	i2l2109
 10211  0021AA  EFDE  F010         i2u151_40:
 10212  0021AE                     	goto	i2l2107
 10213  0021AE  EFD9  F010         	
 10214                           i2l954:
 10215  0021B2                     	line	13
 10216                           	
 10217                           i2l2107:
 10218  0021B2                     	movf	((c:i2fputc@c)),c,w
 10219  0021B2  5001               	
 10220                           	call	i2_putch
 10221  0021B4  ECC5  F015         	line	14
 10222                           	goto	i2l959
 10223  0021B8  EF33  F011         	
 10224                           i2l952:
 10225  0021BC                     	line	15
 10226                           	
 10227                           i2l2109:
 10228  0021BC                     	lfsr	2,04h
 10229  0021BC  EE20 F004          	movf	((c:i2fputc@fp)),c,w
 10230  0021C0  5003               	addwf	fsr2l
 10231  0021C2  26D9               	movf	((c:i2fputc@fp+1)),c,w
 10232  0021C4  5004               	addwfc	fsr2h
 10233  0021C6  22DA               	movf	postinc2,w
 10234  0021C8  50DE               iorwf	postinc2,w
 10235  0021CA  10DE               	btfsc	status,2
 10236  0021CC  B4D8               	goto	i2u152_41
 10237  0021CE  EFEB  F010         	goto	i2u152_40
 10238  0021D2  EFED  F010         
 10239                           i2u152_41:
 10240  0021D6                     	goto	i2l2113
 10241  0021D6  EF0A  F011         i2u152_40:
 10242  0021DA                     	
 10243                           i2l2111:
 10244  0021DA                     	lfsr	2,04h
 10245  0021DA  EE20 F004          	movf	((c:i2fputc@fp)),c,w
 10246  0021DE  5003               	addwf	fsr2l
 10247  0021E0  26D9               	movf	((c:i2fputc@fp+1)),c,w
 10248  0021E2  5004               	addwfc	fsr2h
 10249  0021E4  22DA               	lfsr	1,02h
 10250  0021E6  EE10 F002          	movf	((c:i2fputc@fp)),c,w
 10251  0021EA  5003               	addwf	fsr1l
 10252  0021EC  26E1               	movf	((c:i2fputc@fp+1)),c,w
 10253  0021EE  5004               	addwfc	fsr1h
 10254  0021F0  22E2               		movf	postinc2,w
 10255  0021F2  50DE               	subwf	postinc1,w
 10256  0021F4  5CE6               	movf	postinc1,w
 10257  0021F6  50E6               	xorlw	80h
 10258  0021F8  0A80               	movwf	(??i2_fputc+4+0)&0ffh,c
 10259  0021FA  6E09               	movf	postinc2,w
 10260  0021FC  50DE               	xorlw	80h
 10261  0021FE  0A80               	subwfb	(??i2_fputc+4+0)&0ffh,c,w
 10262  002200  5809               	btfsc	status,0
 10263  002202  B0D8               	goto	i2u153_41
 10264  002204  EF06  F011         	goto	i2u153_40
 10265  002208  EF08  F011         
 10266                           i2u153_41:
 10267  00220C                     	goto	i2l959
 10268  00220C  EF33  F011         i2u153_40:
 10269  002210                     	goto	i2l2113
 10270  002210  EF0A  F011         	
 10271                           i2l958:
 10272  002214                     	line	16
 10273                           	
 10274                           i2l2113:
 10275  002214                     	lfsr	2,02h
 10276  002214  EE20 F002          	movf	((c:i2fputc@fp)),c,w
 10277  002218  5003               	addwf	fsr2l
 10278  00221A  26D9               	movf	((c:i2fputc@fp+1)),c,w
 10279  00221C  5004               	addwfc	fsr2h
 10280  00221E  22DA               	movff	postinc2,??i2_fputc+0+0
 10281  002220  CFDE F005          	movff	postdec2,??i2_fputc+0+0+1
 10282  002224  CFDD F006          	movff	(c:i2fputc@fp),fsr2l
 10283  002228  C003  FFD9         	movff	(c:i2fputc@fp+1),fsr2h
 10284  00222C  C004  FFDA         	movff	postinc2,??i2_fputc+2+0
 10285  002230  CFDE F007          	movff	postdec2,??i2_fputc+2+0+1
 10286  002234  CFDD F008          	movf	(??i2_fputc+0+0),c,w
 10287  002238  5005               	addwf	(??i2_fputc+2+0),c,w
 10288  00223A  2407               	movwf	c:fsr2l
 10289  00223C  6ED9               	movf	(??i2_fputc+0+1),c,w
 10290  00223E  5006               	addwfc	(??i2_fputc+2+1),c,w
 10291  002240  2008               	movwf	1+c:fsr2l
 10292  002242  6EDA               	movff	(c:i2fputc@c),indf2
 10293  002244  C001  FFDF         
 10294                           	line	17
 10295                           	lfsr	2,02h
 10296  002248  EE20 F002          	movf	((c:i2fputc@fp)),c,w
 10297  00224C  5003               	addwf	fsr2l
 10298  00224E  26D9               	movf	((c:i2fputc@fp+1)),c,w
 10299  002250  5004               	addwfc	fsr2h
 10300  002252  22DA               	incf	postinc2
 10301  002254  2ADE               	movlw	0
 10302  002256  0E00               	addwfc	postdec2
 10303  002258  22DD               	goto	i2l959
 10304  00225A  EF33  F011         	line	18
 10305                           	
 10306                           i2l956:
 10307  00225E                     	goto	i2l959
 10308  00225E  EF33  F011         	line	19
 10309                           	
 10310                           i2l955:
 10311  002262                     	goto	i2l959
 10312  002262  EF33  F011         	line	20
 10313                           	
 10314                           i2l2115:
 10315  002266                     	line	21
 10316                           ;	Return value of i2_fputc is never used
 10317                           	
 10318                           i2l959:
 10319  002266                     	return	;funcret
 10320  002266  0012               	opt stack 0
 10321                           GLOBAL	__end_ofi2_fputc
 10322                           	__end_ofi2_fputc:
 10323  002268                     	signat	i2_fputc,90
 10324                           	global	i2_putch
 10325                           
 10326 ;; *************** function i2_putch *****************
 10327 ;; Defined at:
 10328 ;;		line 7 in file "E:\ProgramasWindowns\Microchip\xc8\v2.00\pic\sources\c99\common\putch.c"
 10329 ;; Parameters:    Size  Location     Type
 10330 ;;  c               1    wreg     unsigned char 
 10331 ;; Auto vars:     Size  Location     Type
 10332 ;;  c               1  (no storage) unsigned char 
 10333 ;; Return value:  Size  Location     Type
 10334 ;;                  1    wreg      void 
 10335 ;; Registers used:
 10336 ;;		wreg
 10337 ;; Tracked objects:
 10338 ;;		On entry : 0/0
 10339 ;;		On exit  : 0/0
 10340 ;;		Unchanged: 0/0
 10341 ;; Data sizes:     COMRAM   BANK0   BANK1   BANK2   BANK3   BANK4   BANK5
 10342 ;;      Params:         0       0       0       0       0       0       0
 10343 ;;      Locals:         0       0       0       0       0       0       0
 10344 ;;      Temps:          0       0       0       0       0       0       0
 10345 ;;      Totals:         0       0       0       0       0       0       0
 10346 ;;Total ram usage:        0 bytes
 10347 ;; Hardware stack levels used:    1
 10348 ;; This function calls:
 10349 ;;		Nothing
 10350 ;; This function is called by:
 10351 ;;		i2_fputc
 10352 ;; This function uses a non-reentrant model
 10353 ;;
 10354                           psect	text34,class=CODE,space=0,reloc=2,group=0
 10355                           	file	"E:\ProgramasWindowns\Microchip\xc8\v2.00\pic\sources\c99\common\putch.c"
 10356                           	line	7
 10357                           global __ptext34
 10358                           __ptext34:
 10359  002B8A                     psect	text34
 10360                           	file	"E:\ProgramasWindowns\Microchip\xc8\v2.00\pic\sources\c99\common\putch.c"
 10361                           	line	7
 10362                           	global	__size_ofi2_putch
 10363                           	__size_ofi2_putch	equ	__end_ofi2_putch-i2_putch
 10364  0000                     	
 10365                           i2_putch:
 10366  002B8A                     ;incstack = 0
 10367                           	opt	stack 13
 10368                           	line	9
 10369                           	
 10370                           i2l977:
 10371  002B8A                     	return	;funcret
 10372  002B8A  0012               	opt stack 0
 10373                           GLOBAL	__end_ofi2_putch
 10374                           	__end_ofi2_putch:
 10375  002B8C                     	signat	i2_putch,89
 10376                           	global	i2_abs
 10377                           
 10378 ;; *************** function i2_abs *****************
 10379 ;; Defined at:
 10380 ;;		line 1 in file "E:\ProgramasWindowns\Microchip\xc8\v2.00\pic\sources\c99\common\abs.c"
 10381 ;; Parameters:    Size  Location     Type
 10382 ;;  a               2   18[COMRAM] int 
 10383 ;; Auto vars:     Size  Location     Type
 10384 ;;		None
 10385 ;; Return value:  Size  Location     Type
 10386 ;;                  2   18[COMRAM] int 
 10387 ;; Registers used:
 10388 ;;		wreg, status,2, status,0
 10389 ;; Tracked objects:
 10390 ;;		On entry : 0/0
 10391 ;;		On exit  : 0/0
 10392 ;;		Unchanged: 0/0
 10393 ;; Data sizes:     COMRAM   BANK0   BANK1   BANK2   BANK3   BANK4   BANK5
 10394 ;;      Params:         2       0       0       0       0       0       0
 10395 ;;      Locals:         0       0       0       0       0       0       0
 10396 ;;      Temps:          2       0       0       0       0       0       0
 10397 ;;      Totals:         4       0       0       0       0       0       0
 10398 ;;Total ram usage:        4 bytes
 10399 ;; Hardware stack levels used:    1
 10400 ;; This function calls:
 10401 ;;		Nothing
 10402 ;; This function is called by:
 10403 ;;		i2_dtoa
 10404 ;; This function uses a non-reentrant model
 10405 ;;
 10406                           psect	text35,class=CODE,space=0,reloc=2,group=0
 10407                           	file	"E:\ProgramasWindowns\Microchip\xc8\v2.00\pic\sources\c99\common\abs.c"
 10408                           	line	1
 10409                           global __ptext35
 10410                           __ptext35:
 10411  0029C4                     psect	text35
 10412                           	file	"E:\ProgramasWindowns\Microchip\xc8\v2.00\pic\sources\c99\common\abs.c"
 10413                           	line	1
 10414                           	global	__size_ofi2_abs
 10415                           	__size_ofi2_abs	equ	__end_ofi2_abs-i2_abs
 10416  0000                     	
 10417                           i2_abs:
 10418  0029C4                     ;incstack = 0
 10419                           	opt	stack 13
 10420                           	line	3
 10421                           	
 10422                           i2l2361:
 10423  0029C4                     	btfsc	((c:i2abs@a+1)),c,7
 10424  0029C4  BE14               	goto	i2u193_40
 10425  0029C6  EFEF  F014         	movf	((c:i2abs@a+1)),c,w
 10426  0029CA  5014               	bnz	i2u193_41
 10427  0029CC  E106               	decf	((c:i2abs@a)),c,w
 10428  0029CE  0413               	btfsc	status,0
 10429  0029D0  B0D8               	goto	i2u193_41
 10430  0029D2  EFED  F014         	goto	i2u193_40
 10431  0029D6  EFEF  F014         
 10432                           i2u193_41:
 10433  0029DA                     	goto	i2l944
 10434  0029DA  EFFD  F014         i2u193_40:
 10435  0029DE                     	
 10436                           i2l2363:
 10437  0029DE                     	movff	(c:i2abs@a),??i2_abs+0+0
 10438  0029DE  C013  F015         	movff	(c:i2abs@a+1),??i2_abs+0+0+1
 10439  0029E2  C014  F016         	comf	(??i2_abs+0+0),c
 10440  0029E6  1E15               	comf	(??i2_abs+0+1),c
 10441  0029E8  1E16               	infsnz	(??i2_abs+0+0),c
 10442  0029EA  4A15               	incf	(??i2_abs+0+1),c
 10443  0029EC  2A16               	movff	??i2_abs+0+0,(c:?i2_abs)
 10444  0029EE  C015  F013         	movff	??i2_abs+0+1,(c:?i2_abs+1)
 10445  0029F2  C016  F014         	goto	i2l947
 10446  0029F6  EF03  F015         	
 10447                           i2l944:
 10448  0029FA                     	movff	(c:i2abs@a),(c:?i2_abs)
 10449  0029FA  C013  F013         	movff	(c:i2abs@a+1),(c:?i2_abs+1)
 10450  0029FE  C014  F014         	goto	i2l947
 10451  002A02  EF03  F015         	
 10452                           i2l946:
 10453  002A06                     	line	4
 10454                           	
 10455                           i2l947:
 10456  002A06                     	return	;funcret
 10457  002A06  0012               	opt stack 0
 10458                           GLOBAL	__end_ofi2_abs
 10459                           	__end_ofi2_abs:
 10460  002A08                     	signat	i2_abs,90
 10461                           	global	i2___aomod
 10462                           
 10463 ;; *************** function i2___aomod *****************
 10464 ;; Defined at:
 10465 ;;		line 9 in file "E:\ProgramasWindowns\Microchip\xc8\v2.00\pic\sources\c99\common\aomod.c"
 10466 ;; Parameters:    Size  Location     Type
 10467 ;;  dividend        8    0[COMRAM] long long 
 10468 ;;  divisor         8    8[COMRAM] long long 
 10469 ;; Auto vars:     Size  Location     Type
 10470 ;;  __aomod         1   17[COMRAM] unsigned char 
 10471 ;;  __aomod         1   16[COMRAM] unsigned char 
 10472 ;; Return value:  Size  Location     Type
 10473 ;;                  8    0[COMRAM] long long 
 10474 ;; Registers used:
 10475 ;;		wreg, status,2, status,0
 10476 ;; Tracked objects:
 10477 ;;		On entry : 0/0
 10478 ;;		On exit  : 0/0
 10479 ;;		Unchanged: 0/0
 10480 ;; Data sizes:     COMRAM   BANK0   BANK1   BANK2   BANK3   BANK4   BANK5
 10481 ;;      Params:        16       0       0       0       0       0       0
 10482 ;;      Locals:         2       0       0       0       0       0       0
 10483 ;;      Temps:          0       0       0       0       0       0       0
 10484 ;;      Totals:        18       0       0       0       0       0       0
 10485 ;;Total ram usage:       18 bytes
 10486 ;; Hardware stack levels used:    1
 10487 ;; This function calls:
 10488 ;;		Nothing
 10489 ;; This function is called by:
 10490 ;;		i2_dtoa
 10491 ;; This function uses a non-reentrant model
 10492 ;;
 10493                           psect	text36,class=CODE,space=0,reloc=2,group=0
 10494                           	file	"E:\ProgramasWindowns\Microchip\xc8\v2.00\pic\sources\c99\common\aomod.c"
 10495                           	line	9
 10496                           global __ptext36
 10497                           __ptext36:
 10498  001C92                     psect	text36
 10499                           	file	"E:\ProgramasWindowns\Microchip\xc8\v2.00\pic\sources\c99\common\aomod.c"
 10500                           	line	9
 10501                           	global	__size_ofi2___aomod
 10502                           	__size_ofi2___aomod	equ	__end_ofi2___aomod-i2___aomod
 10503  0000                     	
 10504                           i2___aomod:
 10505  001C92                     ;incstack = 0
 10506                           	opt	stack 13
 10507                           	line	14
 10508                           	
 10509                           i2l2325:
 10510  001C92                     	movlw	low(0)
 10511  001C92  0E00               	movwf	((c:i2___aomod@sign)),c
 10512  001C94  6E12               	line	15
 10513                           	
 10514                           i2l2327:
 10515  001C96                     	btfsc	((c:i2___aomod@dividend+7)),c,7
 10516  001C96  BE08               	goto	i2u187_40
 10517  001C98  EF52  F00E         	goto	i2u187_41
 10518  001C9C  EF50  F00E         
 10519                           i2u187_41:
 10520  001CA0                     	goto	i2l2333
 10521  001CA0  EF66  F00E         i2u187_40:
 10522  001CA4                     	line	16
 10523                           	
 10524                           i2l2329:
 10525  001CA4                     	comf	((c:i2___aomod@dividend+7)),c
 10526  001CA4  1E08               	comf	((c:i2___aomod@dividend+6)),c
 10527  001CA6  1E07               	comf	((c:i2___aomod@dividend+5)),c
 10528  001CA8  1E06               	comf	((c:i2___aomod@dividend+4)),c
 10529  001CAA  1E05               	comf	((c:i2___aomod@dividend+3)),c
 10530  001CAC  1E04               	comf	((c:i2___aomod@dividend+2)),c
 10531  001CAE  1E03               	comf	((c:i2___aomod@dividend+1)),c
 10532  001CB0  1E02               	negf	((c:i2___aomod@dividend)),c
 10533  001CB2  6C01               	movlw	0
 10534  001CB4  0E00               	addwfc	((c:i2___aomod@dividend+1)),c
 10535  001CB6  2202               	addwfc	((c:i2___aomod@dividend+2)),c
 10536  001CB8  2203               	addwfc	((c:i2___aomod@dividend+3)),c
 10537  001CBA  2204               	addwfc	((c:i2___aomod@dividend+4)),c
 10538  001CBC  2205               	addwfc	((c:i2___aomod@dividend+5)),c
 10539  001CBE  2206               	addwfc	((c:i2___aomod@dividend+6)),c
 10540  001CC0  2207               	addwfc	((c:i2___aomod@dividend+7)),c
 10541  001CC2  2208               	line	17
 10542                           	
 10543                           i2l2331:
 10544  001CC4                     	movlw	low(01h)
 10545  001CC4  0E01               	movwf	((c:i2___aomod@sign)),c
 10546  001CC6  6E12               	goto	i2l2333
 10547  001CC8  EF66  F00E         	line	18
 10548                           	
 10549                           i2l386:
 10550  001CCC                     	line	19
 10551                           	
 10552                           i2l2333:
 10553  001CCC                     	btfsc	((c:i2___aomod@divisor+7)),c,7
 10554  001CCC  BE10               	goto	i2u188_40
 10555  001CCE  EF6D  F00E         	goto	i2u188_41
 10556  001CD2  EF6B  F00E         
 10557                           i2u188_41:
 10558  001CD6                     	goto	i2l2337
 10559  001CD6  EF7F  F00E         i2u188_40:
 10560  001CDA                     	line	20
 10561                           	
 10562                           i2l2335:
 10563  001CDA                     	comf	((c:i2___aomod@divisor+7)),c
 10564  001CDA  1E10               	comf	((c:i2___aomod@divisor+6)),c
 10565  001CDC  1E0F               	comf	((c:i2___aomod@divisor+5)),c
 10566  001CDE  1E0E               	comf	((c:i2___aomod@divisor+4)),c
 10567  001CE0  1E0D               	comf	((c:i2___aomod@divisor+3)),c
 10568  001CE2  1E0C               	comf	((c:i2___aomod@divisor+2)),c
 10569  001CE4  1E0B               	comf	((c:i2___aomod@divisor+1)),c
 10570  001CE6  1E0A               	negf	((c:i2___aomod@divisor)),c
 10571  001CE8  6C09               	movlw	0
 10572  001CEA  0E00               	addwfc	((c:i2___aomod@divisor+1)),c
 10573  001CEC  220A               	addwfc	((c:i2___aomod@divisor+2)),c
 10574  001CEE  220B               	addwfc	((c:i2___aomod@divisor+3)),c
 10575  001CF0  220C               	addwfc	((c:i2___aomod@divisor+4)),c
 10576  001CF2  220D               	addwfc	((c:i2___aomod@divisor+5)),c
 10577  001CF4  220E               	addwfc	((c:i2___aomod@divisor+6)),c
 10578  001CF6  220F               	addwfc	((c:i2___aomod@divisor+7)),c
 10579  001CF8  2210               	goto	i2l2337
 10580  001CFA  EF7F  F00E         	
 10581                           i2l387:
 10582  001CFE                     	line	21
 10583                           	
 10584                           i2l2337:
 10585  001CFE                     	movf	((c:i2___aomod@divisor)),c,w
 10586  001CFE  5009               iorwf	((c:i2___aomod@divisor+1)),c,w
 10587  001D00  100A               iorwf	((c:i2___aomod@divisor+2)),c,w
 10588  001D02  100B               iorwf	((c:i2___aomod@divisor+3)),c,w
 10589  001D04  100C               iorwf	((c:i2___aomod@divisor+4)),c,w
 10590  001D06  100D               iorwf	((c:i2___aomod@divisor+5)),c,w
 10591  001D08  100E               iorwf	((c:i2___aomod@divisor+6)),c,w
 10592  001D0A  100F               iorwf	((c:i2___aomod@divisor+7)),c,w
 10593  001D0C  1010               	btfsc	status,2
 10594  001D0E  B4D8               	goto	i2u189_41
 10595  001D10  EF8C  F00E         	goto	i2u189_40
 10596  001D14  EF8E  F00E         
 10597                           i2u189_41:
 10598  001D18                     	goto	i2l2353
 10599  001D18  EFE2  F00E         i2u189_40:
 10600  001D1C                     	line	22
 10601                           	
 10602                           i2l2339:
 10603  001D1C                     	movlw	low(01h)
 10604  001D1C  0E01               	movwf	((c:i2___aomod@counter)),c
 10605  001D1E  6E11               	line	23
 10606                           	goto	i2l2343
 10607  001D20  EF9E  F00E         	
 10608                           i2l390:
 10609  001D24                     	line	24
 10610                           	
 10611                           i2l2341:
 10612  001D24                     	bcf	status,0
 10613  001D24  90D8               	rlcf	((c:i2___aomod@divisor)),c
 10614  001D26  3609               	rlcf	((c:i2___aomod@divisor+1)),c
 10615  001D28  360A               	rlcf	((c:i2___aomod@divisor+2)),c
 10616  001D2A  360B               	rlcf	((c:i2___aomod@divisor+3)),c
 10617  001D2C  360C               	rlcf	((c:i2___aomod@divisor+4)),c
 10618  001D2E  360D               	rlcf	((c:i2___aomod@divisor+5)),c
 10619  001D30  360E               	rlcf	((c:i2___aomod@divisor+6)),c
 10620  001D32  360F               	rlcf	((c:i2___aomod@divisor+7)),c
 10621  001D34  3610               	line	25
 10622                           	incf	((c:i2___aomod@counter)),c
 10623  001D36  2A11               	goto	i2l2343
 10624  001D38  EF9E  F00E         	line	26
 10625                           	
 10626                           i2l389:
 10627  001D3C                     	line	23
 10628                           	
 10629                           i2l2343:
 10630  001D3C                     	
 10631                           	btfss	((c:i2___aomod@divisor+7)),c,(63)&7
 10632  001D3C  AE10               	goto	i2u190_41
 10633  001D3E  EFA3  F00E         	goto	i2u190_40
 10634  001D42  EFA5  F00E         i2u190_41:
 10635  001D46                     	goto	i2l2341
 10636  001D46  EF92  F00E         i2u190_40:
 10637  001D4A                     	goto	i2l2345
 10638  001D4A  EFA9  F00E         	
 10639                           i2l391:
 10640  001D4E                     	goto	i2l2345
 10641  001D4E  EFA9  F00E         	line	27
 10642                           	
 10643                           i2l392:
 10644  001D52                     	line	28
 10645                           	
 10646                           i2l2345:
 10647  001D52                     		movf	((c:i2___aomod@divisor)),c,w
 10648  001D52  5009               	subwf	((c:i2___aomod@dividend)),c,w
 10649  001D54  5C01               	movf	((c:i2___aomod@divisor+1)),c,w
 10650  001D56  500A               	subwfb	((c:i2___aomod@dividend+1)),c,w
 10651  001D58  5802               	movf	((c:i2___aomod@divisor+2)),c,w
 10652  001D5A  500B               	subwfb	((c:i2___aomod@dividend+2)),c,w
 10653  001D5C  5803               	movf	((c:i2___aomod@divisor+3)),c,w
 10654  001D5E  500C               	subwfb	((c:i2___aomod@dividend+3)),c,w
 10655  001D60  5804               	movf	((c:i2___aomod@divisor+4)),c,w
 10656  001D62  500D               	subwfb	((c:i2___aomod@dividend+4)),c,w
 10657  001D64  5805               	movf	((c:i2___aomod@divisor+5)),c,w
 10658  001D66  500E               	subwfb	((c:i2___aomod@dividend+5)),c,w
 10659  001D68  5806               	movf	((c:i2___aomod@divisor+6)),c,w
 10660  001D6A  500F               	subwfb	((c:i2___aomod@dividend+6)),c,w
 10661  001D6C  5807               	movf	((c:i2___aomod@divisor+7)),c,w
 10662  001D6E  5010               	subwfb	((c:i2___aomod@dividend+7)),c,w
 10663  001D70  5808               	btfss	status,0
 10664  001D72  A0D8               	goto	i2u191_41
 10665  001D74  EFBE  F00E         	goto	i2u191_40
 10666  001D78  EFC0  F00E         
 10667                           i2u191_41:
 10668  001D7C                     	goto	i2l2349
 10669  001D7C  EFD2  F00E         i2u191_40:
 10670  001D80                     	line	29
 10671                           	
 10672                           i2l2347:
 10673  001D80                     	movf	((c:i2___aomod@divisor)),c,w
 10674  001D80  5009               	subwf	((c:i2___aomod@dividend)),c
 10675  001D82  5E01               	movf	((c:i2___aomod@divisor+1)),c,w
 10676  001D84  500A               	subwfb	((c:i2___aomod@dividend+1)),c
 10677  001D86  5A02               	movf	((c:i2___aomod@divisor+2)),c,w
 10678  001D88  500B               	subwfb	((c:i2___aomod@dividend+2)),c
 10679  001D8A  5A03               	movf	((c:i2___aomod@divisor+3)),c,w
 10680  001D8C  500C               	subwfb	((c:i2___aomod@dividend+3)),c
 10681  001D8E  5A04               	movf	((c:i2___aomod@divisor+4)),c,w
 10682  001D90  500D               	subwfb	((c:i2___aomod@dividend+4)),c
 10683  001D92  5A05               	movf	((c:i2___aomod@divisor+5)),c,w
 10684  001D94  500E               	subwfb	((c:i2___aomod@dividend+5)),c
 10685  001D96  5A06               	movf	((c:i2___aomod@divisor+6)),c,w
 10686  001D98  500F               	subwfb	((c:i2___aomod@dividend+6)),c
 10687  001D9A  5A07               	movf	((c:i2___aomod@divisor+7)),c,w
 10688  001D9C  5010               	subwfb	((c:i2___aomod@dividend+7)),c
 10689  001D9E  5A08               	goto	i2l2349
 10690  001DA0  EFD2  F00E         	
 10691                           i2l393:
 10692  001DA4                     	line	30
 10693                           	
 10694                           i2l2349:
 10695  001DA4                     	bcf	status,0
 10696  001DA4  90D8               	rrcf	((c:i2___aomod@divisor+7)),c
 10697  001DA6  3210               	rrcf	((c:i2___aomod@divisor+6)),c
 10698  001DA8  320F               	rrcf	((c:i2___aomod@divisor+5)),c
 10699  001DAA  320E               	rrcf	((c:i2___aomod@divisor+4)),c
 10700  001DAC  320D               	rrcf	((c:i2___aomod@divisor+3)),c
 10701  001DAE  320C               	rrcf	((c:i2___aomod@divisor+2)),c
 10702  001DB0  320B               	rrcf	((c:i2___aomod@divisor+1)),c
 10703  001DB2  320A               	rrcf	((c:i2___aomod@divisor)),c
 10704  001DB4  3209               	line	31
 10705                           	
 10706                           i2l2351:
 10707  001DB6                     	decfsz	((c:i2___aomod@counter)),c
 10708  001DB6  2E11               	
 10709                           	goto	i2l2345
 10710  001DB8  EFA9  F00E         	goto	i2l2353
 10711  001DBC  EFE2  F00E         	
 10712                           i2l394:
 10713  001DC0                     	goto	i2l2353
 10714  001DC0  EFE2  F00E         	line	32
 10715                           	
 10716                           i2l388:
 10717  001DC4                     	line	33
 10718                           	
 10719                           i2l2353:
 10720  001DC4                     	movf	((c:i2___aomod@sign)),c,w
 10721  001DC4  5012               	btfsc	status,2
 10722  001DC6  B4D8               	goto	i2u192_41
 10723  001DC8  EFE8  F00E         	goto	i2u192_40
 10724  001DCC  EFEA  F00E         i2u192_41:
 10725  001DD0                     	goto	i2l2357
 10726  001DD0  EFFC  F00E         i2u192_40:
 10727  001DD4                     	line	34
 10728                           	
 10729                           i2l2355:
 10730  001DD4                     	comf	((c:i2___aomod@dividend+7)),c
 10731  001DD4  1E08               	comf	((c:i2___aomod@dividend+6)),c
 10732  001DD6  1E07               	comf	((c:i2___aomod@dividend+5)),c
 10733  001DD8  1E06               	comf	((c:i2___aomod@dividend+4)),c
 10734  001DDA  1E05               	comf	((c:i2___aomod@dividend+3)),c
 10735  001DDC  1E04               	comf	((c:i2___aomod@dividend+2)),c
 10736  001DDE  1E03               	comf	((c:i2___aomod@dividend+1)),c
 10737  001DE0  1E02               	negf	((c:i2___aomod@dividend)),c
 10738  001DE2  6C01               	movlw	0
 10739  001DE4  0E00               	addwfc	((c:i2___aomod@dividend+1)),c
 10740  001DE6  2202               	addwfc	((c:i2___aomod@dividend+2)),c
 10741  001DE8  2203               	addwfc	((c:i2___aomod@dividend+3)),c
 10742  001DEA  2204               	addwfc	((c:i2___aomod@dividend+4)),c
 10743  001DEC  2205               	addwfc	((c:i2___aomod@dividend+5)),c
 10744  001DEE  2206               	addwfc	((c:i2___aomod@dividend+6)),c
 10745  001DF0  2207               	addwfc	((c:i2___aomod@dividend+7)),c
 10746  001DF2  2208               	goto	i2l2357
 10747  001DF4  EFFC  F00E         	
 10748                           i2l395:
 10749  001DF8                     	line	35
 10750                           	
 10751                           i2l2357:
 10752  001DF8                     	movff	(c:i2___aomod@dividend),(c:?i2___aomod)
 10753  001DF8  C001  F001         	movff	(c:i2___aomod@dividend+1),(c:?i2___aomod+1)
 10754  001DFC  C002  F002         	movff	(c:i2___aomod@dividend+2),(c:?i2___aomod+2)
 10755  001E00  C003  F003         	movff	(c:i2___aomod@dividend+3),(c:?i2___aomod+3)
 10756  001E04  C004  F004         	movff	(c:i2___aomod@dividend+4),(c:?i2___aomod+4)
 10757  001E08  C005  F005         	movff	(c:i2___aomod@dividend+5),(c:?i2___aomod+5)
 10758  001E0C  C006  F006         	movff	(c:i2___aomod@dividend+6),(c:?i2___aomod+6)
 10759  001E10  C007  F007         	movff	(c:i2___aomod@dividend+7),(c:?i2___aomod+7)
 10760  001E14  C008  F008         	goto	i2l396
 10761  001E18  EF0E  F00F         	
 10762                           i2l2359:
 10763  001E1C                     	line	36
 10764                           	
 10765                           i2l396:
 10766  001E1C                     	return	;funcret
 10767  001E1C  0012               	opt stack 0
 10768                           GLOBAL	__end_ofi2___aomod
 10769                           	__end_ofi2___aomod:
 10770  001E1E                     	signat	i2___aomod,95
 10771                           	global	i2___aodiv
 10772                           
 10773 ;; *************** function i2___aodiv *****************
 10774 ;; Defined at:
 10775 ;;		line 9 in file "E:\ProgramasWindowns\Microchip\xc8\v2.00\pic\sources\c99\common\aodiv.c"
 10776 ;; Parameters:    Size  Location     Type
 10777 ;;  dividend        8    0[COMRAM] long long 
 10778 ;;  divisor         8    8[COMRAM] long long 
 10779 ;; Auto vars:     Size  Location     Type
 10780 ;;  __aodiv         8   18[COMRAM] long long 
 10781 ;;  __aodiv         1   17[COMRAM] unsigned char 
 10782 ;;  __aodiv         1   16[COMRAM] unsigned char 
 10783 ;; Return value:  Size  Location     Type
 10784 ;;                  8    0[COMRAM] long long 
 10785 ;; Registers used:
 10786 ;;		wreg, fsr2l, fsr2h, status,2, status,0
 10787 ;; Tracked objects:
 10788 ;;		On entry : 0/0
 10789 ;;		On exit  : 0/0
 10790 ;;		Unchanged: 0/0
 10791 ;; Data sizes:     COMRAM   BANK0   BANK1   BANK2   BANK3   BANK4   BANK5
 10792 ;;      Params:        16       0       0       0       0       0       0
 10793 ;;      Locals:        10       0       0       0       0       0       0
 10794 ;;      Temps:          0       0       0       0       0       0       0
 10795 ;;      Totals:        26       0       0       0       0       0       0
 10796 ;;Total ram usage:       26 bytes
 10797 ;; Hardware stack levels used:    1
 10798 ;; This function calls:
 10799 ;;		Nothing
 10800 ;; This function is called by:
 10801 ;;		i2_dtoa
 10802 ;; This function uses a non-reentrant model
 10803 ;;
 10804                           psect	text37,class=CODE,space=0,reloc=2,group=0
 10805                           	file	"E:\ProgramasWindowns\Microchip\xc8\v2.00\pic\sources\c99\common\aodiv.c"
 10806                           	line	9
 10807                           global __ptext37
 10808                           __ptext37:
 10809  001954                     psect	text37
 10810                           	file	"E:\ProgramasWindowns\Microchip\xc8\v2.00\pic\sources\c99\common\aodiv.c"
 10811                           	line	9
 10812                           	global	__size_ofi2___aodiv
 10813                           	__size_ofi2___aodiv	equ	__end_ofi2___aodiv-i2___aodiv
 10814  0000                     	
 10815                           i2___aodiv:
 10816  001954                     ;incstack = 0
 10817                           	opt	stack 13
 10818                           	line	15
 10819                           	
 10820                           i2l2281:
 10821  001954                     	movlw	low(0)
 10822  001954  0E00               	movwf	((c:i2___aodiv@sign)),c
 10823  001956  6E12               	line	16
 10824                           	
 10825                           i2l2283:
 10826  001958                     	btfsc	((c:i2___aodiv@divisor+7)),c,7
 10827  001958  BE10               	goto	i2u180_40
 10828  00195A  EFB3  F00C         	goto	i2u180_41
 10829  00195E  EFB1  F00C         
 10830                           i2u180_41:
 10831  001962                     	goto	i2l2289
 10832  001962  EFC7  F00C         i2u180_40:
 10833  001966                     	line	17
 10834                           	
 10835                           i2l2285:
 10836  001966                     	comf	((c:i2___aodiv@divisor+7)),c
 10837  001966  1E10               	comf	((c:i2___aodiv@divisor+6)),c
 10838  001968  1E0F               	comf	((c:i2___aodiv@divisor+5)),c
 10839  00196A  1E0E               	comf	((c:i2___aodiv@divisor+4)),c
 10840  00196C  1E0D               	comf	((c:i2___aodiv@divisor+3)),c
 10841  00196E  1E0C               	comf	((c:i2___aodiv@divisor+2)),c
 10842  001970  1E0B               	comf	((c:i2___aodiv@divisor+1)),c
 10843  001972  1E0A               	negf	((c:i2___aodiv@divisor)),c
 10844  001974  6C09               	movlw	0
 10845  001976  0E00               	addwfc	((c:i2___aodiv@divisor+1)),c
 10846  001978  220A               	addwfc	((c:i2___aodiv@divisor+2)),c
 10847  00197A  220B               	addwfc	((c:i2___aodiv@divisor+3)),c
 10848  00197C  220C               	addwfc	((c:i2___aodiv@divisor+4)),c
 10849  00197E  220D               	addwfc	((c:i2___aodiv@divisor+5)),c
 10850  001980  220E               	addwfc	((c:i2___aodiv@divisor+6)),c
 10851  001982  220F               	addwfc	((c:i2___aodiv@divisor+7)),c
 10852  001984  2210               	line	18
 10853                           	
 10854                           i2l2287:
 10855  001986                     	movlw	low(01h)
 10856  001986  0E01               	movwf	((c:i2___aodiv@sign)),c
 10857  001988  6E12               	goto	i2l2289
 10858  00198A  EFC7  F00C         	line	19
 10859                           	
 10860                           i2l373:
 10861  00198E                     	line	20
 10862                           	
 10863                           i2l2289:
 10864  00198E                     	btfsc	((c:i2___aodiv@dividend+7)),c,7
 10865  00198E  BE08               	goto	i2u181_40
 10866  001990  EFCE  F00C         	goto	i2u181_41
 10867  001994  EFCC  F00C         
 10868                           i2u181_41:
 10869  001998                     	goto	i2l2295
 10870  001998  EFE2  F00C         i2u181_40:
 10871  00199C                     	line	21
 10872                           	
 10873                           i2l2291:
 10874  00199C                     	comf	((c:i2___aodiv@dividend+7)),c
 10875  00199C  1E08               	comf	((c:i2___aodiv@dividend+6)),c
 10876  00199E  1E07               	comf	((c:i2___aodiv@dividend+5)),c
 10877  0019A0  1E06               	comf	((c:i2___aodiv@dividend+4)),c
 10878  0019A2  1E05               	comf	((c:i2___aodiv@dividend+3)),c
 10879  0019A4  1E04               	comf	((c:i2___aodiv@dividend+2)),c
 10880  0019A6  1E03               	comf	((c:i2___aodiv@dividend+1)),c
 10881  0019A8  1E02               	negf	((c:i2___aodiv@dividend)),c
 10882  0019AA  6C01               	movlw	0
 10883  0019AC  0E00               	addwfc	((c:i2___aodiv@dividend+1)),c
 10884  0019AE  2202               	addwfc	((c:i2___aodiv@dividend+2)),c
 10885  0019B0  2203               	addwfc	((c:i2___aodiv@dividend+3)),c
 10886  0019B2  2204               	addwfc	((c:i2___aodiv@dividend+4)),c
 10887  0019B4  2205               	addwfc	((c:i2___aodiv@dividend+5)),c
 10888  0019B6  2206               	addwfc	((c:i2___aodiv@dividend+6)),c
 10889  0019B8  2207               	addwfc	((c:i2___aodiv@dividend+7)),c
 10890  0019BA  2208               	line	22
 10891                           	
 10892                           i2l2293:
 10893  0019BC                     	movlw	(01h)&0ffh
 10894  0019BC  0E01               	xorwf	((c:i2___aodiv@sign)),c
 10895  0019BE  1A12               	goto	i2l2295
 10896  0019C0  EFE2  F00C         	line	23
 10897                           	
 10898                           i2l374:
 10899  0019C4                     	line	24
 10900                           	
 10901                           i2l2295:
 10902  0019C4                     	lfsr	2,(i2___aodiv@quotient)
 10903  0019C4  EE20  F013         	movlw	8-1
 10904  0019C8  0E07               i2u182_41:
 10905  0019CA                     	clrf	postinc2
 10906  0019CA  6ADE               	decf	wreg
 10907  0019CC  06E8               	bc	i2u182_41
 10908  0019CE  E2FD               	line	25
 10909                           	
 10910                           i2l2297:
 10911  0019D0                     	movf	((c:i2___aodiv@divisor)),c,w
 10912  0019D0  5009               iorwf	((c:i2___aodiv@divisor+1)),c,w
 10913  0019D2  100A               iorwf	((c:i2___aodiv@divisor+2)),c,w
 10914  0019D4  100B               iorwf	((c:i2___aodiv@divisor+3)),c,w
 10915  0019D6  100C               iorwf	((c:i2___aodiv@divisor+4)),c,w
 10916  0019D8  100D               iorwf	((c:i2___aodiv@divisor+5)),c,w
 10917  0019DA  100E               iorwf	((c:i2___aodiv@divisor+6)),c,w
 10918  0019DC  100F               iorwf	((c:i2___aodiv@divisor+7)),c,w
 10919  0019DE  1010               	btfsc	status,2
 10920  0019E0  B4D8               	goto	i2u183_41
 10921  0019E2  EFF5  F00C         	goto	i2u183_40
 10922  0019E6  EFF7  F00C         
 10923                           i2u183_41:
 10924  0019EA                     	goto	i2l2317
 10925  0019EA  EF55  F00D         i2u183_40:
 10926  0019EE                     	line	26
 10927                           	
 10928                           i2l2299:
 10929  0019EE                     	movlw	low(01h)
 10930  0019EE  0E01               	movwf	((c:i2___aodiv@counter)),c
 10931  0019F0  6E11               	line	27
 10932                           	goto	i2l2303
 10933  0019F2  EF07  F00D         	
 10934                           i2l377:
 10935  0019F6                     	line	28
 10936                           	
 10937                           i2l2301:
 10938  0019F6                     	bcf	status,0
 10939  0019F6  90D8               	rlcf	((c:i2___aodiv@divisor)),c
 10940  0019F8  3609               	rlcf	((c:i2___aodiv@divisor+1)),c
 10941  0019FA  360A               	rlcf	((c:i2___aodiv@divisor+2)),c
 10942  0019FC  360B               	rlcf	((c:i2___aodiv@divisor+3)),c
 10943  0019FE  360C               	rlcf	((c:i2___aodiv@divisor+4)),c
 10944  001A00  360D               	rlcf	((c:i2___aodiv@divisor+5)),c
 10945  001A02  360E               	rlcf	((c:i2___aodiv@divisor+6)),c
 10946  001A04  360F               	rlcf	((c:i2___aodiv@divisor+7)),c
 10947  001A06  3610               	line	29
 10948                           	incf	((c:i2___aodiv@counter)),c
 10949  001A08  2A11               	goto	i2l2303
 10950  001A0A  EF07  F00D         	line	30
 10951                           	
 10952                           i2l376:
 10953  001A0E                     	line	27
 10954                           	
 10955                           i2l2303:
 10956  001A0E                     	
 10957                           	btfss	((c:i2___aodiv@divisor+7)),c,(63)&7
 10958  001A0E  AE10               	goto	i2u184_41
 10959  001A10  EF0C  F00D         	goto	i2u184_40
 10960  001A14  EF0E  F00D         i2u184_41:
 10961  001A18                     	goto	i2l2301
 10962  001A18  EFFB  F00C         i2u184_40:
 10963  001A1C                     	goto	i2l2305
 10964  001A1C  EF12  F00D         	
 10965                           i2l378:
 10966  001A20                     	goto	i2l2305
 10967  001A20  EF12  F00D         	line	31
 10968                           	
 10969                           i2l379:
 10970  001A24                     	line	32
 10971                           	
 10972                           i2l2305:
 10973  001A24                     	bcf	status,0
 10974  001A24  90D8               	rlcf	((c:i2___aodiv@quotient)),c
 10975  001A26  3613               	rlcf	((c:i2___aodiv@quotient+1)),c
 10976  001A28  3614               	rlcf	((c:i2___aodiv@quotient+2)),c
 10977  001A2A  3615               	rlcf	((c:i2___aodiv@quotient+3)),c
 10978  001A2C  3616               	rlcf	((c:i2___aodiv@quotient+4)),c
 10979  001A2E  3617               	rlcf	((c:i2___aodiv@quotient+5)),c
 10980  001A30  3618               	rlcf	((c:i2___aodiv@quotient+6)),c
 10981  001A32  3619               	rlcf	((c:i2___aodiv@quotient+7)),c
 10982  001A34  361A               	line	33
 10983                           	
 10984                           i2l2307:
 10985  001A36                     		movf	((c:i2___aodiv@divisor)),c,w
 10986  001A36  5009               	subwf	((c:i2___aodiv@dividend)),c,w
 10987  001A38  5C01               	movf	((c:i2___aodiv@divisor+1)),c,w
 10988  001A3A  500A               	subwfb	((c:i2___aodiv@dividend+1)),c,w
 10989  001A3C  5802               	movf	((c:i2___aodiv@divisor+2)),c,w
 10990  001A3E  500B               	subwfb	((c:i2___aodiv@dividend+2)),c,w
 10991  001A40  5803               	movf	((c:i2___aodiv@divisor+3)),c,w
 10992  001A42  500C               	subwfb	((c:i2___aodiv@dividend+3)),c,w
 10993  001A44  5804               	movf	((c:i2___aodiv@divisor+4)),c,w
 10994  001A46  500D               	subwfb	((c:i2___aodiv@dividend+4)),c,w
 10995  001A48  5805               	movf	((c:i2___aodiv@divisor+5)),c,w
 10996  001A4A  500E               	subwfb	((c:i2___aodiv@dividend+5)),c,w
 10997  001A4C  5806               	movf	((c:i2___aodiv@divisor+6)),c,w
 10998  001A4E  500F               	subwfb	((c:i2___aodiv@dividend+6)),c,w
 10999  001A50  5807               	movf	((c:i2___aodiv@divisor+7)),c,w
 11000  001A52  5010               	subwfb	((c:i2___aodiv@dividend+7)),c,w
 11001  001A54  5808               	btfss	status,0
 11002  001A56  A0D8               	goto	i2u185_41
 11003  001A58  EF30  F00D         	goto	i2u185_40
 11004  001A5C  EF32  F00D         
 11005                           i2u185_41:
 11006  001A60                     	goto	i2l2313
 11007  001A60  EF45  F00D         i2u185_40:
 11008  001A64                     	line	34
 11009                           	
 11010                           i2l2309:
 11011  001A64                     	movf	((c:i2___aodiv@divisor)),c,w
 11012  001A64  5009               	subwf	((c:i2___aodiv@dividend)),c
 11013  001A66  5E01               	movf	((c:i2___aodiv@divisor+1)),c,w
 11014  001A68  500A               	subwfb	((c:i2___aodiv@dividend+1)),c
 11015  001A6A  5A02               	movf	((c:i2___aodiv@divisor+2)),c,w
 11016  001A6C  500B               	subwfb	((c:i2___aodiv@dividend+2)),c
 11017  001A6E  5A03               	movf	((c:i2___aodiv@divisor+3)),c,w
 11018  001A70  500C               	subwfb	((c:i2___aodiv@dividend+3)),c
 11019  001A72  5A04               	movf	((c:i2___aodiv@divisor+4)),c,w
 11020  001A74  500D               	subwfb	((c:i2___aodiv@dividend+4)),c
 11021  001A76  5A05               	movf	((c:i2___aodiv@divisor+5)),c,w
 11022  001A78  500E               	subwfb	((c:i2___aodiv@dividend+5)),c
 11023  001A7A  5A06               	movf	((c:i2___aodiv@divisor+6)),c,w
 11024  001A7C  500F               	subwfb	((c:i2___aodiv@dividend+6)),c
 11025  001A7E  5A07               	movf	((c:i2___aodiv@divisor+7)),c,w
 11026  001A80  5010               	subwfb	((c:i2___aodiv@dividend+7)),c
 11027  001A82  5A08               	line	35
 11028                           	
 11029                           i2l2311:
 11030  001A84                     	bsf	(0+(0/8)+(c:i2___aodiv@quotient)),c,(0)&7
 11031  001A84  8013               	goto	i2l2313
 11032  001A86  EF45  F00D         	line	36
 11033                           	
 11034                           i2l380:
 11035  001A8A                     	line	37
 11036                           	
 11037                           i2l2313:
 11038  001A8A                     	bcf	status,0
 11039  001A8A  90D8               	rrcf	((c:i2___aodiv@divisor+7)),c
 11040  001A8C  3210               	rrcf	((c:i2___aodiv@divisor+6)),c
 11041  001A8E  320F               	rrcf	((c:i2___aodiv@divisor+5)),c
 11042  001A90  320E               	rrcf	((c:i2___aodiv@divisor+4)),c
 11043  001A92  320D               	rrcf	((c:i2___aodiv@divisor+3)),c
 11044  001A94  320C               	rrcf	((c:i2___aodiv@divisor+2)),c
 11045  001A96  320B               	rrcf	((c:i2___aodiv@divisor+1)),c
 11046  001A98  320A               	rrcf	((c:i2___aodiv@divisor)),c
 11047  001A9A  3209               	line	38
 11048                           	
 11049                           i2l2315:
 11050  001A9C                     	decfsz	((c:i2___aodiv@counter)),c
 11051  001A9C  2E11               	
 11052                           	goto	i2l2305
 11053  001A9E  EF12  F00D         	goto	i2l2317
 11054  001AA2  EF55  F00D         	
 11055                           i2l381:
 11056  001AA6                     	goto	i2l2317
 11057  001AA6  EF55  F00D         	line	39
 11058                           	
 11059                           i2l375:
 11060  001AAA                     	line	40
 11061                           	
 11062                           i2l2317:
 11063  001AAA                     	movf	((c:i2___aodiv@sign)),c,w
 11064  001AAA  5012               	btfsc	status,2
 11065  001AAC  B4D8               	goto	i2u186_41
 11066  001AAE  EF5B  F00D         	goto	i2u186_40
 11067  001AB2  EF5D  F00D         i2u186_41:
 11068  001AB6                     	goto	i2l2321
 11069  001AB6  EF6F  F00D         i2u186_40:
 11070  001ABA                     	line	41
 11071                           	
 11072                           i2l2319:
 11073  001ABA                     	comf	((c:i2___aodiv@quotient+7)),c
 11074  001ABA  1E1A               	comf	((c:i2___aodiv@quotient+6)),c
 11075  001ABC  1E19               	comf	((c:i2___aodiv@quotient+5)),c
 11076  001ABE  1E18               	comf	((c:i2___aodiv@quotient+4)),c
 11077  001AC0  1E17               	comf	((c:i2___aodiv@quotient+3)),c
 11078  001AC2  1E16               	comf	((c:i2___aodiv@quotient+2)),c
 11079  001AC4  1E15               	comf	((c:i2___aodiv@quotient+1)),c
 11080  001AC6  1E14               	negf	((c:i2___aodiv@quotient)),c
 11081  001AC8  6C13               	movlw	0
 11082  001ACA  0E00               	addwfc	((c:i2___aodiv@quotient+1)),c
 11083  001ACC  2214               	addwfc	((c:i2___aodiv@quotient+2)),c
 11084  001ACE  2215               	addwfc	((c:i2___aodiv@quotient+3)),c
 11085  001AD0  2216               	addwfc	((c:i2___aodiv@quotient+4)),c
 11086  001AD2  2217               	addwfc	((c:i2___aodiv@quotient+5)),c
 11087  001AD4  2218               	addwfc	((c:i2___aodiv@quotient+6)),c
 11088  001AD6  2219               	addwfc	((c:i2___aodiv@quotient+7)),c
 11089  001AD8  221A               	goto	i2l2321
 11090  001ADA  EF6F  F00D         	
 11091                           i2l382:
 11092  001ADE                     	line	42
 11093                           	
 11094                           i2l2321:
 11095  001ADE                     	movff	(c:i2___aodiv@quotient),(c:?i2___aodiv)
 11096  001ADE  C013  F001         	movff	(c:i2___aodiv@quotient+1),(c:?i2___aodiv+1)
 11097  001AE2  C014  F002         	movff	(c:i2___aodiv@quotient+2),(c:?i2___aodiv+2)
 11098  001AE6  C015  F003         	movff	(c:i2___aodiv@quotient+3),(c:?i2___aodiv+3)
 11099  001AEA  C016  F004         	movff	(c:i2___aodiv@quotient+4),(c:?i2___aodiv+4)
 11100  001AEE  C017  F005         	movff	(c:i2___aodiv@quotient+5),(c:?i2___aodiv+5)
 11101  001AF2  C018  F006         	movff	(c:i2___aodiv@quotient+6),(c:?i2___aodiv+6)
 11102  001AF6  C019  F007         	movff	(c:i2___aodiv@quotient+7),(c:?i2___aodiv+7)
 11103  001AFA  C01A  F008         	goto	i2l383
 11104  001AFE  EF81  F00D         	
 11105                           i2l2323:
 11106  001B02                     	line	43
 11107                           	
 11108                           i2l383:
 11109  001B02                     	return	;funcret
 11110  001B02  0012               	opt stack 0
 11111                           GLOBAL	__end_ofi2___aodiv
 11112                           	__end_ofi2___aodiv:
 11113  001B04                     	signat	i2___aodiv,95
 11114                           	global	i2_escreve2
 11115                           
 11116 ;; *************** function i2_escreve2 *****************
 11117 ;; Defined at:
 11118 ;;		line 234 in file "MaquinaDeLavar.c"
 11119 ;; Parameters:    Size  Location     Type
 11120 ;;		None
 11121 ;; Auto vars:     Size  Location     Type
 11122 ;;		None
 11123 ;; Return value:  Size  Location     Type
 11124 ;;                  1    wreg      void 
 11125 ;; Registers used:
 11126 ;;		wreg, fsr1l, fsr1h, status,2, status,0, tblptrl, tblptrh, tblptru, cstack
 11127 ;; Tracked objects:
 11128 ;;		On entry : 0/0
 11129 ;;		On exit  : 0/0
 11130 ;;		Unchanged: 0/0
 11131 ;; Data sizes:     COMRAM   BANK0   BANK1   BANK2   BANK3   BANK4   BANK5
 11132 ;;      Params:         0       0       0       0       0       0       0
 11133 ;;      Locals:         0       0       0       0       0       0       0
 11134 ;;      Temps:          0       0       0       0       0       0       0
 11135 ;;      Totals:         0       0       0       0       0       0       0
 11136 ;;Total ram usage:        0 bytes
 11137 ;; Hardware stack levels used:    1
 11138 ;; Hardware stack levels required when called:    2
 11139 ;; This function calls:
 11140 ;;		i2_lcd_clear
 11141 ;;		i2_lcd_goto
 11142 ;;		i2_lcd_puts
 11143 ;; This function is called by:
 11144 ;;		i2_tempo1
 11145 ;; This function uses a non-reentrant model
 11146 ;;
 11147                           psect	text38,class=CODE,space=0,reloc=2,group=0
 11148                           	file	"MaquinaDeLavar.c"
 11149                           	line	234
 11150                           global __ptext38
 11151                           __ptext38:
 11152  002A4A                     psect	text38
 11153                           	file	"MaquinaDeLavar.c"
 11154                           	line	234
 11155                           	global	__size_ofi2_escreve2
 11156                           	__size_ofi2_escreve2	equ	__end_ofi2_escreve2-i2_escreve2
 11157  0000                     	
 11158                           i2_escreve2:
 11159  002A4A                     ;incstack = 0
 11160                           	opt	stack 15
 11161                           	line	237
 11162                           	
 11163                           i2l2667:
 11164  002A4A                     ;MaquinaDeLavar.c: 237:     lcd_clear();
 11165                           	call	i2_lcd_clear	;wreg free
 11166  002A4A  EC93  F015         	line	238
 11167                           	
 11168                           i2l2669:
 11169  002A4E                     ;MaquinaDeLavar.c: 238:     lcd_goto (0);
 11170                           	movlw	(0)&0ffh
 11171  002A4E  0E00               	
 11172                           	call	i2_lcd_goto
 11173  002A50  ECBD  F015         	line	239
 11174                           	
 11175                           i2l2671:
 11176  002A54                     ;MaquinaDeLavar.c: 239:     lcd_puts ( "Estado:");
 11177                           		movlw	low(STR_13)
 11178  002A54  0E1D               	movwf	((c:i2lcd_puts@s)),c
 11179  002A56  6E02               	movlw	high(STR_13)
 11180  002A58  0E06               	movwf	((c:i2lcd_puts@s+1)),c
 11181  002A5A  6E03               
 11182                           	call	i2_lcd_puts	;wreg free
 11183  002A5C  EC02  F013         	line	240
 11184                           	
 11185                           i2l2673:
 11186  002A60                     ;MaquinaDeLavar.c: 240:     lcd_puts (estadoMes);
 11187                           		movlw	low(_estadoMes)
 11188  002A60  0E20               	movwf	((c:i2lcd_puts@s)),c
 11189  002A62  6E02               	movlw	high(_estadoMes)
 11190  002A64  0E01               	movwf	((c:i2lcd_puts@s+1)),c
 11191  002A66  6E03               
 11192                           	call	i2_lcd_puts	;wreg free
 11193  002A68  EC02  F013         	line	241
 11194                           	
 11195                           i2l2675:
 11196  002A6C                     ;MaquinaDeLavar.c: 241:     lcd_goto (40);
 11197                           	movlw	(028h)&0ffh
 11198  002A6C  0E28               	
 11199                           	call	i2_lcd_goto
 11200  002A6E  ECBD  F015         	line	242
 11201                           	
 11202                           i2l2677:
 11203  002A72                     ;MaquinaDeLavar.c: 242:     lcd_puts ("Tempo:");
 11204                           		movlw	low(STR_14)
 11205  002A72  0E25               	movwf	((c:i2lcd_puts@s)),c
 11206  002A74  6E02               	movlw	high(STR_14)
 11207  002A76  0E06               	movwf	((c:i2lcd_puts@s+1)),c
 11208  002A78  6E03               
 11209                           	call	i2_lcd_puts	;wreg free
 11210  002A7A  EC02  F013         	line	243
 11211                           	
 11212                           i2l2679:
 11213  002A7E                     ;MaquinaDeLavar.c: 243:     lcd_puts (tempoDis);
 11214                           		movlw	low(_tempoDis)
 11215  002A7E  0EF8               	movwf	((c:i2lcd_puts@s)),c
 11216  002A80  6E02               	movlw	high(_tempoDis)
 11217  002A82  0E00               	movwf	((c:i2lcd_puts@s+1)),c
 11218  002A84  6E03               
 11219                           	call	i2_lcd_puts	;wreg free
 11220  002A86  EC02  F013         	line	245
 11221                           	
 11222                           i2l194:
 11223  002A8A                     	return	;funcret
 11224  002A8A  0012               	opt stack 0
 11225                           GLOBAL	__end_ofi2_escreve2
 11226                           	__end_ofi2_escreve2:
 11227  002A8C                     	signat	i2_escreve2,89
 11228                           	global	i2_escreve
 11229                           
 11230 ;; *************** function i2_escreve *****************
 11231 ;; Defined at:
 11232 ;;		line 225 in file "MaquinaDeLavar.c"
 11233 ;; Parameters:    Size  Location     Type
 11234 ;;		None
 11235 ;; Auto vars:     Size  Location     Type
 11236 ;;		None
 11237 ;; Return value:  Size  Location     Type
 11238 ;;                  1    wreg      void 
 11239 ;; Registers used:
 11240 ;;		wreg, fsr1l, fsr1h, status,2, status,0, tblptrl, tblptrh, tblptru, cstack
 11241 ;; Tracked objects:
 11242 ;;		On entry : 0/0
 11243 ;;		On exit  : 0/0
 11244 ;;		Unchanged: 0/0
 11245 ;; Data sizes:     COMRAM   BANK0   BANK1   BANK2   BANK3   BANK4   BANK5
 11246 ;;      Params:         0       0       0       0       0       0       0
 11247 ;;      Locals:         0       0       0       0       0       0       0
 11248 ;;      Temps:          0       0       0       0       0       0       0
 11249 ;;      Totals:         0       0       0       0       0       0       0
 11250 ;;Total ram usage:        0 bytes
 11251 ;; Hardware stack levels used:    1
 11252 ;; Hardware stack levels required when called:    2
 11253 ;; This function calls:
 11254 ;;		i2_lcd_clear
 11255 ;;		i2_lcd_goto
 11256 ;;		i2_lcd_puts
 11257 ;; This function is called by:
 11258 ;;		i2_estadosMaquina
 11259 ;; This function uses a non-reentrant model
 11260 ;;
 11261                           psect	text39,class=CODE,space=0,reloc=2,group=0
 11262                           	line	225
 11263                           global __ptext39
 11264                           __ptext39:
 11265  002AE6                     psect	text39
 11266                           	file	"MaquinaDeLavar.c"
 11267                           	line	225
 11268                           	global	__size_ofi2_escreve
 11269                           	__size_ofi2_escreve	equ	__end_ofi2_escreve-i2_escreve
 11270  0000                     	
 11271                           i2_escreve:
 11272  002AE6                     ;incstack = 0
 11273                           	opt	stack 16
 11274                           	line	228
 11275                           	
 11276                           i2l2737:
 11277  002AE6                     ;MaquinaDeLavar.c: 228:     lcd_clear();
 11278                           	call	i2_lcd_clear	;wreg free
 11279  002AE6  EC93  F015         	line	229
 11280                           	
 11281                           i2l2739:
 11282  002AEA                     ;MaquinaDeLavar.c: 229:     lcd_goto (0);
 11283                           	movlw	(0)&0ffh
 11284  002AEA  0E00               	
 11285                           	call	i2_lcd_goto
 11286  002AEC  ECBD  F015         	line	230
 11287                           	
 11288                           i2l2741:
 11289  002AF0                     ;MaquinaDeLavar.c: 230:     lcd_puts ( "Estado:");
 11290                           		movlw	low(STR_12)
 11291  002AF0  0E1D               	movwf	((c:i2lcd_puts@s)),c
 11292  002AF2  6E02               	movlw	high(STR_12)
 11293  002AF4  0E06               	movwf	((c:i2lcd_puts@s+1)),c
 11294  002AF6  6E03               
 11295                           	call	i2_lcd_puts	;wreg free
 11296  002AF8  EC02  F013         	line	231
 11297                           	
 11298                           i2l2743:
 11299  002AFC                     ;MaquinaDeLavar.c: 231:     lcd_puts (estadoMes);
 11300                           		movlw	low(_estadoMes)
 11301  002AFC  0E20               	movwf	((c:i2lcd_puts@s)),c
 11302  002AFE  6E02               	movlw	high(_estadoMes)
 11303  002B00  0E01               	movwf	((c:i2lcd_puts@s+1)),c
 11304  002B02  6E03               
 11305                           	call	i2_lcd_puts	;wreg free
 11306  002B04  EC02  F013         	line	233
 11307                           	
 11308                           i2l191:
 11309  002B08                     	return	;funcret
 11310  002B08  0012               	opt stack 0
 11311                           GLOBAL	__end_ofi2_escreve
 11312                           	__end_ofi2_escreve:
 11313  002B0A                     	signat	i2_escreve,89
 11314                           	global	i2_lcd_puts
 11315                           
 11316 ;; *************** function i2_lcd_puts *****************
 11317 ;; Defined at:
 11318 ;;		line 62 in file "lcd.c"
 11319 ;; Parameters:    Size  Location     Type
 11320 ;;  s               2    1[COMRAM] PTR const unsigned char 
 11321 ;;		 -> STR_14(7), STR_13(8), STR_12(8), estadoMes(15), 
 11322 ;;		 -> tempoDis(5), 
 11323 ;; Auto vars:     Size  Location     Type
 11324 ;;		None
 11325 ;; Return value:  Size  Location     Type
 11326 ;;                  1    wreg      void 
 11327 ;; Registers used:
 11328 ;;		wreg, fsr1l, fsr1h, status,2, status,0, tblptrl, tblptrh, tblptru, cstack
 11329 ;; Tracked objects:
 11330 ;;		On entry : 0/0
 11331 ;;		On exit  : 0/0
 11332 ;;		Unchanged: 0/0
 11333 ;; Data sizes:     COMRAM   BANK0   BANK1   BANK2   BANK3   BANK4   BANK5
 11334 ;;      Params:         2       0       0       0       0       0       0
 11335 ;;      Locals:         0       0       0       0       0       0       0
 11336 ;;      Temps:          0       0       0       0       0       0       0
 11337 ;;      Totals:         2       0       0       0       0       0       0
 11338 ;;Total ram usage:        2 bytes
 11339 ;; Hardware stack levels used:    1
 11340 ;; Hardware stack levels required when called:    1
 11341 ;; This function calls:
 11342 ;;		i2_lcd_write
 11343 ;; This function is called by:
 11344 ;;		i2_escreve
 11345 ;;		i2_escreve2
 11346 ;; This function uses a non-reentrant model
 11347 ;;
 11348                           psect	text40,class=CODE,space=0,reloc=2,group=0
 11349                           	file	"lcd.c"
 11350                           	line	62
 11351                           global __ptext40
 11352                           __ptext40:
 11353  002604                     psect	text40
 11354                           	file	"lcd.c"
 11355                           	line	62
 11356                           	global	__size_ofi2_lcd_puts
 11357                           	__size_ofi2_lcd_puts	equ	__end_ofi2_lcd_puts-i2_lcd_puts
 11358  0000                     	
 11359                           i2_lcd_puts:
 11360  002604                     ;incstack = 0
 11361                           	opt	stack 15
 11362                           	line	64
 11363                           	
 11364                           i2l2621:
 11365  002604                     ;lcd.c: 62: lcd_puts(const char * s);lcd.c: 63: {;lcd.c: 64:  LE0 = 1;
 11366                           	bsf	c:(31848/8),(31848)&7	;volatile
 11367  002604  808D               	line	65
 11368                           ;lcd.c: 65:  while(*s)
 11369                           	goto	i2l2627
 11370  002606  EF1B  F013         	
 11371                           i2l18:
 11372  00260A                     	line	66
 11373                           	
 11374                           i2l2623:
 11375  00260A                     ;lcd.c: 66:   lcd_write(*s++);
 11376                           	movff	(c:i2lcd_puts@s),tblptrl
 11377  00260A  C002  FFF6         	movff	(c:i2lcd_puts@s+1),tblptrh
 11378  00260E  C003  FFF7         	clrf	tblptru
 11379  002612  6AF8               	
 11380                           	movlw	high __ramtop-1
 11381  002614  0E05               	cpfsgt	tblptrh
 11382  002616  64F7               	bra	i2u236_47
 11383  002618  D003               	tblrd	*
 11384  00261A  0008               	
 11385                           	movf	tablat,w
 11386  00261C  50F5               	bra	i2u236_40
 11387  00261E  D005               i2u236_47:
 11388  002620                     	movff	tblptrl,fsr1l
 11389  002620  CFF6 FFE1          	movff	tblptrh,fsr1h
 11390  002624  CFF7 FFE2          	movf	indf1,w
 11391  002628  50E7               i2u236_40:
 11392  00262A                     	
 11393                           	call	i2_lcd_write
 11394  00262A  ECAA  F015         	
 11395                           i2l2625:
 11396  00262E                     	infsnz	((c:i2lcd_puts@s)),c
 11397  00262E  4A02               	incf	((c:i2lcd_puts@s+1)),c
 11398  002630  2A03               	goto	i2l2627
 11399  002632  EF1B  F013         	
 11400                           i2l17:
 11401  002636                     	line	65
 11402                           	
 11403                           i2l2627:
 11404  002636                     ;lcd.c: 65:  while(*s)
 11405                           	movff	(c:i2lcd_puts@s),tblptrl
 11406  002636  C002  FFF6         	movff	(c:i2lcd_puts@s+1),tblptrh
 11407  00263A  C003  FFF7         	clrf	tblptru
 11408  00263E  6AF8               	
 11409                           	movlw	high __ramtop-1
 11410  002640  0E05               	cpfsgt	tblptrh
 11411  002642  64F7               	bra	i2u237_47
 11412  002644  D003               	tblrd	*
 11413  002646  0008               	
 11414                           	movf	tablat,w
 11415  002648  50F5               	bra	i2u237_40
 11416  00264A  D005               i2u237_47:
 11417  00264C                     	movff	tblptrl,fsr1l
 11418  00264C  CFF6 FFE1          	movff	tblptrh,fsr1h
 11419  002650  CFF7 FFE2          	movf	indf1,w
 11420  002654  50E7               i2u237_40:
 11421  002656                     	iorlw	0
 11422  002656  0900               	btfss	status,2
 11423  002658  A4D8               	goto	i2u238_41
 11424  00265A  EF31  F013         	goto	i2u238_40
 11425  00265E  EF33  F013         i2u238_41:
 11426  002662                     	goto	i2l2623
 11427  002662  EF05  F013         i2u238_40:
 11428  002666                     	goto	i2l20
 11429  002666  EF35  F013         	
 11430                           i2l19:
 11431  00266A                     	line	67
 11432                           	
 11433                           i2l20:
 11434  00266A                     	return	;funcret
 11435  00266A  0012               	opt stack 0
 11436                           GLOBAL	__end_ofi2_lcd_puts
 11437                           	__end_ofi2_lcd_puts:
 11438  00266C                     	signat	i2_lcd_puts,89
 11439                           	global	i2_lcd_goto
 11440                           
 11441 ;; *************** function i2_lcd_goto *****************
 11442 ;; Defined at:
 11443 ;;		line 84 in file "lcd.c"
 11444 ;; Parameters:    Size  Location     Type
 11445 ;;  pos             1    wreg     unsigned char 
 11446 ;; Auto vars:     Size  Location     Type
 11447 ;;  pos             1    1[COMRAM] unsigned char 
 11448 ;; Return value:  Size  Location     Type
 11449 ;;                  1    wreg      void 
 11450 ;; Registers used:
 11451 ;;		wreg, status,2, status,0, cstack
 11452 ;; Tracked objects:
 11453 ;;		On entry : 0/0
 11454 ;;		On exit  : 0/0
 11455 ;;		Unchanged: 0/0
 11456 ;; Data sizes:     COMRAM   BANK0   BANK1   BANK2   BANK3   BANK4   BANK5
 11457 ;;      Params:         0       0       0       0       0       0       0
 11458 ;;      Locals:         1       0       0       0       0       0       0
 11459 ;;      Temps:          0       0       0       0       0       0       0
 11460 ;;      Totals:         1       0       0       0       0       0       0
 11461 ;;Total ram usage:        1 bytes
 11462 ;; Hardware stack levels used:    1
 11463 ;; Hardware stack levels required when called:    1
 11464 ;; This function calls:
 11465 ;;		i2_lcd_write
 11466 ;; This function is called by:
 11467 ;;		i2_escreve
 11468 ;;		i2_escreve2
 11469 ;; This function uses a non-reentrant model
 11470 ;;
 11471                           psect	text41,class=CODE,space=0,reloc=2,group=0
 11472                           	line	84
 11473                           global __ptext41
 11474                           __ptext41:
 11475  002B7A                     psect	text41
 11476                           	file	"lcd.c"
 11477                           	line	84
 11478                           	global	__size_ofi2_lcd_goto
 11479                           	__size_ofi2_lcd_goto	equ	__end_ofi2_lcd_goto-i2_lcd_goto
 11480  0000                     	
 11481                           i2_lcd_goto:
 11482  002B7A                     ;incstack = 0
 11483                           	opt	stack 15
 11484                           ;i2lcd_goto@pos stored from wreg
 11485                           	movwf	((c:i2lcd_goto@pos)),c
 11486  002B7A  6E02               	line	86
 11487                           	
 11488                           i2l2629:
 11489  002B7C                     ;lcd.c: 84: lcd_goto(unsigned char pos);lcd.c: 85: {;lcd.c: 86:  LE0 = 0;
 11490                           	bcf	c:(31848/8),(31848)&7	;volatile
 11491  002B7C  908D               	line	87
 11492                           	
 11493                           i2l2631:
 11494  002B7E                     ;lcd.c: 87:  lcd_write(0x80+pos);
 11495                           	movf	((c:i2lcd_goto@pos)),c,w
 11496  002B7E  5002               	addlw	low(080h)
 11497  002B80  0F80               	
 11498                           	call	i2_lcd_write
 11499  002B82  ECAA  F015         	line	88
 11500                           	
 11501                           i2l26:
 11502  002B86                     	return	;funcret
 11503  002B86  0012               	opt stack 0
 11504                           GLOBAL	__end_ofi2_lcd_goto
 11505                           	__end_ofi2_lcd_goto:
 11506  002B88                     	signat	i2_lcd_goto,89
 11507                           	global	i2_lcd_clear
 11508                           
 11509 ;; *************** function i2_lcd_clear *****************
 11510 ;; Defined at:
 11511 ;;		line 52 in file "lcd.c"
 11512 ;; Parameters:    Size  Location     Type
 11513 ;;		None
 11514 ;; Auto vars:     Size  Location     Type
 11515 ;;		None
 11516 ;; Return value:  Size  Location     Type
 11517 ;;                  1    wreg      void 
 11518 ;; Registers used:
 11519 ;;		wreg, status,2, cstack
 11520 ;; Tracked objects:
 11521 ;;		On entry : 0/0
 11522 ;;		On exit  : 0/0
 11523 ;;		Unchanged: 0/0
 11524 ;; Data sizes:     COMRAM   BANK0   BANK1   BANK2   BANK3   BANK4   BANK5
 11525 ;;      Params:         0       0       0       0       0       0       0
 11526 ;;      Locals:         0       0       0       0       0       0       0
 11527 ;;      Temps:          1       0       0       0       0       0       0
 11528 ;;      Totals:         1       0       0       0       0       0       0
 11529 ;;Total ram usage:        1 bytes
 11530 ;; Hardware stack levels used:    1
 11531 ;; Hardware stack levels required when called:    1
 11532 ;; This function calls:
 11533 ;;		i2_lcd_write
 11534 ;; This function is called by:
 11535 ;;		i2_escreve
 11536 ;;		i2_escreve2
 11537 ;; This function uses a non-reentrant model
 11538 ;;
 11539                           psect	text42,class=CODE,space=0,reloc=2,group=0
 11540                           	line	52
 11541                           global __ptext42
 11542                           __ptext42:
 11543  002B26                     psect	text42
 11544                           	file	"lcd.c"
 11545                           	line	52
 11546                           	global	__size_ofi2_lcd_clear
 11547                           	__size_ofi2_lcd_clear	equ	__end_ofi2_lcd_clear-i2_lcd_clear
 11548  0000                     	
 11549                           i2_lcd_clear:
 11550  002B26                     ;incstack = 0
 11551                           	opt	stack 15
 11552                           	line	54
 11553                           	
 11554                           i2l2615:
 11555  002B26                     ;lcd.c: 54:  LE0 = 0;
 11556                           	bcf	c:(31848/8),(31848)&7	;volatile
 11557  002B26  908D               	line	55
 11558                           	
 11559                           i2l2617:
 11560  002B28                     ;lcd.c: 55:  lcd_write(0x01);
 11561                           	movlw	(01h)&0ffh
 11562  002B28  0E01               	
 11563                           	call	i2_lcd_write
 11564  002B2A  ECAA  F015         	line	56
 11565                           	
 11566                           i2l2619:
 11567  002B2E                     ;lcd.c: 56:  _delay((unsigned long)((2)*(4000000/4000.0)));
 11568                           	opt asmopt_push
 11569                           opt asmopt_off
 11570                           movlw	3
 11571  002B2E  0E03               movwf	(??i2_lcd_clear+0+0)&0ffh,c,f
 11572  002B30  6E02               	movlw	152
 11573  002B32  0E98               i2u311_47:
 11574  002B34                     decfsz	wreg,f
 11575  002B34  2EE8               	bra	i2u311_47
 11576  002B36  D7FE               	decfsz	(??i2_lcd_clear+0+0)&0ffh,c,f
 11577  002B38  2E02               	bra	i2u311_47
 11578  002B3A  D7FC               opt asmopt_pop
 11579                           
 11580                           	line	57
 11581                           	
 11582                           i2l14:
 11583  002B3C                     	return	;funcret
 11584  002B3C  0012               	opt stack 0
 11585                           GLOBAL	__end_ofi2_lcd_clear
 11586                           	__end_ofi2_lcd_clear:
 11587  002B3E                     	signat	i2_lcd_clear,89
 11588                           	global	i2_lcd_write
 11589                           
 11590 ;; *************** function i2_lcd_write *****************
 11591 ;; Defined at:
 11592 ;;		line 38 in file "lcd.c"
 11593 ;; Parameters:    Size  Location     Type
 11594 ;;  c               1    wreg     unsigned char 
 11595 ;; Auto vars:     Size  Location     Type
 11596 ;;  c               1    0[COMRAM] unsigned char 
 11597 ;; Return value:  Size  Location     Type
 11598 ;;                  1    wreg      void 
 11599 ;; Registers used:
 11600 ;;		wreg, status,2, cstack
 11601 ;; Tracked objects:
 11602 ;;		On entry : 0/0
 11603 ;;		On exit  : 0/0
 11604 ;;		Unchanged: 0/0
 11605 ;; Data sizes:     COMRAM   BANK0   BANK1   BANK2   BANK3   BANK4   BANK5
 11606 ;;      Params:         0       0       0       0       0       0       0
 11607 ;;      Locals:         1       0       0       0       0       0       0
 11608 ;;      Temps:          0       0       0       0       0       0       0
 11609 ;;      Totals:         1       0       0       0       0       0       0
 11610 ;;Total ram usage:        1 bytes
 11611 ;; Hardware stack levels used:    1
 11612 ;; This function calls:
 11613 ;;		Nothing
 11614 ;; This function is called by:
 11615 ;;		i2_lcd_clear
 11616 ;;		i2_lcd_puts
 11617 ;;		i2_lcd_goto
 11618 ;; This function uses a non-reentrant model
 11619 ;;
 11620                           psect	text43,class=CODE,space=0,reloc=2,group=0
 11621                           	line	38
 11622                           global __ptext43
 11623                           __ptext43:
 11624  002B54                     psect	text43
 11625                           	file	"lcd.c"
 11626                           	line	38
 11627                           	global	__size_ofi2_lcd_write
 11628                           	__size_ofi2_lcd_write	equ	__end_ofi2_lcd_write-i2_lcd_write
 11629  0000                     	
 11630                           i2_lcd_write:
 11631  002B54                     ;incstack = 0
 11632                           	opt	stack 15
 11633                           ;i2lcd_write@c stored from wreg
 11634                           	movwf	((c:i2lcd_write@c)),c
 11635  002B54  6E01               	line	40
 11636                           	
 11637                           i2l2539:
 11638  002B56                     ;lcd.c: 38: lcd_write(unsigned char c);lcd.c: 39: {;lcd.c: 40:  _delay((unsigned long)((
                                 1)*(4000000/4000.0)));
 11639                           	opt asmopt_push
 11640                           opt asmopt_off
 11641                           	movlw	200
 11642  002B56  0EC8               i2u312_47:
 11643  002B58                     	nop2
 11644  002B58  D000               decfsz	wreg,f
 11645  002B5A  2EE8               	bra	i2u312_47
 11646  002B5C  D7FD               opt asmopt_pop
 11647                           
 11648                           	line	41
 11649                           	
 11650                           i2l2541:
 11651  002B5E                     ;lcd.c: 41:     PORTD = ( c );
 11652                           	movff	(c:i2lcd_write@c),(c:3971)	;volatile
 11653  002B5E  C001  FF83         	line	42
 11654                           	
 11655                           i2l2543:
 11656  002B62                     ;lcd.c: 42:  ((LE1 = 1),(LE1=0));
 11657                           	bsf	c:(31849/8),(31849)&7	;volatile
 11658  002B62  828D               	
 11659                           i2l2545:
 11660  002B64                     	bcf	c:(31849/8),(31849)&7	;volatile
 11661  002B64  928D               	line	45
 11662                           	
 11663                           i2l11:
 11664  002B66                     	return	;funcret
 11665  002B66  0012               	opt stack 0
 11666                           GLOBAL	__end_ofi2_lcd_write
 11667                           	__end_ofi2_lcd_write:
 11668  002B68                     	signat	i2_lcd_write,89
 11669                           psect	smallconst
 11670                           	db 0	; dummy byte at the end
 11671  000644  00                 	global	__smallconst
 11672                           	global	__mediumconst
 11673                           	GLOBAL	__activetblptr
 11674                           __activetblptr	EQU	2
 11675  0000                     	psect	intsave_regs,class=BIGRAM,space=1,noexec
 11676                           	PSECT	rparam,class=COMRAM,space=1,noexec
 11677                           	GLOBAL	__Lrparam
 11678                           	FNCONF	rparam,??,?
 11679                           	GLOBAL	___rparam_used
 11680                           	___rparam_used EQU 1
 11681  0000                     	GLOBAL	___param_bank
 11682                           	___param_bank EQU 0
 11683  0000                     GLOBAL	__Lparam, __Hparam
 11684                           GLOBAL	__Lrparam, __Hrparam
 11685                           __Lparam	EQU	__Lrparam
 11686  0000                     __Hparam	EQU	__Hrparam
 11687  0000                            psect   temp,common,ovrld,class=COMRAM,space=1
 11688                           	global	btemp
 11689                           btemp:
 11690  00007C                     	ds	1
 11691  00007C                     	global	int$flags
 11692                           	int$flags	set btemp
 11693  0000                     	global	wtemp8
 11694                           	wtemp8 set btemp+1
 11695  0000                     	global	ttemp5
 11696                           	ttemp5 set btemp+1
 11697  0000                     	global	ttemp6
 11698                           	ttemp6 set btemp+4
 11699  0000                     	global	ttemp7
 11700                           	ttemp7 set btemp+8
 11701  0000                     	end


Data Sizes:
    Strings     67
    Constant    0
    Data        0
    BSS         72
    Persistent  0
    Stack       0

Auto Spaces:
    Space          Size  Autos    Used
    COMRAM          126    115     123
    BANK0           128    108     125
    BANK1           256      0      47
    BANK2           256      0       0
    BANK3           256      0       0
    BANK4           256      0       0
    BANK5           256      0       0

Pointer List with Targets:

    i2sprintf@f.buffer	PTR unsigned char  size(2) Largest target is 0
		 -> estadoMes(BANK1[15]), tempoDis(BANK0[5]), 

    strlen@s	PTR const unsigned char  size(2) Largest target is 32
		 -> dbuf(BANK1[32]), 

    strlen@a	PTR const unsigned char  size(2) Largest target is 32
		 -> dbuf(BANK1[32]), 

    sprintf@fmt	PTR const unsigned char  size(2) Largest target is 10
		 -> STR_11(CODE[10]), STR_10(CODE[9]), STR_9(CODE[7]), STR_8(CODE[7]), 
		 -> STR_7(CODE[9]), STR_6(CODE[9]), STR_5(CODE[7]), STR_4(CODE[7]), 
		 -> STR_3(CODE[7]), STR_2(CODE[10]), STR_1(CODE[3]), 

    sprintf@s	PTR unsigned char  size(2) Largest target is 15
		 -> estadoMes(BANK1[15]), tempoDis(BANK0[5]), 

    sprintf@ap	PTR void [1] size(2) Largest target is 2
		 -> ?_sprintf(BANK0[2]), 

    f.buffer	PTR unsigned char  size(2) Largest target is 15
		 -> estadoMes(BANK1[15]), tempoDis(BANK0[5]), 

    fputs@s	PTR const unsigned char  size(2) Largest target is 32
		 -> dbuf(BANK1[32]), 

    fputs@fp	PTR struct _IO_FILE size(2) Largest target is 7
		 -> sprintf@f(BANK0[6]), 

    S808_IO_FILE$buffer	PTR unsigned char  size(2) Largest target is 15
		 -> estadoMes(BANK1[15]), tempoDis(BANK0[5]), 

    fputc@fp.buffer	PTR unsigned char  size(2) Largest target is 15
		 -> estadoMes(BANK1[15]), tempoDis(BANK0[5]), 

    fputc@fp	PTR struct _IO_FILE size(2) Largest target is 7
		 -> sprintf@f(BANK0[6]), 

    vfprintf@ap	PTR PTR void  size(2) Largest target is 2
		 -> sprintf@ap(BANK0[2]), 

    vfprintf@fp	PTR struct _IO_FILE size(2) Largest target is 7
		 -> sprintf@f(BANK0[6]), 

    vfprintf@fmt	PTR const unsigned char  size(2) Largest target is 10
		 -> STR_11(CODE[10]), STR_10(CODE[9]), STR_9(CODE[7]), STR_8(CODE[7]), 
		 -> STR_7(CODE[9]), STR_6(CODE[9]), STR_5(CODE[7]), STR_4(CODE[7]), 
		 -> STR_3(CODE[7]), STR_2(CODE[10]), STR_1(CODE[3]), 

    vfprintf@cfmt	PTR unsigned char  size(2) Largest target is 10
		 -> STR_11(CODE[10]), STR_10(CODE[9]), STR_9(CODE[7]), STR_8(CODE[7]), 
		 -> STR_7(CODE[9]), STR_6(CODE[9]), STR_5(CODE[7]), STR_4(CODE[7]), 
		 -> STR_3(CODE[7]), STR_2(CODE[10]), STR_1(CODE[3]), 

    vfpfcnvrt@fp	PTR struct _IO_FILE size(2) Largest target is 7
		 -> sprintf@f(BANK0[6]), 

    vfpfcnvrt@ap	PTR PTR void  size(2) Largest target is 2
		 -> sprintf@ap(BANK0[2]), 

    vfpfcnvrt@fmt	PTR PTR unsigned char  size(2) Largest target is 2
		 -> vfprintf@cfmt(BANK0[2]), 

    dtoa@fp	PTR struct _IO_FILE size(2) Largest target is 7
		 -> sprintf@f(BANK0[6]), 

    pad@fp	PTR struct _IO_FILE size(2) Largest target is 7
		 -> sprintf@f(BANK0[6]), 

    pad@buf	PTR unsigned char  size(2) Largest target is 32
		 -> dbuf(BANK1[32]), 

    lcd_puts@s	PTR const unsigned char  size(2) Largest target is 15
		 -> STR_14(CODE[7]), STR_13(CODE[8]), STR_12(CODE[8]), estadoMes(BANK1[15]), 
		 -> tempoDis(BANK0[5]), 


Critical Paths under _main in COMRAM

    None.

Critical Paths under _tmr in COMRAM

    _tmr->i2_estadosMaquina
    i2_estadosMaquina->i2_tempo1
    i2_tempo1->i2_sprintf
    i2_sprintf->i2_vfprintf
    i2_vfprintf->i2_vfpfcnvrt
    i2_vfpfcnvrt->i2_dtoa
    i2_dtoa->i2_pad
    i2_pad->i2_fputs
    i2_fputs->i2_fputc
    i2_abs->i2___aomod
    i2_escreve2->i2_lcd_puts
    i2_escreve->i2_lcd_puts
    i2_lcd_puts->i2_lcd_write
    i2_lcd_goto->i2_lcd_write
    i2_lcd_clear->i2_lcd_write

Critical Paths under _main in BANK0

    _main->_estadosMaquina
    _lcd_init->_lcd_clear
    _estadosMaquina->_tempo1
    _tempo1->_sprintf
    _sprintf->_vfprintf
    _vfprintf->_vfpfcnvrt
    _vfpfcnvrt->_dtoa
    _dtoa->_pad
    _pad->_fputs
    _fputs->_fputc
    _abs->___aomod
    _escreve2->_lcd_puts
    _escreve->_lcd_puts
    _lcd_puts->_lcd_write
    _lcd_goto->_lcd_write
    _lcd_clear->_lcd_write

Critical Paths under _tmr in BANK0

    None.

Critical Paths under _main in BANK1

    None.

Critical Paths under _tmr in BANK1

    None.

Critical Paths under _main in BANK2

    None.

Critical Paths under _tmr in BANK2

    None.

Critical Paths under _main in BANK3

    None.

Critical Paths under _tmr in BANK3

    None.

Critical Paths under _main in BANK4

    None.

Critical Paths under _tmr in BANK4

    None.

Critical Paths under _main in BANK5

    None.

Critical Paths under _tmr in BANK5

    None.

Call Graph Tables:

 ---------------------------------------------------------------------------------
 (Depth) Function   	        Calls       Base Space   Used Autos Params    Refs
 ---------------------------------------------------------------------------------
 (0) _main                                                 1     1      0   17245
                                            107 BANK0      1     1      0
                             _config
                     _estadosMaquina
                           _lcd_init
 ---------------------------------------------------------------------------------
 (1) _lcd_init                                             2     2      0      67
                                              2 BANK0      2     2      0
                          _lcd_clear
                          _lcd_write
 ---------------------------------------------------------------------------------
 (1) _estadosMaquina                                       2     2      0   17178
                                            105 BANK0      2     2      0
                            _escreve
                            _sprintf
                             _tempo1
 ---------------------------------------------------------------------------------
 (2) _tempo1                                               2     2      0    8589
                                            103 BANK0      2     2      0
                           _escreve2
                            _sprintf
 ---------------------------------------------------------------------------------
 (3) _sprintf                                             16    10      6    8000
                                             87 BANK0     16    10      6
                           _vfprintf
 ---------------------------------------------------------------------------------
 (4) _vfprintf                                             8     2      6    6120
                                             79 BANK0      8     2      6
                          _vfpfcnvrt
 ---------------------------------------------------------------------------------
 (5) _vfpfcnvrt                                           42    36      6    5751
                                             63 BANK0     16    10      6
                               _dtoa
                              _fputc
 ---------------------------------------------------------------------------------
 (6) _dtoa                                                36    26     10    4358
                                             27 BANK0     36    26     10
                            ___aodiv
                            ___aomod
                                _abs
                                _pad
 ---------------------------------------------------------------------------------
 (7) _pad                                                 11     5      6    2709
                                             16 BANK0     11     5      6
                              _fputc
                              _fputs
                             _strlen
 ---------------------------------------------------------------------------------
 (8) _strlen                                               6     4      2     166
                                              0 BANK0      6     4      2
 ---------------------------------------------------------------------------------
 (8) _fputs                                                7     3      4    1235
                                              9 BANK0      7     3      4
                              _fputc
 ---------------------------------------------------------------------------------
 (6) _fputc                                                9     5      4     834
                                              0 BANK0      9     5      4
                              _putch
 ---------------------------------------------------------------------------------
 (7) _putch                                                1     1      0       0
 ---------------------------------------------------------------------------------
 (7) _abs                                                  4     2      2     142
                                             18 BANK0      4     2      2
                            ___aomod (ARG)
 ---------------------------------------------------------------------------------
 (7) ___aomod                                             18     2     16     448
                                              0 BANK0     18     2     16
 ---------------------------------------------------------------------------------
 (7) ___aodiv                                             26    10     16     452
                                              0 BANK0     26    10     16
 ---------------------------------------------------------------------------------
 (3) _escreve2                                             0     0      0     589
                          _lcd_clear
                           _lcd_goto
                           _lcd_puts
 ---------------------------------------------------------------------------------
 (2) _escreve                                              0     0      0     589
                          _lcd_clear
                           _lcd_goto
                           _lcd_puts
 ---------------------------------------------------------------------------------
 (4) _lcd_puts                                             2     0      2     523
                                              1 BANK0      2     0      2
                          _lcd_write
 ---------------------------------------------------------------------------------
 (4) _lcd_goto                                             1     1      0      44
                                              1 BANK0      1     1      0
                          _lcd_write
 ---------------------------------------------------------------------------------
 (2) _lcd_clear                                            1     1      0      22
                                              1 BANK0      1     1      0
                          _lcd_write
 ---------------------------------------------------------------------------------
 (2) _lcd_write                                            1     1      0      22
                                              0 BANK0      1     1      0
 ---------------------------------------------------------------------------------
 (1) _config                                               0     0      0       0
 ---------------------------------------------------------------------------------
 Estimated maximum stack depth 8
 ---------------------------------------------------------------------------------
 (Depth) Function   	        Calls       Base Space   Used Autos Params    Refs
 ---------------------------------------------------------------------------------
 (11) _tmr                                                 8     8      0    9830
                                            107 COMRAM     8     8      0
                   i2_estadosMaquina
 ---------------------------------------------------------------------------------
 (12) i2_estadosMaquina                                    2     2      0    9830
                                            105 COMRAM     2     2      0
                          i2_escreve
                          i2_sprintf
                           i2_tempo1
 ---------------------------------------------------------------------------------
 (13) i2_tempo1                                            2     2      0    4915
                                            103 COMRAM     2     2      0
                         i2_escreve2
                          i2_sprintf
 ---------------------------------------------------------------------------------
 (14) i2_sprintf                                          16    10      6    4626
                                             87 COMRAM    16    10      6
                         i2_vfprintf
 ---------------------------------------------------------------------------------
 (15) i2_vfprintf                                          8     2      6    3855
                                             79 COMRAM     8     2      6
                        i2_vfpfcnvrt
 ---------------------------------------------------------------------------------
 (16) i2_vfpfcnvrt                                        42    36      6    3651
                                             63 COMRAM    16    10      6
                             i2_dtoa
                            i2_fputc
 ---------------------------------------------------------------------------------
 (17) i2_dtoa                                             36    26     10    2808
                                             27 COMRAM    36    26     10
                          i2___aodiv
                          i2___aomod
                              i2_abs
                              i2_pad
 ---------------------------------------------------------------------------------
 (18) i2_pad                                              11     5      6    1509
                                             16 COMRAM    11     5      6
                            i2_fputc
                            i2_fputs
                           i2_strlen
 ---------------------------------------------------------------------------------
 (19) i2_strlen                                            6     4      2     116
                                              0 COMRAM     6     4      2
 ---------------------------------------------------------------------------------
 (19) i2_fputs                                             7     3      4     635
                                              9 COMRAM     7     3      4
                            i2_fputc
 ---------------------------------------------------------------------------------
 (17) i2_fputc                                             9     5      4     434
                                              0 COMRAM     9     5      4
                            i2_putch
 ---------------------------------------------------------------------------------
 (18) i2_putch                                             1     1      0       0
 ---------------------------------------------------------------------------------
 (18) i2_abs                                               4     2      2      92
                                             18 COMRAM     4     2      2
                          i2___aomod (ARG)
 ---------------------------------------------------------------------------------
 (18) i2___aomod                                          18     2     16     348
                                              0 COMRAM    18     2     16
 ---------------------------------------------------------------------------------
 (18) i2___aodiv                                          26    10     16     352
                                              0 COMRAM    26    10     16
 ---------------------------------------------------------------------------------
 (14) i2_escreve2                                          0     0      0     289
                        i2_lcd_clear
                         i2_lcd_goto
                         i2_lcd_puts
 ---------------------------------------------------------------------------------
 (13) i2_escreve                                           0     0      0     289
                        i2_lcd_clear
                         i2_lcd_goto
                         i2_lcd_puts
 ---------------------------------------------------------------------------------
 (15) i2_lcd_puts                                          2     0      2     223
                                              1 COMRAM     2     0      2
                        i2_lcd_write
 ---------------------------------------------------------------------------------
 (15) i2_lcd_goto                                          1     1      0      44
                                              1 COMRAM     1     1      0
                        i2_lcd_write
 ---------------------------------------------------------------------------------
 (15) i2_lcd_clear                                         1     1      0      22
                                              1 COMRAM     1     1      0
                        i2_lcd_write
 ---------------------------------------------------------------------------------
 (16) i2_lcd_write                                         1     1      0      22
                                              0 COMRAM     1     1      0
 ---------------------------------------------------------------------------------
 Estimated maximum stack depth 19
 ---------------------------------------------------------------------------------

 Call Graph Graphs:

 _main (ROOT)
   _config
   _estadosMaquina
     _escreve
       _lcd_clear
         _lcd_write
       _lcd_goto
         _lcd_write
       _lcd_puts
         _lcd_write
     _sprintf
       _vfprintf
         _vfpfcnvrt
           _dtoa
             ___aodiv
             ___aomod
             _abs
               ___aomod (ARG)
             _pad
               _fputc
                 _putch
               _fputs
                 _fputc
                   _putch
               _strlen
           _fputc
             _putch
     _tempo1
       _escreve2
         _lcd_clear
           _lcd_write
         _lcd_goto
           _lcd_write
         _lcd_puts
           _lcd_write
       _sprintf
         _vfprintf
           _vfpfcnvrt
             _dtoa
               ___aodiv
               ___aomod
               _abs
                 ___aomod (ARG)
               _pad
                 _fputc
                   _putch
                 _fputs
                   _fputc
                     _putch
                 _strlen
             _fputc
               _putch
   _lcd_init
     _lcd_clear
       _lcd_write
     _lcd_write

 _tmr (ROOT)
   i2_estadosMaquina
     i2_escreve
       i2_lcd_clear
         i2_lcd_write
       i2_lcd_goto
         i2_lcd_write
       i2_lcd_puts
         i2_lcd_write
     i2_sprintf
       i2_vfprintf
         i2_vfpfcnvrt
           i2_dtoa
             i2___aodiv
             i2___aomod
             i2_abs
               i2___aomod (ARG)
             i2_pad
               i2_fputc
                 i2_putch
               i2_fputs
                 i2_fputc
                   i2_putch
               i2_strlen
           i2_fputc
             i2_putch
     i2_tempo1
       i2_escreve2
         i2_lcd_clear
           i2_lcd_write
         i2_lcd_goto
           i2_lcd_write
         i2_lcd_puts
           i2_lcd_write
       i2_sprintf
         i2_vfprintf
           i2_vfpfcnvrt
             i2_dtoa
               i2___aodiv
               i2___aomod
               i2_abs
                 i2___aomod (ARG)
               i2_pad
                 i2_fputc
                   i2_putch
                 i2_fputs
                   i2_fputc
                     i2_putch
                 i2_strlen
             i2_fputc
               i2_putch

 Address spaces:
Name               Size   Autos  Total    Cost      Usage
BIGRAM             5FF      0       0      17        0.0%
EEDATA             100      0       0       0        0.0%
BITBANK5           100      0       0      16        0.0%
BANK5              100      0       0      14        0.0%
BITBANK4           100      0       0      12        0.0%
BANK4              100      0       0      13        0.0%
BITBANK3           100      0       0      10        0.0%
BANK3              100      0       0      11        0.0%
BITBANK2           100      0       0       8        0.0%
BANK2              100      0       0       9        0.0%
BITBANK1           100      0       0       6        0.0%
BANK1              100      0      2F       7       18.4%
BITBANK0            80      0       0       4        0.0%
BANK0               80     6C      7D       5       97.7%
BITCOMRAM           7E      0       0       0        0.0%
COMRAM              7E     73      7B       1       97.6%
BITSFR               0      0       0     200        0.0%
SFR                  0      0       0     200        0.0%
STACK                0      0       0       2        0.0%
NULL                 0      0       0       0        0.0%
ABS                  0      0     127      15        0.0%
DATA                 0      0     127       3        0.0%
CODE                 0      0       0       0        0.0%


Microchip Technology PIC18 Macro Assembler V2.00 build -1524193055 
Symbol Table                                                                                   Fri Nov 29 09:50:11 2019

                       l11 2B52                         l20 2602                         l14 2B24  
                       l17 25CE                         l26 2B78                         l18 25A0  
                       l19 2602                         l29 2598                __CFG_BORV$3 000000  
             __CFG_CP0$OFF 000000               __CFG_CP1$OFF 000000               __CFG_CP2$OFF 000000  
             __CFG_CP3$OFF 000000                        l104 2A48                        l130 1FFE  
                      l131 2080                        l123 1F8C                        l140 20A4  
                      l132 207C                        l124 200A                        l221 22B4  
                      l133 203E                        l125 2006                        l222 22DE  
                      l230 0E46                        l134 203E                        l126 1FC0  
                      l223 22C0                        l135 2050                        l127 1FC0  
                      l224 22FC                        l232 0E6C                        l136 2074  
                      l128 1FD2                        l225 2322                        l217 2290  
                      l241 1048                        l137 209C                        l129 1FF2  
                      l226 2340                        l234 0E74                        l170 0A12  
                      l138 20A0                        l219 22AC                        l251 10A0  
                      l243 1044                        l235 0EAA                        l163 2438  
                      l171 06CA                        l139 20A4                        l252 10E0  
                      l244 104C                        l260 1572                        l164 24A4  
                      l172 0A0E                        l180 09FE                        l245 10B4  
                      l237 0EA0                        l229 0E32                        l165 248A  
                      l181 08E8                        l173 0744                        l238 0FC4  
                      l166 24A4                        l174 0A0A                        l182 09FA  
                      l191 2AE4                        l247 1070                        l239 0EC6  
                      l255 1592                        l263 26AC                        l183 094E  
                      l175 07AA                        l256 1518                        l264 2682  
                      l176 0A06                        l184 09F6                        l249 1094  
                      l265 26C8                        l185 09A8                        l177 0804  
                      l169 0682                        l194 297C                        l258 1494  
                      l266 26D0                        l178 0A02                        l186 09F2  
                      l259 15D4                        l187 09EE                        l179 086E  
                      l380 18DA                        l188 0A12                        l381 18F6  
                      l373 17DE                        l382 192E                        l374 1814  
                      l390 1B98                        l383 1952                        l375 18FA  
                      l391 1BC2                        l376 185E                        l392 1BC6  
                      l377 1846                        l393 1C18                        l378 1870  
                      l394 1C34                        l386 1B40                        l379 1874  
                      l395 1C6C                        l387 1B72                        l396 1C90  
                      l388 1C38                        l389 1BB0                        l944 29B6  
                      l952 20DC                        l946 29C2                        l954 20D2  
                      _LE0 007C68                        l947 29C2                        l955 2184  
                      _LE1 007C69                        l956 2180                        l964 28C2  
                      l980 2806                        l965 28A6                        l981 27FC  
                      l958 2136                        l966 28E6                        l982 2822  
                      l974 2794                        l959 2188                        l967 28E6  
                      l983 2844                        l977 2B88               __CFG_CPB$OFF 000000  
             __CFG_CPD$OFF 000000         i2___aodiv@quotient 0013                        _abs 297E  
                      _pad 2268                        _tmr 0008                lcd_goto@pos 0081  
                      wreg 000FE8        __end_ofi2_vfpfcnvrt 17A2                 i2_dtoa$347 002E  
             __CFG_LVP$OFF 000000               __CFG_WDT$OFF 000000                 i2_lcd_goto 2B7A  
                     ?_abs 0092                       l2101 2188                       l2201 185E  
                     l2121 28B8                       l2211 18DA                       l2203 1874  
                     l2123 28C2                       l2131 2822                       l2221 1952  
                     l2213 18EC                       l2205 1886                       l2117 2898  
                     l2133 2844                       l2125 27F0                       l2207 18B4  
                     l2215 18FA                       l2231 1B40                       l2223 1B04  
                     l2119 28A6                       l2127 27FC                       l3111 1F68  
                     l2217 190A                       l2209 18D4                       l2241 1BB0  
                     l2233 1B4E                       l2225 1B0A                       l2129 2806  
                     l2161 22AC                       l2153 2268                       l2401 0FE0  
                     l3121 1F84                       l3113 1F70                       l2219 192E  
                     l2243 1BC6                       l2251 1C38                       l2235 1B72  
                     l2227 1B18                       l2091 20BC                       l2171 2322  
                     l2163 22C0                       l2155 2278                       l2411 105E  
                     l2403 0FFE                       l3131 1FD2                       l3123 1F8C  
                     l3115 1F74                       l2181 17A8                       l2253 1C48  
                     l2245 1BF4                       l2237 1B90                       l2229 1B38  
                     l2093 20D2                       l2173 2340                       l2165 22D4  
                     l2157 2290                       l2421 10A0                       l2413 1070  
                     l2405 1018                       l2501 1432                       l3141 2018  
                     l3133 1FE6                       l3125 1F9A                       l3117 1F78  
                     l2191 180C                       l2183 17B6                       l2255 1C6C  
                     l2247 1C18                       l2239 1B98                       l2175 297E  
                     l2095 20DC                       l2167 22DE                       l2159 22A0  
                     l2415 1076                       l2423 10B4                       l2407 1032  
                     l2511 14DC                       l2503 1444                       l3151 2074  
                     l3143 2028                       l3135 1FF2                       l3127 1FAA  
                     l3119 1F7C                       l2601 25CE                       l2193 1814  
                     l2185 17D6                       l2257 1C90                       l2249 1C2A  
                     l2177 299A                       l2097 20FC                       l2089 20A8  
                     l2169 230A                       l2425 10E0                       l2417 1088  
                     l2409 104C                       l2521 1560                       l2513 1514  
                     l2505 1448                       l3145 203A                       l3153 2080  
                     l3137 1FFE                       l3129 1FBC                       l2603 2B6C  
                     l2195 1820                       l2187 17DE                       l2179 17A2  
                     l2099 2136                       l2419 1094                       l2371 0E32  
                     l2523 156E                       l2515 1518                       l2507 146C  
                     l2531 1592                       l2611 2682                       l3155 2094  
                     l3147 2050                       l3139 200A                       l2605 2B6E  
                     l2197 183E                       l2189 17EC                       l2381 0E8E  
                     l2373 0E40                       l2365 0DC4                       l2533 15B8  
                     l2517 153C                       l2525 1572                       l2509 1494  
                     l2613 26AC                       l2701 244A                       l3149 2064  
                     l2711 2ABE                       l2199 1846                       l2391 0ECC  
                     l2383 0EA0                       l2375 0E46                       l2367 0DE4  
                     l2535 15C6                       l2527 1580                       l2519 154A  
                     l2607 266C                       l2703 2464                       l2713 2AC2  
                     l2393 0F50                       l2385 0EAA                       l2377 0E60  
                     l2369 0E0E                       l2537 15D4                       l2529 158E  
                     l2609 2674                       l2641 2738                       l2705 2482  
                     l2801 0666                       l2491 2B4A                       l2715 2AC8  
                     l2395 0F56                       l2387 0EB2                       l2379 0E7C  
                     l2651 2794                       l2643 274A                       l2707 248A  
                     l2811 06AC                       l2803 067A                       l2493 2B4E  
                     l2717 2AD6                       l2661 295A                       l2653 2934  
                     l2397 0F5C                       l2389 0EC6                       l2645 2752  
                     l2709 2492                       l2901 08B4                       l2813 06AE  
                     l2821 06CA                       l2805 0682                       l2495 2B50  
                     l2591 2B0C                       l2663 2960                       l2655 2938  
                     l2399 0FC4                       l2647 275A                       l2903 08CA  
                     l2911 08E8                       l2831 0710                       l2823 06E0  
                     l2815 06B0                       l2807 0696                       l2751 2538  
                     l2489 2B42                       l2593 2B12                       l2665 296E  
                     l2657 293E                       l2497 1400                       l2649 277E  
                     l2921 0934                       l2913 08FE                       l2905 08CE  
                     l2833 0726                       l2825 06EE                       l2841 0744  
                     l2817 06B4                       l2809 06AA                       l2761 2562  
                     l2753 254A                       l2745 252E                       l2595 259A  
                     l2659 294C                       l2499 1424                       l2931 0972  
                     l2923 0938                       l2915 0902                       l2907 08D2  
                     l2851 0790                       l2843 075A                       l2835 072A  
                     l2827 06F4                       l2819 06C2                       l2771 2572  
                     l2763 2564                       l2755 254E                       l2747 2534  
                     l2589 2B0A                       l2597 25A0                       l2693 2418  
                     l2933 0976                       l2941 09A8                       l2925 0946  
                     l2917 091C                       l2909 08E0                       l2861 07CE  
                     l2853 0794                       l2845 075E                       l2837 072E  
                     l2829 070E                       l2781 258E                       l2773 257E  
                     l2765 2566                       l2757 2550                       l2749 2536  
                     ?_pad 0090                       l2791 2A44                       l2599 25C4  
                     l2695 2422                       l2943 09BE                       l2935 098E  
                     l2919 091E                       l2927 094E                       l2863 07D2  
                     l2871 0804                       l2855 07A2                       l2847 0778  
                     l2839 073C                       l2783 2594                       l2775 2580  
                     l2767 256E                       l2759 2552                       l2793 2A46  
                     l2785 2A08                       l2697 2434                       l2945 09C6  
                     l2937 0992                       l2929 0964                       l2881 083E  
                     l2873 081A                       l2865 07EA                       l2849 077A  
                     l2857 07AA                       l2777 2582                       l2769 2570  
                     l2787 2A10                       l2699 2438                       l2947 09D2  
                     l2939 09A0                       l2891 0884                       l2883 0854  
                     l2875 0820                       l2867 07EE                       l2859 07C0  
                     l2795 0646                       l2779 2588                       l2789 2A1E  
                     l2949 09E6                       l2893 0892                       l2885 0858  
                     l2877 083A                       l2869 07FC                       l2797 065A  
                     l2895 0896                       l2887 0866                       l2879 083C  
                     l2799 0662                       l2897 08B0                       l2889 086E  
                     l2899 08B2                 i2_lcd_puts 2604                       ?_tmr 0001  
                     STR_1 0641                       STR_2 0601                       STR_3 063A  
                     STR_4 0633                       STR_5 062C                       STR_6 060B  
                     STR_7 0614                       STR_8 0633                       STR_9 062C  
                     u2000 0E9C                       u2001 0E98                       u2010 0FE0  
                     u2011 0FDC                       u2020 0FFE                       u2021 0FFA  
                     u2030 1018                       u2031 1014                       u2040 1032  
                     u2041 102E                       u2050 1040                       u2051 103C  
                     u2060 105E                       u2061 105A                       u2070 106C  
                     u2071 1068                       u3007 08A2                       u2320 25C0  
                     u1600 22FC                       u2080 1088                       u2240 1424  
                     u2400 2430                       u1601 22F8                       u2081 1084  
                     u2241 1420                       u2401 242C                       u3017 090E  
                     u2330 25EE                       u1610 230A                       u2250 146C  
                     u2410 244A                       u1611 2306                       u2251 1468  
                     u3027 2456                       u2411 2446                       u2340 25FE  
                     u1700 1B18                       u1620 299A                       u1460 20BC  
                     u1540 28E2                       u2260 1490                       u2420 24A0  
                     u2500 075A                       u3037 2B1A                       u2341 25FA  
                     u1701 1B14                       u1621 2996                       u1461 20B8  
                     u1541 28DE                       u2261 148C                       u2421 249C  
                     u2501 0756                       u1630 17B6                       u1710 1B4E  
                     u1470 20CE                       u1550 281E                       u2270 153C  
                     u2350 26C8                       u2510 07C0                       u3047 2B44  
                     u2327 25B6                       u1631 17B2                       u1711 1B4A  
                     u1471 20CA                       u1551 281A                       u2271 1538  
                     u2351 26C4                       u2511 07BC                       u1640 17EC  
                     u1720 1B90                       u1480 20FC                       u2520 07CE  
                     u2337 25E4                       u1641 17E8                       u1721 1B8C  
                     u1481 20F8                       u2521 07CA                       u1730 1BBE  
                     u1490 2132                       u2530 081A                       u1651 181A  
                     u1731 1BBA                       u1491 212E                       u2531 0816  
                     u1660 183E                       u1740 1BF4                       u1580 2278  
                     u2540 0884                       u2460 065A                       u1661 183A  
                     u1741 1BF0                       u1581 2274                       u2541 0880  
                     u2461 0656                       u1670 186C                       u1750 1C48  
                     u1590 22A0                       u2550 0892                       u2470 0696  
                     u1671 1868                       u1751 1C44                       u1591 229C  
                     u2551 088E                       u2471 0692                       u1680 18B4  
                     u2560 08FE                       u2480 06E0                       u2800 204C  
                     _IPEN 007E87                       u1681 18B0                       u2561 08FA  
                     u2481 06DC                       u2801 2048                       u1690 190A  
                     u2570 0964                       u2490 06EE                       u2810 2064  
                     u1691 1906                       u2571 0960                       u2491 06EA  
                     u2811 2060                       u1940 0DF6                       u2580 0972  
                     u2820 2094                       u2740 1F9A                       u1941 0DF0  
                     u2581 096E                       u2821 2090                       u2741 1F96  
                     u1950 0DF8                       u2590 09BE                       u2750 1FB8  
                     u2591 09BA                       u2751 1FB4                       u1960 0E0E  
                     u2760 1FCE                       u1961 0E0A                       u2761 1FCA  
                     u1970 0E40                       u2770 1FE6                       u1971 0E3C  
                     u2771 1FE2                       u1980 0E60                       u2780 2018  
                     u1981 0E5C                       u2781 2014                       u2917 1FA2  
                     u1990 0E8E                       u2790 2036                       u1991 0E8A  
                     u2791 2032                       u2927 2020                       u2937 2540  
                     i2l11 2B66                       u2947 255A                       _RCIE 007CED  
                     i2l20 266A                       _RCIF 007CF5                       u2957 2568  
                     i2l14 2B3C                       u2967 2574                       i2l17 2636  
                     u2977 0700                       i2l26 2B86                       i2l18 260A  
                     i2l19 266A                       u2987 076A                       u2997 082C  
                     _RCIP 007CFD                       _TMR0 000FD6                 i2_escreve2 2A4A  
                     abs@a 0092                       _dbuf 0100                       _bits 0078  
                     _main 1F68                       _dtoa 0DC4                       _prec 00F0  
                     _nout 00EC                       pad@i 0097                       pad@p 0094  
                     fsr1h 000FE2                       fsr2h 000FDA                       indf1 000FE7  
                     indf2 000FDF                       fsr1l 000FE1                       pad@w 0099  
                     fsr2l 000FD9                       btemp 007C                       start 000E  
            __CFG_IESO$OFF 000000            __end_ofi2_fputc 2268            __end_ofi2_fputs 2934  
          __end_ofi2_putch 2B8C              __CFG_MCLRE$ON 000000               ___param_bank 000000  
                    ??_abs 0094                      ??_pad 0096                      ??_tmr 006C  
               i2_vfprintf 26D2                i2_lcd_clear 2B26            __end_of___aodiv 1954  
                    ?_main 0001                      ?_dtoa 009B            __end_of___aomod 1C92  
                    STR_10 060B                      STR_11 0601                      STR_12 061D  
                    STR_13 061D                      STR_14 0625                i2_lcd_write 2B54  
                    _T0CON 000FD5                      i2l221 238C                      i2l222 23B4  
                    i2l230 1164                      i2l150 1F40                      i2l223 2398  
                    i2l151 1EA2                      i2l224 23D2                      i2l232 118A  
                    i2l152 1F3C                      i2l160 1F44                      i2l225 23FA  
                    i2l217 236A                      i2l241 1364                      i2l145 1F44  
                    i2l153 1EBC                      i2l226 2416                      i2l234 1192  
                    i2l170 0DC2                      i2l154 1F38                      i2l146 1E88  
                    i2l219 2384                      i2l251 13BE                      i2l243 1360  
                    i2l235 11C8                      i2l163 24C6                      i2l171 0A98  
                    i2l155 1EE0                      i2l147 1E6E                      i2l252 13FE  
                    i2l244 1368                      i2l260 1744                      i2l164 252C  
                    i2l172 0DBE                      i2l180 0DAE                      i2l156 1F34  
                    i2l148 1E6A                      i2l245 13D2                      i2l237 11BE  
                    i2l229 114E                      i2l165 2512                      i2l181 0C9E  
                    i2l173 0B0C                      i2l157 1F04                      i2l149 1E84  
                    i2l238 12E0                      i2l166 252C                      i2l174 0DBA  
                    i2l182 0DAA                      i2l158 1F30                      i2l191 2B08  
                    i2l247 138E                      i2l239 11E4                      i2l255 1762  
                    i2l263 2712                      i2l183 0CFE                      i2l175 0B6C  
                    i2l159 1F2C                      i2l256 16EE                      i2l264 26E8  
                    i2l176 0DB6                      i2l184 0DA6                      i2l249 13B2  
                    i2l265 272E                      i2l185 0D58                      i2l177 0BC6  
                    i2l169 0A50                      i2l194 2A8A                      i2l258 166A  
                    i2l266 2736                      i2l178 0DB2                      i2l186 0DA2  
                    i2l259 17A0                      i2l187 0D9E                      i2l179 0C2A  
                    i2l380 1A8A                      i2l188 0DC2                      i2l381 1AA6  
                    i2l373 198E                      i2l382 1ADE                      i2l374 19C4  
                    i2l390 1D24                      i2l383 1B02                      i2l375 1AAA  
                    i2l391 1D4E                      i2l376 1A0E                      i2l392 1D52  
                    i2l377 19F6                      i2l393 1DA4                      i2l378 1A20  
                    i2l394 1DC0                      i2l386 1CCC                      i2l379 1A24  
                    i2l395 1DF8                      i2l387 1CFE                      i2l396 1E1C  
                    i2l388 1DC4                      i2l389 1D3C                      i2l944 29FA  
                    i2l952 21BC                      i2l946 2A06                      i2l954 21B2  
                    i2l947 2A06                      i2l955 2262                      i2l956 225E  
                    i2l964 290E                      i2l980 285A                      i2l965 28F4  
                    i2l981 2852                      i2l958 2214                      i2l966 2932  
                    i2l982 2876                      i2l974 27EE                      i2l959 2266  
                    i2l967 2932                      i2l983 2896                      i2l977 2B8A  
                    _RCREG 000FAE                      _RCSTA 000FAB               vfpfcnvrt@fmt 00C1  
                    _SPBRG 000FAF                      _PORTB 000F81                      _PORTD 000F83  
                    _PORTE 000F84                      _TRISA 000F92                      _TRISB 000F93  
                    _TRISC 000F94                      _TRISD 000F95                      _TRISE 000F96  
                    i2_abs 29C4                      _TXREG 000FAD                      _TXSTA 000FAC  
                    i2_pad 2342              __CFG_PWRT$OFF 000000              __CFG_WRT0$OFF 000000  
            __CFG_WRT1$OFF 000000              __CFG_WRT2$OFF 000000              __CFG_WRT3$OFF 000000  
           __CFG_EBTR0$OFF 000000             __CFG_FCMEN$OFF 000000             __CFG_EBTR1$OFF 000000  
           __CFG_EBTR2$OFF 000000             __CFG_EBTR3$OFF 000000              __CFG_WRTB$OFF 000000  
            __CFG_WRTC$OFF 000000              __CFG_WRTD$OFF 000000             __CFG_EBTRB$OFF 000000  
          __end_of_escreve 2AE6                      _flags 00F2                      _fputc 20A8  
                    _fputs 2898                      _tempo 00F6                      pad@fp 0090  
                    _width 00EE                      _putch 2B88                      dtoa@d 009D  
                    dtoa@i 00BD                      dtoa@n 00B5                      dtoa@p 00AF  
                    dtoa@s 00B3                      dtoa@w 00B1                      _volts 0074  
                    tablat 000FF5                      ttemp5 007D                      ttemp6 0080  
                    ttemp7 0084                      status 000FD8                      wtemp8 007D  
          __end_of_sprintf 2796         __size_ofi2___aodiv 01B0         __size_ofi2___aomod 018C  
         __end_ofi2_tempo1 252E           __end_ofi2_strlen 2898            __initialization 2A8C  
             __end_of_main 20A8               __end_of_dtoa 10E2         __size_ofi2_escreve 0024  
              i2_vfpfcnvrt 15D6              i2vfpfcnvrt@ap 0044              i2vfpfcnvrt@fp 0040  
            i2vfpfcnvrt@ll 0048  __size_ofi2_estadosMaquina 03B0                     ??_main 00EB  
                   ??_dtoa 00A5              __activetblptr 000002                 i2sprintf@f 0062  
               i2sprintf@s 0058         __size_ofi2_sprintf 005A                     ?i2_abs 0013  
                   ?i2_pad 0011                i2lcd_puts@s 0002                     _ADCON0 000FC2  
                   _ADCON1 000FC1                     _ADCON2 000FC0                     ?_fputc 0080  
                   ?_fputs 0089                ?i2_lcd_goto 0001                     ?_putch 0001  
              ?i2_lcd_puts 0002                     i2l2111 21DA                     i2l2103 218A  
                   i2l2113 2214                     i2l2105 219C                     i2l3001 0B26  
                   i2l2115 2266                     i2l2107 21B2                     i2l3011 0B64  
                   i2l3003 0B3C                     i2l2301 19F6                     i2l2109 21BC  
                   i2l2141 290E                     i2l3101 0D76                     i2l3021 0BAC  
                   i2l3005 0B3E                     i2l3013 0B6C                     i2l2311 1A84  
                   i2l2303 1A0E                     i2l2135 28E8                     i2l2151 2896  
                   i2l2143 2846                     i2l3103 0D82                     i2l3031 0BE2  
                   i2l3023 0BB0                     i2l3015 0B82                     i2l3007 0B52  
                   i2l2321 1ADE                     i2l2313 1A8A                     i2l2305 1A24  
                   i2l2137 28F4                     i2l2145 2852                     i2l3105 0D96  
                   i2l3041 0C14                     i2l3033 0BF8                     i2l3025 0BBE  
                   i2l3017 0B90                     i2l3009 0B56                     i2l2323 1B02  
                   i2l2315 1A9C                     i2l2307 1A36                     i2l2331 1CC4  
                   i2l2139 2906                     i2l2147 285A                     i2l3051 0C52  
                   i2l3043 0C22                     i2l3035 0BFA                     i2l3019 0B94  
                   i2l3027 0BC6                     i2l2309 1A64                     i2l2317 1AAA  
                   i2l2341 1D24                     i2l2333 1CCC                     i2l2325 1C92  
                   i2l2149 2876                     i2l2261 2352                     i2l3061 0C84  
                   i2l3053 0C68                     i2l3037 0BFC                     i2l3029 0BDC  
                   i2l3045 0C2A                     i2l2319 1ABA                     i2l2351 1DB6  
                   i2l2343 1D3C                     i2l2335 1CDA                     i2l2327 1C96  
                   i2l2271 23AC                     i2l2263 236A                     i2l2431 112A  
                   i2l3071 0CB8                     i2l3063 0C88                     i2l3055 0C6A  
                   i2l3047 0C40                     i2l3039 0C10                     i2l2281 1954  
                   i2l2345 1D52                     i2l2353 1DC4                     i2l2337 1CFE  
                   i2l2329 1CA4                     i2l2361 29C4                     i2l2273 23B4  
                   i2l2265 2378                     i2l2441 119A                     i2l2433 114E  
                   i2l3081 0CF6                     i2l3073 0CCE                     i2l3065 0C96  
                   i2l3057 0C6C                     i2l3049 0C4E                     i2l3161 1E50  
                   i2l2291 199C                     i2l2283 1958                     i2l2355 1DD4  
                   i2l2347 1D80                     i2l2339 1D1C                     i2l2363 29DE  
                   i2l2275 23E2                     i2l2267 2384                     i2l2259 2342  
                   i2l2451 11E4                     i2l2443 11AC                     i2l2435 115E  
                   i2l2427 10E2                     i2l3091 0D3E                     i2l3075 0CD0  
                   i2l3083 0CFE                     i2l3059 0C80                     i2l3067 0C9E  
                   i2l3171 1EA2                     i2l3163 1E66                ?i2_escreve2 0001  
                   i2l2541 2B5E                     i2l2621 2604                     i2l2293 19BC  
                   i2l2285 1966                     i2l2357 1DF8                     i2l2349 1DA4  
                   i2l2277 23FA                     i2l2269 2398                     i2l2453 11EA  
                   i2l2461 12E0                     i2l2445 11BE                     i2l2437 1164  
                   i2l2429 1102                     i2l3093 0D42                     i2l3085 0D14  
                   i2l3077 0CE4                     i2l3069 0CB4                     i2l3181 1EE0  
                   i2l3173 1EB4                     i2l3165 1E6E                     i2l3157 1E40  
                   i2l2543 2B62                     i2l2615 2B26                     i2l2631 2B7E  
                   i2l2623 260A                     i2l2295 19C4                     i2l2287 1986  
                   i2l2359 1E1C                     i2l2279 2416                     i2l2463 12FA  
                   i2l2471 1368                     i2l2455 126C                     i2l2447 11C8  
                   i2l2439 117E                     i2l2551 1608                     i2l3095 0D50  
                   i2l3087 0D22                     i2l3079 0CE8                     i2l3191 1F24  
                   i2l3183 1EF2                     i2l3175 1EBC                     i2l3167 1E88  
                   i2l3159 1E4E                     i2l2545 2B64                     i2l2617 2B28  
                   i2l2625 262E                     i2l2297 19D0                     i2l2289 198E  
                   i2l2481 13B2                     i2l2473 137A                     i2l2465 1318  
                   i2l2457 1272                     i2l2449 11D0                     i2l2561 16B2  
                   i2l2553 161A                     i2l2633 26D2                     i2l2721 24B0  
                   i2l3089 0D26                     i2l3097 0D58                     i2l3185 1EFC  
                   i2l3177 1ECE                     i2l3169 1E9A                     i2l2539 2B56  
                   i2l2619 2B2E                     i2l2627 2636                     i2l2299 19EE  
                   i2l2483 13BE                     i2l2475 138E                     i2l2467 1332  
                   i2l2459 1278                     i2l2571 1734                     i2l2563 16EA  
                   i2l2555 161E                     i2l2547 15D6                     i2l2635 26DA  
                   i2l2731 250A                     i2l2723 24C2                     i2l3099 0D6E  
                   i2l3187 1F04                     i2l3179 1ED8                     i2l2629 2B7C  
                   i2l2741 2AF0                     i2l2477 1394                     i2l2485 13D2  
                   i2l2469 134C                     i2l2573 1740                     i2l2565 16EE  
                   i2l2557 1642                     i2l2549 15FA                     i2l2581 1762  
                   i2l2637 26E8                     i2l2733 2512                     i2l2725 24C6  
                   i2l3189 1F16                     i2l2743 2AFC                     i2l2671 2A54  
                   i2l2487 13FE                     i2l2479 13A6                     i2l2583 1786  
                   i2l2567 1712                     i2l2575 1744                     i2l2559 166A  
                   i2l2639 2712                     i2l2735 251A                     i2l2727 24D8  
                   i2l2719 24A6                     i2l2737 2AE6                     i2l2673 2A60  
                   i2l2585 1794                     i2l2577 1752                     i2l2569 1720  
                   i2l2681 2796                     i2l2729 24EE                     i2l2739 2AEA  
                   i2l2675 2A6C                     i2l2667 2A4A                     i2l2587 17A0  
                   i2l2579 175E                     i2l2691 27EE                     i2l2683 27A6  
                   i2l2677 2A72                     i2l2669 2A4E                     i2l2685 27AE  
                   i2l2679 2A7E                     i2l2687 27B6                     i2l2951 0A14  
                   i2l2689 27DA                     i2l2953 0A28                     i2l2961 0A50  
                   i2l2971 0A7E                     i2l2963 0A64                     i2l2955 0A30  
                   i2l2981 0ABC                     i2l2973 0A82                     i2l2965 0A78  
                   i2l2957 0A34                     i2l2991 0AF2                     i2l2983 0AC2  
                   i2l2975 0A90                     i2l2967 0A7A                     i2l2959 0A48  
                   _INTCON 000FF2                     i2l2993 0AF6                     i2l2985 0AD8  
                   i2l2969 0A7C                     i2l2977 0A98                     i2l2995 0B04  
                   i2l2987 0ADA                     i2l2979 0AAE                     i2l2989 0AEE  
                   i2l2997 0B0C                     i2l2999 0B22                  ??i2_fputc 0005  
                ??i2_fputs 000E                     _OSCCON 000FD3                  ??i2_putch 0001  
           i2___aodiv@sign 0012                     i2abs@a 0013                     i2_dtoa 10E2  
                   i2pad@i 0018                     i2pad@p 0015                     i2pad@w 001A  
           __CFG_XINST$OFF 000000               vfprintf@cfmt 00D5           __end_of_lcd_init 259A  
         __end_of_lcd_goto 2B7A           __end_of_lcd_puts 2604             i2___aomod@sign 0012  
                ??___aodiv 0090              i2vfprintf@fmt 0052                  ??___aomod 0090  
           __CFG_STVREN$ON 000000           __end_of_escreve2 297E                     _config 2A08  
              ?i2_vfprintf 0050                     _estado 00F4                     clear_0 2A92  
                   clear_1 2A9E                     clear_2 2AAA                     _tempo1 2418  
                   pad@buf 0092                     dtoa@fp 009B                     _strlen 27F0  
                ??_escreve 0083                     fputc@c 0080                     fputs@c 008D  
                   fputs@i 008E          __end_ofi2___aodiv 1B04                     fputs@s 0089  
        __end_ofi2___aomod 1E1E               __mediumconst 0000                     tblptrh 000FF7  
                   tblptrl 000FF6                     tblptru 000FF8                     putch@c 0001  
       i2___aomod@dividend 0001           __end_of_vfprintf 26D2                  ??_sprintf 00DD  
        __end_ofi2_escreve 2B0A                 __accesstop 0080    __end_of__initialization 2AB0  
          __CFG_PBADEN$OFF 000000              ___rparam_used 000001          __end_ofi2_sprintf 27F0  
            __end_ofi2_abs 2A08              __end_ofi2_pad 2418             __pcstackCOMRAM 0001  
            __end_of_fputc 218A              __end_of_fputs 28E8              __end_of_putch 2B8A  
      __size_ofi2_lcd_goto 000E        __size_ofi2_lcd_puts 0068        __size_ofi2_escreve2 0042  
                  ??i2_abs 0015                    ??i2_pad 0017         __size_of_lcd_clear 001C  
                ?i2_tempo1 0001             i2vfpfcnvrt@fmt 0042                  ?i2_strlen 0001  
       __size_of_lcd_write 0016                    ??_fputc 0084                    ??_fputs 008D  
                  ??_putch 0080                 __pbssBANK0 00EC                 __pbssBANK1 0100  
              i2sprintf@ap 0060        __size_ofi2_vfprintf 0066    __size_of_estadosMaquina 03CE  
                  ?i2_dtoa 001C               i2lcd_write@c 0001                    ?_config 0001  
                  _BAUDCON 000FB8               ?i2_lcd_clear 0001                    ?_tempo1 0001  
         i2_estadosMaquina 0A14               ?i2_lcd_write 0001                    ?_strlen 0080  
               ??i2_tempo1 0068         __size_of_vfpfcnvrt 01D6                 ??i2_strlen 0003  
                ?_lcd_init 0001                  ?_lcd_goto 0001                  ?_lcd_puts 0081  
                ?_escreve2 0001                    i2_fputc 218A                    i2_fputs 28E8  
                  i2pad@fp 0011                    i2_putch 2B8A                    i2dtoa@d 001E  
                  i2dtoa@i 003E                    i2dtoa@n 0036                    i2dtoa@p 0030  
                  i2dtoa@s 0034                    i2dtoa@w 0032            __size_ofi2_dtoa 031E  
                  __Hparam 0000                    __Lparam 0000          __end_of_lcd_clear 2B26  
                  ___aodiv 17A2                    ___aomod 1B04          __end_of_lcd_write 2B54  
                ?_vfprintf 00CF             i2vfprintf@cfmt 0056               __psmallconst 0600  
          __size_of_config 0042               ?i2_vfpfcnvrt 0040                    __pcinit 2A8C  
                  __ramtop 0600            __size_of_tempo1 008E                    __ptext0 1F68  
                  __ptext1 252E                    __ptext2 0646                    __ptext3 2418  
                  __ptext4 2738                    __ptext5 266C                    __ptext6 1400  
                  __ptext7 0DC4                    __ptext8 2268                    __ptext9 27F0  
          __size_of_strlen 0056                    _escreve 2ABE               __size_of_abs 0046  
             __size_of_pad 00DA               __size_of_tmr 1F60                    _sprintf 2738  
             ??i2_lcd_goto 0002                 ??_lcd_init 0082                 ??_lcd_goto 0081  
             ??i2_lcd_puts 0004             __pintcode_body 1E1E                 ??_lcd_puts 0083  
     end_of_initialization 2AB0               ??i2_escreve2 0004                 ??_escreve2 0083  
                  fputc@fp 0082              __Lmediumconst 0000                    int_func 1E1E  
                  fputs@fp 008B          __end_of_vfpfcnvrt 15D6                    postdec2 000FDD  
                  postinc0 000FEE                    postinc1 000FE6                    postinc2 000FDE  
             ??i2_vfprintf 0056                 ??_vfprintf 00D5                    strlen@a 0084  
                  strlen@s 0080         __end_ofi2_lcd_goto 2B88         __end_ofi2_lcd_puts 266C  
                _PORTBbits 000F81                  _PORTCbits 000F82         __end_ofi2_escreve2 2A8C  
        i2___aodiv@divisor 0009          i2___aodiv@counter 0011                  i2___aodiv 1954  
                i2___aomod 1C92             _estadosMaquina 0646         __end_ofi2_vfprintf 2738  
                i2_escreve 2AE6             __end_ofi2_dtoa 1400                 lcd_write@c 0080  
                i2_sprintf 2796                vfpfcnvrt@ap 00C3                vfpfcnvrt@fp 00BF  
              vfpfcnvrt@ll 00C7             __end_of_config 2A4A                  i2fputc@fp 0003  
                i2fputs@fp 000C             __end_of_tempo1 24A6       __size_ofi2_lcd_clear 0018  
           __end_of_strlen 2846        start_initialization 2A8C       __size_ofi2_lcd_write 0014  
              __end_of_abs 29C4                __end_of_pad 2342                __end_of_tmr 1F68  
               ?i2___aodiv 0001                 ?i2___aomod 0001     __end_of_estadosMaquina 0A14  
        __size_ofi2_tempo1 0088         lcd_init@init_value 0083          __size_ofi2_strlen 0052  
                i2strlen@a 0005                  i2strlen@s 0001   __end_ofi2_estadosMaquina 0DC4  
         __CFG_OSC$INTIO67 000000                   ??i2_dtoa 0026                 ?i2_escreve 0001  
              vfprintf@fmt 00D1               i2vfprintf@ap 0054               i2vfprintf@fp 0050  
               ?i2_sprintf 0058                   ??_config 0080           __CFG_LPT1OSC$OFF 000000  
                 ??_tempo1 00E7          i2___aomod@divisor 0009                   ??_strlen 0082  
        i2___aomod@counter 0011       __size_ofi2_vfpfcnvrt 01CC               i2sprintf@fmt 005A  
              __pbssCOMRAM 0074               i2sprintf@ret 005E              __pcstackBANK0 0080  
         ___aodiv@dividend 0080              i2lcd_goto@pos 0002            ?_estadosMaquina 0001  
                 ?i2_fputc 0001                   ?i2_fputs 000A          __size_of_lcd_init 006C  
        __size_of_lcd_goto 0012                   ?i2_putch 0001          __size_of_lcd_puts 006A  
        __size_of_escreve2 004A          __CFG_CCP2MX$PORTC 000000                  __pintcode 0008  
                 ?___aodiv 0080                   ?___aomod 0080           ___aodiv@quotient 0092  
                _lcd_clear 2B0A          __size_of_vfprintf 0066                  _lcd_write 2B3E  
                 ?_escreve 0001                __smallconst 0600             __size_ofi2_abs 0044  
           __size_ofi2_pad 00D6                  _estadoMes 0120                ??i2___aodiv 0011  
              ??i2___aomod 0011                   ?_sprintf 00D7             __size_of_fputc 00E2  
           __size_of_fputs 0050             __size_of_putch 0002                ??i2_escreve 0004  
                 i2u210_40 1114                   i2u211_40 112A                   i2u211_41 1126  
                 i2u220_40 135C                   i2u212_40 115E                   i2u220_41 1358  
                 i2u212_41 115A                   i2u221_40 137A                   i2u213_40 117E  
                 i2u221_41 1376                   i2u213_41 117A                   i2u150_40 219C  
                 i2u222_40 138A                   i2u214_40 11AC                   i2u230_40 1666  
                 i2u150_41 2198                   i2u222_41 1386                   i2u214_41 11A8  
                 i2u230_41 1662                   i2u310_47 24E2                   i2u151_40 21AE  
                 i2u223_40 13A6                   i2u215_40 11BA                   i2u231_40 1712  
                 i2u151_41 21AA                   i2u223_41 13A2                   i2u215_41 11B6  
                 i2u231_41 170E                   i2u311_47 2B34                   i2u152_40 21DA  
                 i2u216_40 12FA                   i2u152_41 21D6                   i2u216_41 12F6  
                 i2u312_47 2B58                   i2u153_40 2210                   i2u217_40 1318  
                 i2u209_40 1112                   i2u153_41 220C                   i2u217_41 1314  
                 i2u209_41 110C                   i2u305_47 0ACC                   i2u218_40 1332  
                 i2u218_41 132E                   i2u306_47 0B30                   i2u219_40 134C  
                 i2u243_40 24BE                   i2u219_41 1348                   i2u243_41 24BA  
                 i2u307_47 0BEC                   i2u236_40 262A                   i2u180_40 1966  
                 i2u156_40 292E                   i2u228_40 15FA                   i2u244_40 24D8  
                 i2u260_40 0A28                   i2u180_41 1962                   i2u156_41 292A  
                 i2u228_41 15F6                   i2u244_41 24D4                   i2u260_41 0A24  
                 i2u236_47 2620                   i2u308_47 0C5C                   i2u237_40 2656  
                 i2u181_40 199C                   i2u157_40 2872                   i2u229_40 1642  
                 i2u245_40 2528                   i2u261_40 0A64                   i2u181_41 1998  
                 i2u157_41 286E                   i2u229_41 163E                   i2u245_41 2524  
                 i2u261_41 0A60                   i2u237_47 264C                   i2u309_47 0CC2  
                 i2u238_40 2666                   i2u190_40 1D4A                   i2u270_40 0CB4  
                 i2u262_40 0AAE                   i2u238_41 2662                   i2u182_41 19CA  
                 i2u190_41 1D46                   i2u270_41 0CB0                   i2u262_41 0AAA  
                 i2u183_40 19EE                   i2u191_40 1D80                   i2u239_40 272E  
                 i2u271_40 0D14                   i2u263_40 0ABC                   i2u183_41 19EA  
                 i2u191_41 1D7C                   i2u239_41 272A                   i2u271_41 0D10  
                 i2u263_41 0AB8                   i2u184_40 1A1C                   i2u192_40 1DD4  
                 i2u176_40 2352                   i2u272_40 0D22                   i2u264_40 0B22  
                 i2u184_41 1A18                   i2u192_41 1DD0                   i2u176_41 234E  
                 i2u272_41 0D1E                   i2u264_41 0B1E                   i2u185_40 1A64  
                 i2u193_40 29DE                   i2u177_40 2378                   i2u273_40 0D6E  
                 i2u265_40 0B82                   i2u185_41 1A60                   i2u193_41 29DA  
                 i2u177_41 2374                   i2u273_41 0D6A                   i2u265_41 0B7E  
                 i2u186_40 1ABA                   i2u178_40 23D2                   i2u266_40 0B90  
                 i2u290_40 1F16                   i2u186_41 1AB6                   i2u178_41 23CE  
                 i2u266_41 0B8C                   i2u290_41 1F12                   i2u187_40 1CA4  
                 i2u179_40 23E2                   i2u267_40 0BDC                   i2u283_40 1E4E  
                 i2u187_41 1CA0                   i2u179_41 23DE                   i2u267_41 0BD8  
                 i2u283_41 1E4A                   i2u188_40 1CDA                   i2u268_40 0C40  
                 i2u284_40 1E62                   i2u188_41 1CD6                   i2u268_41 0C3C  
                 i2u284_41 1E5E                   i2u189_40 1D1C                   i2u269_40 0C4E  
                 i2u285_40 1E80                   i2u189_41 1D18                   i2u269_41 0C4A  
                 i2u285_41 1E7C                   i2u286_40 1E9A                   i2u286_41 1E96  
                 i2u287_40 1EB4                   i2u287_41 1EB0                   i2u288_40 1ECE  
                 i2u288_41 1ECA                   i2u289_40 1EF2                   i2u289_41 1EEE  
         __CFG_WDTPS$32768 000000                ??i2_sprintf 005E                 ?_lcd_clear 0001  
                _vfpfcnvrt 1400                 ?_lcd_write 0001                  lcd_puts@s 0081  
                 i2_tempo1 24A6                   i2pad@buf 0013                   i2dtoa@fp 001C  
                 i2_strlen 2846                   i2fputc@c 0001                   i2fputs@c 000E  
                 i2fputs@i 000F                   i2fputs@s 000A           __size_ofi2_fputc 00DE  
         __size_ofi2_fputs 004C           __size_ofi2_putch 0002                   __Hrparam 0000  
               vfprintf@ap 00D3                   __Lrparam 0000                 vfprintf@fp 00CF  
       __CFG_BOREN$SBORDIS 000000           __size_of___aodiv 01B2           __size_of___aomod 018E  
               ?_vfpfcnvrt 00BF            ___aodiv@divisor 0088            ___aodiv@counter 0090  
               sprintf@fmt 00D9                 sprintf@ret 00DD           __size_of_escreve 0028  
                 _dtoa$347 00AD                   __ptext10 2898                   __ptext11 20A8  
                 __ptext20 2B0A                   __ptext12 2B88                   __ptext21 2B3E  
                 __ptext13 297E                   __ptext30 2342                   __ptext22 2A08  
                 __ptext14 1B04                   __ptext31 2846                   __ptext15 17A2  
                 __ptext40 2604                   __ptext32 28E8                   __ptext24 0A14  
                 __ptext16 2934                   __ptext41 2B7A                   __ptext33 218A  
                 __ptext25 24A6                   __ptext17 2ABE                   __ptext42 2B26  
                 __ptext34 2B8A                   __ptext26 2796                   __ptext18 259A  
                 __ptext43 2B54                   __ptext35 29C4                   __ptext27 26D2  
                 __ptext19 2B68                   __ptext36 1C92                   __ptext28 15D6  
                 __ptext37 1954                   __ptext29 10E2                   __ptext38 2A4A  
                 __ptext39 2AE6                   _lcd_init 252E                   _lcd_goto 2B68  
                 _lcd_puts 259A                   _contador 007A           __size_of_sprintf 005E  
                 _escreve2 2934              __size_of_main 0140              __size_of_dtoa 031E  
        ?i2_estadosMaquina 0001         ??i2_estadosMaquina 006A                   _tempoDis 00F8  
                 int$flags 007C                   _vfprintf 266C              ??i2_lcd_clear 0002  
              ??_lcd_clear 0081              ??i2_lcd_write 0001                ??_lcd_write 0080  
         ___aomod@dividend 0080           ??_estadosMaquina 00E9                   intlevel2 0000  
                sprintf@ap 00DF            ___aomod@divisor 0088              ??i2_vfpfcnvrt 0046  
              ??_vfpfcnvrt 00C5            ___aomod@counter 0090                   sprintf@f 00E1  
                 sprintf@s 00D7        __end_ofi2_lcd_clear 2B3E        __end_ofi2_lcd_write 2B68  
             ___aodiv@sign 0091         i2___aodiv@dividend 0001               ___aomod@sign 0091  
